
firmware.elf:     file format elf32-littleriscv


Disassembly of section .text:

00000000 <_start>:
       0:	00100137          	lui	x2,0x100
       4:	00019517          	auipc	x10,0x19
       8:	11c50513          	add	x10,x10,284 # 19120 <file_dir>
       c:	0001d597          	auipc	x11,0x1d
      10:	ee458593          	add	x11,x11,-284 # 1cef0 <_ebss>
      14:	00b55863          	bge	x10,x11,24 <end_init_bss>

00000018 <loop_init_bss>:
      18:	00052023          	sw	x0,0(x10)
      1c:	00450513          	add	x10,x10,4
      20:	feb54ce3          	blt	x10,x11,18 <loop_init_bss>

00000024 <end_init_bss>:
      24:	451030ef          	jal	3c74 <main>

00000028 <enhanced_apu_enable>:
      28:	020007b7          	lui	x15,0x2000
      2c:	00100713          	li	x14,1
      30:	08e7a023          	sw	x14,128(x15) # 2000080 <STACK_TOP+0x1f00080>
      34:	00008067          	ret

00000038 <enhanced_apu_disable>:
      38:	020007b7          	lui	x15,0x2000
      3c:	0807a023          	sw	x0,128(x15) # 2000080 <STACK_TOP+0x1f00080>
      40:	00008067          	ret

00000044 <load_option>:
      44:	98010113          	add	x2,x2,-1664 # ff980 <_ebss+0xe2a90>
      48:	66112e23          	sw	x1,1660(x2)
      4c:	66812c23          	sw	x8,1656(x2)
      50:	00100613          	li	x12,1
      54:	000115b7          	lui	x11,0x11
      58:	c7458593          	add	x11,x11,-908 # 10c74 <__clzsi2+0x88>
      5c:	40010513          	add	x10,x2,1024
      60:	4300a0ef          	jal	a490 <f_open>
      64:	00100413          	li	x8,1
      68:	30051c63          	bnez	x10,380 <load_option+0x33c>
      6c:	66912a23          	sw	x9,1652(x2)
      70:	67212823          	sw	x18,1648(x2)
      74:	67312623          	sw	x19,1644(x2)
      78:	67412423          	sw	x20,1640(x2)
      7c:	67512223          	sw	x21,1636(x2)
      80:	67612023          	sw	x22,1632(x2)
      84:	65712e23          	sw	x23,1628(x2)
      88:	65812c23          	sw	x24,1624(x2)
      8c:	65912a23          	sw	x25,1620(x2)
      90:	00011937          	lui	x18,0x11
      94:	000114b7          	lui	x9,0x11
      98:	000119b7          	lui	x19,0x11
      9c:	00011c37          	lui	x24,0x11
      a0:	00011bb7          	lui	x23,0x11
      a4:	00011b37          	lui	x22,0x11
      a8:	0001dab7          	lui	x21,0x1d
      ac:	00011a37          	lui	x20,0x11
      b0:	03c0006f          	j	ec <load_option+0xa8>
      b4:	cb098593          	add	x11,x19,-848 # 10cb0 <__clzsi2+0xc4>
      b8:	00040513          	mv	x10,x8
      bc:	718040ef          	jal	47d4 <strcmp>
      c0:	0e051263          	bnez	x10,1a4 <load_option+0x160>
      c4:	000c8593          	mv	x11,x25
      c8:	cc0b8513          	add	x10,x23,-832 # 10cc0 <__clzsi2+0xd4>
      cc:	410040ef          	jal	44dc <uart_printf>
      d0:	cd4b0593          	add	x11,x22,-812 # 10cd4 <__clzsi2+0xe8>
      d4:	000c8513          	mv	x10,x25
      d8:	728040ef          	jal	4800 <strcasecmp>
      dc:	00153593          	seqz	x11,x10
      e0:	eaba8c23          	sb	x11,-328(x21) # 1ceb8 <option_backup_bsram>
      e4:	cdca0513          	add	x10,x20,-804 # 10cdc <__clzsi2+0xf0>
      e8:	3f4040ef          	jal	44dc <uart_printf>
      ec:	40010613          	add	x12,x2,1024
      f0:	40000593          	li	x11,1024
      f4:	00010513          	mv	x10,x2
      f8:	1710c0ef          	jal	ca68 <f_gets>
      fc:	24050a63          	beqz	x10,350 <load_option+0x30c>
     100:	00010513          	mv	x10,x2
     104:	1d5040ef          	jal	4ad8 <trimwhitespace>
     108:	00050413          	mv	x8,x10
     10c:	00054783          	lbu	x15,0(x10)
     110:	fc078ee3          	beqz	x15,ec <load_option+0xa8>
     114:	fc578713          	add	x14,x15,-59
     118:	0df77713          	and	x14,x14,223
     11c:	fc0708e3          	beqz	x14,ec <load_option+0xa8>
     120:	02300713          	li	x14,35
     124:	fce784e3          	beq	x15,x14,ec <load_option+0xa8>
     128:	03d00593          	li	x11,61
     12c:	111040ef          	jal	4a3c <strchr>
     130:	00050c93          	mv	x25,x10
     134:	26050063          	beqz	x10,394 <load_option+0x350>
     138:	00050023          	sb	x0,0(x10)
     13c:	00040513          	mv	x10,x8
     140:	199040ef          	jal	4ad8 <trimwhitespace>
     144:	00050413          	mv	x8,x10
     148:	001c8513          	add	x10,x25,1
     14c:	18d040ef          	jal	4ad8 <trimwhitespace>
     150:	00050c93          	mv	x25,x10
     154:	00050613          	mv	x12,x10
     158:	00040593          	mv	x11,x8
     15c:	c8490513          	add	x10,x18,-892 # 10c84 <__clzsi2+0x98>
     160:	37c040ef          	jal	44dc <uart_printf>
     164:	c9848593          	add	x11,x9,-872 # 10c98 <__clzsi2+0xac>
     168:	00040513          	mv	x10,x8
     16c:	668040ef          	jal	47d4 <strcmp>
     170:	f40512e3          	bnez	x10,b4 <load_option+0x70>
     174:	000c8513          	mv	x10,x25
     178:	1d9040ef          	jal	4b50 <atoi>
     17c:	00050593          	mv	x11,x10
     180:	0001d437          	lui	x8,0x1d
     184:	eaa42e23          	sw	x10,-324(x8) # 1cebc <option_osd_key>
     188:	00011537          	lui	x10,0x11
     18c:	ca050513          	add	x10,x10,-864 # 10ca0 <__clzsi2+0xb4>
     190:	34c040ef          	jal	44dc <uart_printf>
     194:	ebc42783          	lw	x15,-324(x8)
     198:	f4f04ae3          	bgtz	x15,ec <load_option+0xa8>
     19c:	00200413          	li	x8,2
     1a0:	1b40006f          	j	354 <load_option+0x310>
     1a4:	cf8c0593          	add	x11,x24,-776 # 10cf8 <__clzsi2+0x10c>
     1a8:	00040513          	mv	x10,x8
     1ac:	628040ef          	jal	47d4 <strcmp>
     1b0:	04051e63          	bnez	x10,20c <load_option+0x1c8>
     1b4:	000c8593          	mv	x11,x25
     1b8:	00011537          	lui	x10,0x11
     1bc:	d2850513          	add	x10,x10,-728 # 10d28 <__clzsi2+0x13c>
     1c0:	31c040ef          	jal	44dc <uart_printf>
     1c4:	000115b7          	lui	x11,0x11
     1c8:	cd458593          	add	x11,x11,-812 # 10cd4 <__clzsi2+0xe8>
     1cc:	000c8513          	mv	x10,x25
     1d0:	630040ef          	jal	4800 <strcasecmp>
     1d4:	00153593          	seqz	x11,x10
     1d8:	0001d437          	lui	x8,0x1d
     1dc:	eab40ba3          	sb	x11,-329(x8) # 1ceb7 <option_enhanced_apu>
     1e0:	00011537          	lui	x10,0x11
     1e4:	d0850513          	add	x10,x10,-760 # 10d08 <__clzsi2+0x11c>
     1e8:	2f4040ef          	jal	44dc <uart_printf>
     1ec:	eb744703          	lbu	x14,-329(x8)
     1f0:	020007b7          	lui	x15,0x2000
     1f4:	08e7a023          	sw	x14,128(x15) # 2000080 <STACK_TOP+0x1f00080>
     1f8:	0807a583          	lw	x11,128(x15)
     1fc:	00011537          	lui	x10,0x11
     200:	d2450513          	add	x10,x10,-732 # 10d24 <__clzsi2+0x138>
     204:	2d8040ef          	jal	44dc <uart_printf>
     208:	ee5ff06f          	j	ec <load_option+0xa8>
     20c:	000115b7          	lui	x11,0x11
     210:	d3c58593          	add	x11,x11,-708 # 10d3c <__clzsi2+0x150>
     214:	00040513          	mv	x10,x8
     218:	5bc040ef          	jal	47d4 <strcmp>
     21c:	04051e63          	bnez	x10,278 <load_option+0x234>
     220:	000c8593          	mv	x11,x25
     224:	00011537          	lui	x10,0x11
     228:	d6c50513          	add	x10,x10,-660 # 10d6c <__clzsi2+0x180>
     22c:	2b0040ef          	jal	44dc <uart_printf>
     230:	000115b7          	lui	x11,0x11
     234:	cd458593          	add	x11,x11,-812 # 10cd4 <__clzsi2+0xe8>
     238:	000c8513          	mv	x10,x25
     23c:	5c4040ef          	jal	4800 <strcasecmp>
     240:	00153593          	seqz	x11,x10
     244:	0001d437          	lui	x8,0x1d
     248:	eab40b23          	sb	x11,-330(x8) # 1ceb6 <option_cheats_enabled>
     24c:	00011537          	lui	x10,0x11
     250:	d4c50513          	add	x10,x10,-692 # 10d4c <__clzsi2+0x160>
     254:	288040ef          	jal	44dc <uart_printf>
     258:	eb644703          	lbu	x14,-330(x8)
     25c:	020007b7          	lui	x15,0x2000
     260:	0ae7a023          	sw	x14,160(x15) # 20000a0 <STACK_TOP+0x1f000a0>
     264:	0a07a583          	lw	x11,160(x15)
     268:	00011537          	lui	x10,0x11
     26c:	d6850513          	add	x10,x10,-664 # 10d68 <__clzsi2+0x17c>
     270:	26c040ef          	jal	44dc <uart_printf>
     274:	e79ff06f          	j	ec <load_option+0xa8>
     278:	000115b7          	lui	x11,0x11
     27c:	d8458593          	add	x11,x11,-636 # 10d84 <__clzsi2+0x198>
     280:	00040513          	mv	x10,x8
     284:	550040ef          	jal	47d4 <strcmp>
     288:	04051e63          	bnez	x10,2e4 <load_option+0x2a0>
     28c:	000c8593          	mv	x11,x25
     290:	00011537          	lui	x10,0x11
     294:	d8c50513          	add	x10,x10,-628 # 10d8c <__clzsi2+0x1a0>
     298:	244040ef          	jal	44dc <uart_printf>
     29c:	000115b7          	lui	x11,0x11
     2a0:	d9c58593          	add	x11,x11,-612 # 10d9c <__clzsi2+0x1b0>
     2a4:	000c8513          	mv	x10,x25
     2a8:	558040ef          	jal	4800 <strcasecmp>
     2ac:	00a035b3          	snez	x11,x10
     2b0:	0001d437          	lui	x8,0x1d
     2b4:	eab40aa3          	sb	x11,-331(x8) # 1ceb5 <option_sys_type_is_pal>
     2b8:	00011537          	lui	x10,0x11
     2bc:	da450513          	add	x10,x10,-604 # 10da4 <__clzsi2+0x1b8>
     2c0:	21c040ef          	jal	44dc <uart_printf>
     2c4:	eb544703          	lbu	x14,-331(x8)
     2c8:	020007b7          	lui	x15,0x2000
     2cc:	1ce7a023          	sw	x14,448(x15) # 20001c0 <STACK_TOP+0x1f001c0>
     2d0:	1c07a583          	lw	x11,448(x15)
     2d4:	00011537          	lui	x10,0x11
     2d8:	dc450513          	add	x10,x10,-572 # 10dc4 <__clzsi2+0x1d8>
     2dc:	200040ef          	jal	44dc <uart_printf>
     2e0:	e0dff06f          	j	ec <load_option+0xa8>
     2e4:	000115b7          	lui	x11,0x11
     2e8:	dd858593          	add	x11,x11,-552 # 10dd8 <__clzsi2+0x1ec>
     2ec:	00040513          	mv	x10,x8
     2f0:	4e4040ef          	jal	47d4 <strcmp>
     2f4:	de051ce3          	bnez	x10,ec <load_option+0xa8>
     2f8:	000c8593          	mv	x11,x25
     2fc:	00011537          	lui	x10,0x11
     300:	e0c50513          	add	x10,x10,-500 # 10e0c <__clzsi2+0x220>
     304:	1d8040ef          	jal	44dc <uart_printf>
     308:	000115b7          	lui	x11,0x11
     30c:	de858593          	add	x11,x11,-536 # 10de8 <__clzsi2+0x1fc>
     310:	000c8513          	mv	x10,x25
     314:	4ec040ef          	jal	4800 <strcasecmp>
     318:	00a035b3          	snez	x11,x10
     31c:	0001d437          	lui	x8,0x1d
     320:	eab42823          	sw	x11,-336(x8) # 1ceb0 <option_aspect_ratio>
     324:	00011537          	lui	x10,0x11
     328:	dec50513          	add	x10,x10,-532 # 10dec <__clzsi2+0x200>
     32c:	1b0040ef          	jal	44dc <uart_printf>
     330:	eb042703          	lw	x14,-336(x8)
     334:	020007b7          	lui	x15,0x2000
     338:	1ee7a023          	sw	x14,480(x15) # 20001e0 <STACK_TOP+0x1f001e0>
     33c:	1e07a583          	lw	x11,480(x15)
     340:	00011537          	lui	x10,0x11
     344:	e0850513          	add	x10,x10,-504 # 10e08 <__clzsi2+0x21c>
     348:	194040ef          	jal	44dc <uart_printf>
     34c:	da1ff06f          	j	ec <load_option+0xa8>
     350:	00000413          	li	x8,0
     354:	40010513          	add	x10,x2,1024
     358:	1c00b0ef          	jal	b518 <f_close>
     35c:	67412483          	lw	x9,1652(x2)
     360:	67012903          	lw	x18,1648(x2)
     364:	66c12983          	lw	x19,1644(x2)
     368:	66812a03          	lw	x20,1640(x2)
     36c:	66412a83          	lw	x21,1636(x2)
     370:	66012b03          	lw	x22,1632(x2)
     374:	65c12b83          	lw	x23,1628(x2)
     378:	65812c03          	lw	x24,1624(x2)
     37c:	65412c83          	lw	x25,1620(x2)
     380:	00040513          	mv	x10,x8
     384:	67c12083          	lw	x1,1660(x2)
     388:	67812403          	lw	x8,1656(x2)
     38c:	68010113          	add	x2,x2,1664
     390:	00008067          	ret
     394:	00200413          	li	x8,2
     398:	fbdff06f          	j	354 <load_option+0x310>

0000039c <status>:
     39c:	ff010113          	add	x2,x2,-16
     3a0:	00112623          	sw	x1,12(x2)
     3a4:	00812423          	sw	x8,8(x2)
     3a8:	00912223          	sw	x9,4(x2)
     3ac:	00050493          	mv	x9,x10
     3b0:	01b00593          	li	x11,27
     3b4:	00000513          	li	x10,0
     3b8:	3ad030ef          	jal	3f64 <cursor>
     3bc:	02000413          	li	x8,32
     3c0:	02000513          	li	x10,32
     3c4:	3e9030ef          	jal	3fac <putchar>
     3c8:	fff40413          	add	x8,x8,-1
     3cc:	fe041ae3          	bnez	x8,3c0 <status+0x24>
     3d0:	01b00593          	li	x11,27
     3d4:	00200513          	li	x10,2
     3d8:	38d030ef          	jal	3f64 <cursor>
     3dc:	00048513          	mv	x10,x9
     3e0:	489030ef          	jal	4068 <print>
     3e4:	00c12083          	lw	x1,12(x2)
     3e8:	00812403          	lw	x8,8(x2)
     3ec:	00412483          	lw	x9,4(x2)
     3f0:	01010113          	add	x2,x2,16
     3f4:	00008067          	ret

000003f8 <message>:
     3f8:	f8010113          	add	x2,x2,-128
     3fc:	06112e23          	sw	x1,124(x2)
     400:	06812c23          	sw	x8,120(x2)
     404:	06912a23          	sw	x9,116(x2)
     408:	07212823          	sw	x18,112(x2)
     40c:	07312623          	sw	x19,108(x2)
     410:	07412423          	sw	x20,104(x2)
     414:	07512223          	sw	x21,100(x2)
     418:	07612023          	sw	x22,96(x2)
     41c:	05712e23          	sw	x23,92(x2)
     420:	05812c23          	sw	x24,88(x2)
     424:	05912a23          	sw	x25,84(x2)
     428:	05a12823          	sw	x26,80(x2)
     42c:	00050493          	mv	x9,x10
     430:	00058c93          	mv	x25,x11
     434:	658040ef          	jal	4a8c <strlen>
     438:	00050b13          	mv	x22,x10
     43c:	01810c13          	add	x24,x2,24
     440:	000c0a13          	mv	x20,x24
     444:	00048993          	mv	x19,x9
     448:	00000913          	li	x18,0
     44c:	00000413          	li	x8,0
     450:	01a00a93          	li	x21,26
     454:	0180006f          	j	46c <message+0x74>
     458:	00150993          	add	x19,x10,1
     45c:	00190913          	add	x18,x18,1
     460:	004a0a13          	add	x20,x20,4
     464:	00a00793          	li	x15,10
     468:	02f90863          	beq	x18,x15,498 <message+0xa0>
     46c:	00a00593          	li	x11,10
     470:	00098513          	mv	x10,x19
     474:	5c8040ef          	jal	4a3c <strchr>
     478:	06050263          	beqz	x10,4dc <message+0xe4>
     47c:	413507b3          	sub	x15,x10,x19
     480:	00fad463          	bge	x21,x15,488 <message+0x90>
     484:	000a8793          	mv	x15,x21
     488:	00fa2023          	sw	x15,0(x20)
     48c:	fcf456e3          	bge	x8,x15,458 <message+0x60>
     490:	00078413          	mv	x8,x15
     494:	fc5ff06f          	j	458 <message+0x60>
     498:	05b12623          	sw	x27,76(x2)
     49c:	00240793          	add	x15,x8,2
     4a0:	4017d793          	sra	x15,x15,0x1
     4a4:	00f12623          	sw	x15,12(x2)
     4a8:	01000993          	li	x19,16
     4ac:	40f989b3          	sub	x19,x19,x15
     4b0:	01340433          	add	x8,x8,x19
     4b4:	00240d13          	add	x26,x8,2
     4b8:	01212423          	sw	x18,8(x2)
     4bc:	00800a93          	li	x21,8
     4c0:	01200b93          	li	x23,18
     4c4:	002b8d93          	add	x27,x23,2
     4c8:	000a8913          	mv	x18,x21
     4cc:	00240b13          	add	x22,x8,2
     4d0:	001b8b93          	add	x23,x23,1
     4d4:	00140a13          	add	x20,x8,1
     4d8:	0e40006f          	j	5bc <message+0x1c4>
     4dc:	016487b3          	add	x15,x9,x22
     4e0:	413787b3          	sub	x15,x15,x19
     4e4:	01a00713          	li	x14,26
     4e8:	00f75463          	bge	x14,x15,4f0 <message+0xf8>
     4ec:	01a00793          	li	x15,26
     4f0:	00291713          	sll	x14,x18,0x2
     4f4:	03070713          	add	x14,x14,48
     4f8:	01010693          	add	x13,x2,16
     4fc:	00d70733          	add	x14,x14,x13
     500:	fcf72c23          	sw	x15,-40(x14)
     504:	0087d463          	bge	x15,x8,50c <message+0x114>
     508:	00040793          	mv	x15,x8
     50c:	00190693          	add	x13,x18,1
     510:	00d12423          	sw	x13,8(x2)
     514:	00390713          	add	x14,x18,3
     518:	40175713          	sra	x14,x14,0x1
     51c:	00e00a93          	li	x21,14
     520:	40ea8ab3          	sub	x21,x21,x14
     524:	01568bb3          	add	x23,x13,x21
     528:	00278713          	add	x14,x15,2
     52c:	40175713          	sra	x14,x14,0x1
     530:	00e12623          	sw	x14,12(x2)
     534:	01000993          	li	x19,16
     538:	40e989b3          	sub	x19,x19,x14
     53c:	01378433          	add	x8,x15,x19
     540:	00240d13          	add	x26,x8,2
     544:	002b8793          	add	x15,x23,2
     548:	08fad263          	bge	x21,x15,5cc <message+0x1d4>
     54c:	05b12623          	sw	x27,76(x2)
     550:	f75ff06f          	j	4c4 <message+0xcc>
     554:	05590463          	beq	x18,x21,59c <message+0x1a4>
     558:	052b8263          	beq	x23,x18,59c <message+0x1a4>
     55c:	01340463          	beq	x8,x19,564 <message+0x16c>
     560:	028a1663          	bne	x20,x8,58c <message+0x194>
     564:	07c00513          	li	x10,124
     568:	245030ef          	jal	3fac <putchar>
     56c:	00140413          	add	x8,x8,1
     570:	05640263          	beq	x8,x22,5b4 <message+0x1bc>
     574:	00090593          	mv	x11,x18
     578:	00040513          	mv	x10,x8
     57c:	1e9030ef          	jal	3f64 <cursor>
     580:	fd340ae3          	beq	x8,x19,554 <message+0x15c>
     584:	fc8a08e3          	beq	x20,x8,554 <message+0x15c>
     588:	01590463          	beq	x18,x21,590 <message+0x198>
     58c:	012b9e63          	bne	x23,x18,5a8 <message+0x1b0>
     590:	02d00513          	li	x10,45
     594:	219030ef          	jal	3fac <putchar>
     598:	fd5ff06f          	j	56c <message+0x174>
     59c:	02b00513          	li	x10,43
     5a0:	20d030ef          	jal	3fac <putchar>
     5a4:	fc9ff06f          	j	56c <message+0x174>
     5a8:	02000513          	li	x10,32
     5ac:	201030ef          	jal	3fac <putchar>
     5b0:	fbdff06f          	j	56c <message+0x174>
     5b4:	00190913          	add	x18,x18,1
     5b8:	01b90863          	beq	x18,x27,5c8 <message+0x1d0>
     5bc:	00098413          	mv	x8,x19
     5c0:	fba9cae3          	blt	x19,x26,574 <message+0x17c>
     5c4:	ff1ff06f          	j	5b4 <message+0x1bc>
     5c8:	04c12d83          	lw	x27,76(x2)
     5cc:	00812783          	lw	x15,8(x2)
     5d0:	08f05063          	blez	x15,650 <message+0x258>
     5d4:	001a8913          	add	x18,x21,1
     5d8:	00178993          	add	x19,x15,1
     5dc:	015989b3          	add	x19,x19,x21
     5e0:	01100a13          	li	x20,17
     5e4:	00c12783          	lw	x15,12(x2)
     5e8:	40fa0a33          	sub	x20,x20,x15
     5ec:	01000a93          	li	x21,16
     5f0:	00a00413          	li	x8,10
     5f4:	0240006f          	j	618 <message+0x220>
     5f8:	00090593          	mv	x11,x18
     5fc:	000a0513          	mv	x10,x20
     600:	165030ef          	jal	3f64 <cursor>
     604:	02c0006f          	j	630 <message+0x238>
     608:	00148493          	add	x9,x9,1
     60c:	004c0c13          	add	x24,x24,4
     610:	00190913          	add	x18,x18,1
     614:	03390e63          	beq	x18,x19,650 <message+0x258>
     618:	fe0c80e3          	beqz	x25,5f8 <message+0x200>
     61c:	000c2503          	lw	x10,0(x24)
     620:	40155513          	sra	x10,x10,0x1
     624:	00090593          	mv	x11,x18
     628:	40aa8533          	sub	x10,x21,x10
     62c:	139030ef          	jal	3f64 <cursor>
     630:	0004c503          	lbu	x10,0(x9)
     634:	fc850ae3          	beq	x10,x8,608 <message+0x210>
     638:	fc0508e3          	beqz	x10,608 <message+0x210>
     63c:	171030ef          	jal	3fac <putchar>
     640:	00148493          	add	x9,x9,1
     644:	0004c503          	lbu	x10,0(x9)
     648:	fe8518e3          	bne	x10,x8,638 <message+0x240>
     64c:	fbdff06f          	j	608 <message+0x210>
     650:	12c00513          	li	x10,300
     654:	6cd030ef          	jal	4520 <delay>
     658:	01410593          	add	x11,x2,20
     65c:	01010513          	add	x10,x2,16
     660:	6e1030ef          	jal	4540 <joy_get>
     664:	01012783          	lw	x15,16(x2)
     668:	01412703          	lw	x14,20(x2)
     66c:	00e7e7b3          	or	x15,x15,x14
     670:	1017f793          	and	x15,x15,257
     674:	fe0782e3          	beqz	x15,658 <message+0x260>
     678:	12c00513          	li	x10,300
     67c:	6a5030ef          	jal	4520 <delay>
     680:	07c12083          	lw	x1,124(x2)
     684:	07812403          	lw	x8,120(x2)
     688:	07412483          	lw	x9,116(x2)
     68c:	07012903          	lw	x18,112(x2)
     690:	06c12983          	lw	x19,108(x2)
     694:	06812a03          	lw	x20,104(x2)
     698:	06412a83          	lw	x21,100(x2)
     69c:	06012b03          	lw	x22,96(x2)
     6a0:	05c12b83          	lw	x23,92(x2)
     6a4:	05812c03          	lw	x24,88(x2)
     6a8:	05412c83          	lw	x25,84(x2)
     6ac:	05012d03          	lw	x26,80(x2)
     6b0:	08010113          	add	x2,x2,128
     6b4:	00008067          	ret

000006b8 <save_option>:
     6b8:	da010113          	add	x2,x2,-608
     6bc:	24112e23          	sw	x1,604(x2)
     6c0:	00b00613          	li	x12,11
     6c4:	000115b7          	lui	x11,0x11
     6c8:	c7458593          	add	x11,x11,-908 # 10c74 <__clzsi2+0x88>
     6cc:	00010513          	mv	x10,x2
     6d0:	5c1090ef          	jal	a490 <f_open>
     6d4:	14051463          	bnez	x10,81c <save_option+0x164>
     6d8:	00010593          	mv	x11,x2
     6dc:	00011537          	lui	x10,0x11
     6e0:	e3050513          	add	x10,x10,-464 # 10e30 <__clzsi2+0x244>
     6e4:	48c0c0ef          	jal	cb70 <f_puts>
     6e8:	14054663          	bltz	x10,834 <save_option+0x17c>
     6ec:	0001d7b7          	lui	x15,0x1d
     6f0:	ebc7a783          	lw	x15,-324(x15) # 1cebc <option_osd_key>
     6f4:	00100713          	li	x14,1
     6f8:	14e78863          	beq	x15,x14,848 <save_option+0x190>
     6fc:	00200713          	li	x14,2
     700:	14e78e63          	beq	x15,x14,85c <save_option+0x1a4>
     704:	00010593          	mv	x11,x2
     708:	00011537          	lui	x10,0x11
     70c:	e5450513          	add	x10,x10,-428 # 10e54 <__clzsi2+0x268>
     710:	4600c0ef          	jal	cb70 <f_puts>
     714:	00010593          	mv	x11,x2
     718:	00011537          	lui	x10,0x11
     71c:	e5850513          	add	x10,x10,-424 # 10e58 <__clzsi2+0x26c>
     720:	4500c0ef          	jal	cb70 <f_puts>
     724:	0001d7b7          	lui	x15,0x1d
     728:	eb87c783          	lbu	x15,-328(x15) # 1ceb8 <option_backup_bsram>
     72c:	14078263          	beqz	x15,870 <save_option+0x1b8>
     730:	00010593          	mv	x11,x2
     734:	00011537          	lui	x10,0x11
     738:	e6850513          	add	x10,x10,-408 # 10e68 <__clzsi2+0x27c>
     73c:	4340c0ef          	jal	cb70 <f_puts>
     740:	00010593          	mv	x11,x2
     744:	00011537          	lui	x10,0x11
     748:	e7850513          	add	x10,x10,-392 # 10e78 <__clzsi2+0x28c>
     74c:	4240c0ef          	jal	cb70 <f_puts>
     750:	0001d7b7          	lui	x15,0x1d
     754:	eb77c783          	lbu	x15,-329(x15) # 1ceb7 <option_enhanced_apu>
     758:	12078663          	beqz	x15,884 <save_option+0x1cc>
     75c:	00010593          	mv	x11,x2
     760:	00011537          	lui	x10,0x11
     764:	e6850513          	add	x10,x10,-408 # 10e68 <__clzsi2+0x27c>
     768:	4080c0ef          	jal	cb70 <f_puts>
     76c:	00010593          	mv	x11,x2
     770:	00011537          	lui	x10,0x11
     774:	e8850513          	add	x10,x10,-376 # 10e88 <__clzsi2+0x29c>
     778:	3f80c0ef          	jal	cb70 <f_puts>
     77c:	0001d7b7          	lui	x15,0x1d
     780:	eb67c783          	lbu	x15,-330(x15) # 1ceb6 <option_cheats_enabled>
     784:	10078a63          	beqz	x15,898 <save_option+0x1e0>
     788:	00010593          	mv	x11,x2
     78c:	00011537          	lui	x10,0x11
     790:	e6850513          	add	x10,x10,-408 # 10e68 <__clzsi2+0x27c>
     794:	3dc0c0ef          	jal	cb70 <f_puts>
     798:	00010593          	mv	x11,x2
     79c:	00011537          	lui	x10,0x11
     7a0:	e9850513          	add	x10,x10,-360 # 10e98 <__clzsi2+0x2ac>
     7a4:	3cc0c0ef          	jal	cb70 <f_puts>
     7a8:	0001d7b7          	lui	x15,0x1d
     7ac:	eb57c783          	lbu	x15,-331(x15) # 1ceb5 <option_sys_type_is_pal>
     7b0:	0e078e63          	beqz	x15,8ac <save_option+0x1f4>
     7b4:	00010593          	mv	x11,x2
     7b8:	00011537          	lui	x10,0x11
     7bc:	e6850513          	add	x10,x10,-408 # 10e68 <__clzsi2+0x27c>
     7c0:	3b00c0ef          	jal	cb70 <f_puts>
     7c4:	00010593          	mv	x11,x2
     7c8:	00011537          	lui	x10,0x11
     7cc:	ea050513          	add	x10,x10,-352 # 10ea0 <__clzsi2+0x2b4>
     7d0:	3a00c0ef          	jal	cb70 <f_puts>
     7d4:	0001d7b7          	lui	x15,0x1d
     7d8:	eb07a783          	lw	x15,-336(x15) # 1ceb0 <option_aspect_ratio>
     7dc:	0e078263          	beqz	x15,8c0 <save_option+0x208>
     7e0:	00010593          	mv	x11,x2
     7e4:	00011537          	lui	x10,0x11
     7e8:	e4c50513          	add	x10,x10,-436 # 10e4c <__clzsi2+0x260>
     7ec:	3840c0ef          	jal	cb70 <f_puts>
     7f0:	00010513          	mv	x10,x2
     7f4:	5250a0ef          	jal	b518 <f_close>
     7f8:	00200613          	li	x12,2
     7fc:	00200593          	li	x11,2
     800:	00011537          	lui	x10,0x11
     804:	c7450513          	add	x10,x10,-908 # 10c74 <__clzsi2+0x88>
     808:	0680c0ef          	jal	c870 <f_chmod>
     80c:	00000513          	li	x10,0
     810:	25c12083          	lw	x1,604(x2)
     814:	26010113          	add	x2,x2,608
     818:	00008067          	ret
     81c:	00100593          	li	x11,1
     820:	00011537          	lui	x10,0x11
     824:	e2050513          	add	x10,x10,-480 # 10e20 <__clzsi2+0x234>
     828:	bd1ff0ef          	jal	3f8 <message>
     82c:	00100513          	li	x10,1
     830:	fe1ff06f          	j	810 <save_option+0x158>
     834:	00100593          	li	x11,1
     838:	00011537          	lui	x10,0x11
     83c:	e3c50513          	add	x10,x10,-452 # 10e3c <__clzsi2+0x250>
     840:	bb9ff0ef          	jal	3f8 <message>
     844:	fadff06f          	j	7f0 <save_option+0x138>
     848:	00010593          	mv	x11,x2
     84c:	00011537          	lui	x10,0x11
     850:	e4c50513          	add	x10,x10,-436 # 10e4c <__clzsi2+0x260>
     854:	31c0c0ef          	jal	cb70 <f_puts>
     858:	ebdff06f          	j	714 <save_option+0x5c>
     85c:	00010593          	mv	x11,x2
     860:	00011537          	lui	x10,0x11
     864:	e5050513          	add	x10,x10,-432 # 10e50 <__clzsi2+0x264>
     868:	3080c0ef          	jal	cb70 <f_puts>
     86c:	ea9ff06f          	j	714 <save_option+0x5c>
     870:	00010593          	mv	x11,x2
     874:	00011537          	lui	x10,0x11
     878:	e7050513          	add	x10,x10,-400 # 10e70 <__clzsi2+0x284>
     87c:	2f40c0ef          	jal	cb70 <f_puts>
     880:	ec1ff06f          	j	740 <save_option+0x88>
     884:	00010593          	mv	x11,x2
     888:	00011537          	lui	x10,0x11
     88c:	e7050513          	add	x10,x10,-400 # 10e70 <__clzsi2+0x284>
     890:	2e00c0ef          	jal	cb70 <f_puts>
     894:	ed9ff06f          	j	76c <save_option+0xb4>
     898:	00010593          	mv	x11,x2
     89c:	00011537          	lui	x10,0x11
     8a0:	e7050513          	add	x10,x10,-400 # 10e70 <__clzsi2+0x284>
     8a4:	2cc0c0ef          	jal	cb70 <f_puts>
     8a8:	ef1ff06f          	j	798 <save_option+0xe0>
     8ac:	00010593          	mv	x11,x2
     8b0:	00011537          	lui	x10,0x11
     8b4:	e7050513          	add	x10,x10,-400 # 10e70 <__clzsi2+0x284>
     8b8:	2b80c0ef          	jal	cb70 <f_puts>
     8bc:	f09ff06f          	j	7c4 <save_option+0x10c>
     8c0:	00010593          	mv	x11,x2
     8c4:	00011537          	lui	x10,0x11
     8c8:	7b050513          	add	x10,x10,1968 # 117b0 <__clzsi2+0xbc4>
     8cc:	2a40c0ef          	jal	cb70 <f_puts>
     8d0:	f21ff06f          	j	7f0 <save_option+0x138>

000008d4 <load_dir>:
     8d4:	e7010113          	add	x2,x2,-400
     8d8:	18112623          	sw	x1,396(x2)
     8dc:	18812423          	sw	x8,392(x2)
     8e0:	18912223          	sw	x9,388(x2)
     8e4:	19212023          	sw	x18,384(x2)
     8e8:	17312e23          	sw	x19,380(x2)
     8ec:	17412c23          	sw	x20,376(x2)
     8f0:	17512a23          	sw	x21,372(x2)
     8f4:	00050a93          	mv	x21,x10
     8f8:	00058913          	mv	x18,x11
     8fc:	00060993          	mv	x19,x12
     900:	00068a13          	mv	x20,x13
     904:	00060693          	mv	x13,x12
     908:	00058613          	mv	x12,x11
     90c:	00050593          	mv	x11,x10
     910:	00011537          	lui	x10,0x11
     914:	eb050513          	add	x10,x10,-336 # 10eb0 <__clzsi2+0x2c4>
     918:	3c5030ef          	jal	44dc <uart_printf>
     91c:	0001d7b7          	lui	x15,0x1d
     920:	e807ac23          	sw	x0,-360(x15) # 1ce98 <file_len>
     924:	00b00493          	li	x9,11
     928:	201040ef          	jal	5328 <sd_init>
     92c:	00050413          	mv	x8,x10
     930:	10050463          	beqz	x10,a38 <load_dir+0x164>
     934:	fff48493          	add	x9,x9,-1
     938:	fe0498e3          	bnez	x9,928 <load_dir+0x54>
     93c:	06300413          	li	x8,99
     940:	0c80006f          	j	a08 <load_dir+0x134>
     944:	10000613          	li	x12,256
     948:	000115b7          	lui	x11,0x11
     94c:	eec58593          	add	x11,x11,-276 # 10eec <__clzsi2+0x300>
     950:	0001b537          	lui	x10,0x1b
     954:	41850513          	add	x10,x10,1048 # 1b418 <file_names>
     958:	0c0040ef          	jal	4a18 <strncpy>
     95c:	00100713          	li	x14,1
     960:	1140006f          	j	a74 <load_dir+0x1a0>
     964:	00148493          	add	x9,x9,1
     968:	00010593          	mv	x11,x2
     96c:	12010513          	add	x10,x2,288
     970:	2540b0ef          	jal	bbc4 <f_readdir>
     974:	06051c63          	bnez	x10,9ec <load_dir+0x118>
     978:	01a14783          	lbu	x15,26(x2)
     97c:	06078863          	beqz	x15,9ec <load_dir+0x118>
     980:	00c14783          	lbu	x15,12(x2)
     984:	0067f793          	and	x15,x15,6
     988:	fe0790e3          	bnez	x15,968 <load_dir+0x94>
     98c:	fd24cce3          	blt	x9,x18,964 <load_dir+0x90>
     990:	e98aa503          	lw	x10,-360(x21)
     994:	fd3558e3          	bge	x10,x19,964 <load_dir+0x90>
     998:	00851513          	sll	x10,x10,0x8
     99c:	10000613          	li	x12,256
     9a0:	01a10593          	add	x11,x2,26
     9a4:	0001b7b7          	lui	x15,0x1b
     9a8:	41878793          	add	x15,x15,1048 # 1b418 <file_names>
     9ac:	00a78533          	add	x10,x15,x10
     9b0:	068040ef          	jal	4a18 <strncpy>
     9b4:	0001d637          	lui	x12,0x1d
     9b8:	e9862703          	lw	x14,-360(x12) # 1ce98 <file_len>
     9bc:	00271693          	sll	x13,x14,0x2
     9c0:	000197b7          	lui	x15,0x19
     9c4:	12078793          	add	x15,x15,288 # 19120 <file_dir>
     9c8:	00d787b3          	add	x15,x15,x13
     9cc:	00c14683          	lbu	x13,12(x2)
     9d0:	0106f693          	and	x13,x13,16
     9d4:	00d7a023          	sw	x13,0(x15)
     9d8:	00012683          	lw	x13,0(x2)
     9dc:	04d7ac23          	sw	x13,88(x15)
     9e0:	00170713          	add	x14,x14,1
     9e4:	e8e62c23          	sw	x14,-360(x12)
     9e8:	f7dff06f          	j	964 <load_dir+0x90>
     9ec:	12010513          	add	x10,x2,288
     9f0:	1a40b0ef          	jal	bb94 <f_closedir>
     9f4:	009a2023          	sw	x9,0(x20)
     9f8:	00048593          	mv	x11,x9
     9fc:	00011537          	lui	x10,0x11
     a00:	ef050513          	add	x10,x10,-272 # 10ef0 <__clzsi2+0x304>
     a04:	2d9030ef          	jal	44dc <uart_printf>
     a08:	00040513          	mv	x10,x8
     a0c:	18c12083          	lw	x1,396(x2)
     a10:	18812403          	lw	x8,392(x2)
     a14:	18412483          	lw	x9,388(x2)
     a18:	18012903          	lw	x18,384(x2)
     a1c:	17c12983          	lw	x19,380(x2)
     a20:	17812a03          	lw	x20,376(x2)
     a24:	17412a83          	lw	x21,372(x2)
     a28:	19010113          	add	x2,x2,400
     a2c:	00008067          	ret
     a30:	fff00413          	li	x8,-1
     a34:	fd5ff06f          	j	a08 <load_dir+0x134>
     a38:	000a8593          	mv	x11,x21
     a3c:	12010513          	add	x10,x2,288
     a40:	0400b0ef          	jal	ba80 <f_opendir>
     a44:	fe0516e3          	bnez	x10,a30 <load_dir+0x15c>
     a48:	04091263          	bnez	x18,a8c <load_dir+0x1b8>
     a4c:	05305063          	blez	x19,a8c <load_dir+0x1b8>
     a50:	001ac783          	lbu	x15,1(x21)
     a54:	ee0798e3          	bnez	x15,944 <load_dir+0x70>
     a58:	10000613          	li	x12,256
     a5c:	000115b7          	lui	x11,0x11
     a60:	ed458593          	add	x11,x11,-300 # 10ed4 <__clzsi2+0x2e8>
     a64:	0001b537          	lui	x10,0x1b
     a68:	41850513          	add	x10,x10,1048 # 1b418 <file_names>
     a6c:	7ad030ef          	jal	4a18 <strncpy>
     a70:	00090713          	mv	x14,x18
     a74:	000197b7          	lui	x15,0x19
     a78:	12e7a023          	sw	x14,288(x15) # 19120 <file_dir>
     a7c:	0001d737          	lui	x14,0x1d
     a80:	e9872783          	lw	x15,-360(x14) # 1ce98 <file_len>
     a84:	00178793          	add	x15,x15,1
     a88:	e8f72c23          	sw	x15,-360(x14)
     a8c:	00100493          	li	x9,1
     a90:	0001dab7          	lui	x21,0x1d
     a94:	ed5ff06f          	j	968 <load_dir+0x94>

00000a98 <write_flash>:
     a98:	fe010113          	add	x2,x2,-32
     a9c:	00112e23          	sw	x1,28(x2)
     aa0:	00812c23          	sw	x8,24(x2)
     aa4:	00912a23          	sw	x9,20(x2)
     aa8:	01212823          	sw	x18,16(x2)
     aac:	01312623          	sw	x19,12(x2)
     ab0:	01412423          	sw	x20,8(x2)
     ab4:	00050993          	mv	x19,x10
     ab8:	00058413          	mv	x8,x11
     abc:	020007b7          	lui	x15,0x2000
     ac0:	0547a903          	lw	x18,84(x15) # 2000054 <STACK_TOP+0x1f00054>
     ac4:	01459793          	sll	x15,x11,0x14
     ac8:	06078c63          	beqz	x15,b40 <write_flash+0xa8>
     acc:	020004b7          	lui	x9,0x2000
     ad0:	0544aa03          	lw	x20,84(x9) # 2000054 <STACK_TOP+0x1f00054>
     ad4:	4dc040ef          	jal	4fb0 <spiflash_ready>
     ad8:	0544a783          	lw	x15,84(x9)
     adc:	0001d737          	lui	x14,0x1d
     ae0:	e9472683          	lw	x13,-364(x14) # 1ce94 <t_ready>
     ae4:	00d787b3          	add	x15,x15,x13
     ae8:	414787b3          	sub	x15,x15,x20
     aec:	e8f72a23          	sw	x15,-364(x14)
     af0:	00098593          	mv	x11,x19
     af4:	00040513          	mv	x10,x8
     af8:	3e4040ef          	jal	4edc <spiflash_page_program>
     afc:	020007b7          	lui	x15,0x2000
     b00:	05478793          	add	x15,x15,84 # 2000054 <STACK_TOP+0x1f00054>
     b04:	0007a783          	lw	x15,0(x15)
     b08:	0001d737          	lui	x14,0x1d
     b0c:	e9072683          	lw	x13,-368(x14) # 1ce90 <t_flash>
     b10:	00d787b3          	add	x15,x15,x13
     b14:	412787b3          	sub	x15,x15,x18
     b18:	e8f72823          	sw	x15,-368(x14)
     b1c:	494040ef          	jal	4fb0 <spiflash_ready>
     b20:	01c12083          	lw	x1,28(x2)
     b24:	01812403          	lw	x8,24(x2)
     b28:	01412483          	lw	x9,20(x2)
     b2c:	01012903          	lw	x18,16(x2)
     b30:	00c12983          	lw	x19,12(x2)
     b34:	00812a03          	lw	x20,8(x2)
     b38:	02010113          	add	x2,x2,32
     b3c:	00008067          	ret
     b40:	01512223          	sw	x21,4(x2)
     b44:	020004b7          	lui	x9,0x2000
     b48:	0544aa83          	lw	x21,84(x9) # 2000054 <STACK_TOP+0x1f00054>
     b4c:	464040ef          	jal	4fb0 <spiflash_ready>
     b50:	0544a783          	lw	x15,84(x9)
     b54:	0001da37          	lui	x20,0x1d
     b58:	e94a2703          	lw	x14,-364(x20) # 1ce94 <t_ready>
     b5c:	00e787b3          	add	x15,x15,x14
     b60:	415787b3          	sub	x15,x15,x21
     b64:	e8fa2a23          	sw	x15,-364(x20)
     b68:	00040513          	mv	x10,x8
     b6c:	304040ef          	jal	4e70 <spiflash_sector_erase>
     b70:	0544aa83          	lw	x21,84(x9)
     b74:	43c040ef          	jal	4fb0 <spiflash_ready>
     b78:	0544a783          	lw	x15,84(x9)
     b7c:	e94a2703          	lw	x14,-364(x20)
     b80:	00e787b3          	add	x15,x15,x14
     b84:	415787b3          	sub	x15,x15,x21
     b88:	e8fa2a23          	sw	x15,-364(x20)
     b8c:	00098593          	mv	x11,x19
     b90:	00040513          	mv	x10,x8
     b94:	348040ef          	jal	4edc <spiflash_page_program>
     b98:	00011537          	lui	x10,0x11
     b9c:	d8050513          	add	x10,x10,-640 # 10d80 <__clzsi2+0x194>
     ba0:	ffcff0ef          	jal	39c <status>
     ba4:	00a45593          	srl	x11,x8,0xa
     ba8:	00011537          	lui	x10,0x11
     bac:	f0850513          	add	x10,x10,-248 # 10f08 <__clzsi2+0x31c>
     bb0:	059030ef          	jal	4408 <printf>
     bb4:	00412a83          	lw	x21,4(x2)
     bb8:	f45ff06f          	j	afc <write_flash+0x64>

00000bbc <verify_flash>:
     bbc:	ee010113          	add	x2,x2,-288
     bc0:	10112e23          	sw	x1,284(x2)
     bc4:	10812c23          	sw	x8,280(x2)
     bc8:	11212823          	sw	x18,272(x2)
     bcc:	11312623          	sw	x19,268(x2)
     bd0:	00050913          	mv	x18,x10
     bd4:	00058993          	mv	x19,x11
     bd8:	00060413          	mv	x8,x12
     bdc:	10000613          	li	x12,256
     be0:	00010593          	mv	x11,x2
     be4:	00098513          	mv	x10,x19
     be8:	1bc040ef          	jal	4da4 <spiflash_read>
     bec:	02805a63          	blez	x8,c20 <verify_flash+0x64>
     bf0:	10912a23          	sw	x9,276(x2)
     bf4:	00010493          	mv	x9,x2
     bf8:	00048713          	mv	x14,x9
     bfc:	00000593          	li	x11,0
     c00:	00074603          	lbu	x12,0(x14)
     c04:	00b906b3          	add	x13,x18,x11
     c08:	0006c683          	lbu	x13,0(x13)
     c0c:	04d61263          	bne	x12,x13,c50 <verify_flash+0x94>
     c10:	00158593          	add	x11,x11,1
     c14:	00170713          	add	x14,x14,1
     c18:	feb414e3          	bne	x8,x11,c00 <verify_flash+0x44>
     c1c:	11412483          	lw	x9,276(x2)
     c20:	01499793          	sll	x15,x19,0x14
     c24:	00100513          	li	x10,1
     c28:	0a079063          	bnez	x15,cc8 <verify_flash+0x10c>
     c2c:	00011537          	lui	x10,0x11
     c30:	d8050513          	add	x10,x10,-640 # 10d80 <__clzsi2+0x194>
     c34:	f68ff0ef          	jal	39c <status>
     c38:	00a9d593          	srl	x11,x19,0xa
     c3c:	00011537          	lui	x10,0x11
     c40:	f4450513          	add	x10,x10,-188 # 10f44 <__clzsi2+0x358>
     c44:	7c4030ef          	jal	4408 <printf>
     c48:	00100513          	li	x10,1
     c4c:	07c0006f          	j	cc8 <verify_flash+0x10c>
     c50:	11412423          	sw	x20,264(x2)
     c54:	00b985b3          	add	x11,x19,x11
     c58:	00011537          	lui	x10,0x11
     c5c:	f1850513          	add	x10,x10,-232 # 10f18 <__clzsi2+0x32c>
     c60:	07d030ef          	jal	44dc <uart_printf>
     c64:	00000413          	li	x8,0
     c68:	000129b7          	lui	x19,0x12
     c6c:	10000913          	li	x18,256
     c70:	00011a37          	lui	x20,0x11
     c74:	0240006f          	j	c98 <verify_flash+0xdc>
     c78:	00200593          	li	x11,2
     c7c:	0004c503          	lbu	x10,0(x9)
     c80:	4d8030ef          	jal	4158 <uart_print_hex_digits>
     c84:	82c98513          	add	x10,x19,-2004 # 1182c <__clzsi2+0xc40>
     c88:	04d030ef          	jal	44d4 <uart_print>
     c8c:	00140413          	add	x8,x8,1
     c90:	00148493          	add	x9,x9,1
     c94:	01240e63          	beq	x8,x18,cb0 <verify_flash+0xf4>
     c98:	04805463          	blez	x8,ce0 <verify_flash+0x124>
     c9c:	00f47793          	and	x15,x8,15
     ca0:	fc079ce3          	bnez	x15,c78 <verify_flash+0xbc>
     ca4:	4eca0513          	add	x10,x20,1260 # 114ec <__clzsi2+0x900>
     ca8:	02d030ef          	jal	44d4 <uart_print>
     cac:	fcdff06f          	j	c78 <verify_flash+0xbc>
     cb0:	00011537          	lui	x10,0x11
     cb4:	4ec50513          	add	x10,x10,1260 # 114ec <__clzsi2+0x900>
     cb8:	01d030ef          	jal	44d4 <uart_print>
     cbc:	00000513          	li	x10,0
     cc0:	11412483          	lw	x9,276(x2)
     cc4:	10812a03          	lw	x20,264(x2)
     cc8:	11c12083          	lw	x1,284(x2)
     ccc:	11812403          	lw	x8,280(x2)
     cd0:	11012903          	lw	x18,272(x2)
     cd4:	10c12983          	lw	x19,268(x2)
     cd8:	12010113          	add	x2,x2,288
     cdc:	00008067          	ret
     ce0:	00200593          	li	x11,2
     ce4:	0004c503          	lbu	x10,0(x9)
     ce8:	470030ef          	jal	4158 <uart_print_hex_digits>
     cec:	00012537          	lui	x10,0x12
     cf0:	82c50513          	add	x10,x10,-2004 # 1182c <__clzsi2+0xc40>
     cf4:	7e0030ef          	jal	44d4 <uart_print>
     cf8:	00140413          	add	x8,x8,1
     cfc:	00148493          	add	x9,x9,1
     d00:	f99ff06f          	j	c98 <verify_flash+0xdc>

00000d04 <read_line>:
     d04:	fd010113          	add	x2,x2,-48
     d08:	02112623          	sw	x1,44(x2)
     d0c:	02812423          	sw	x8,40(x2)
     d10:	02912223          	sw	x9,36(x2)
     d14:	03212023          	sw	x18,32(x2)
     d18:	01312e23          	sw	x19,28(x2)
     d1c:	01412c23          	sw	x20,24(x2)
     d20:	01512a23          	sw	x21,20(x2)
     d24:	01612823          	sw	x22,16(x2)
     d28:	01712623          	sw	x23,12(x2)
     d2c:	00050a93          	mv	x21,x10
     d30:	00058993          	mv	x19,x11
     d34:	00060413          	mv	x8,x12
     d38:	00000b93          	li	x23,0
     d3c:	0001db37          	lui	x22,0x1d
     d40:	0001d4b7          	lui	x9,0x1d
     d44:	00019937          	lui	x18,0x19
     d48:	1d090913          	add	x18,x18,464 # 191d0 <load_buf>
     d4c:	00100a13          	li	x20,1
     d50:	0380006f          	j	d88 <read_line+0x84>
     d54:	00050463          	beqz	x10,d5c <read_line+0x58>
     d58:	e8db2223          	sw	x13,-380(x22) # 1ce84 <load_buf_off>
     d5c:	00042783          	lw	x15,0(x8)
     d60:	0afb8663          	beq	x23,x15,e0c <read_line+0x108>
     d64:	e80b2223          	sw	x0,-380(x22)
     d68:	038aa703          	lw	x14,56(x21) # 1d038 <_ebss+0x148>
     d6c:	010aa783          	lw	x15,16(x21)
     d70:	06f70e63          	beq	x14,x15,dec <read_line+0xe8>
     d74:	e8048693          	add	x13,x9,-384 # 1ce80 <load_buf_len>
     d78:	40000613          	li	x12,1024
     d7c:	00090593          	mv	x11,x18
     d80:	000a8513          	mv	x10,x21
     d84:	461090ef          	jal	a9e4 <f_read>
     d88:	e84b2583          	lw	x11,-380(x22)
     d8c:	00058693          	mv	x13,x11
     d90:	000b8793          	mv	x15,x23
     d94:	00000513          	li	x10,0
     d98:	417585b3          	sub	x11,x11,x23
     d9c:	00a00813          	li	x16,10
     da0:	00078b93          	mv	x23,x15
     da4:	00178793          	add	x15,x15,1
     da8:	00042703          	lw	x14,0(x8)
     dac:	fae7d4e3          	bge	x15,x14,d54 <read_line+0x50>
     db0:	e804a703          	lw	x14,-384(x9)
     db4:	02e6f663          	bgeu	x13,x14,de0 <read_line+0xdc>
     db8:	00f58733          	add	x14,x11,x15
     dbc:	00e90733          	add	x14,x18,x14
     dc0:	fff74703          	lbu	x14,-1(x14)
     dc4:	00f98633          	add	x12,x19,x15
     dc8:	fee60fa3          	sb	x14,-1(x12)
     dcc:	00168613          	add	x12,x13,1
     dd0:	000a0513          	mv	x10,x20
     dd4:	03070463          	beq	x14,x16,dfc <read_line+0xf8>
     dd8:	00060693          	mv	x13,x12
     ddc:	fc5ff06f          	j	da0 <read_line+0x9c>
     de0:	f6050ee3          	beqz	x10,d5c <read_line+0x58>
     de4:	e8db2223          	sw	x13,-380(x22)
     de8:	f75ff06f          	j	d5c <read_line+0x58>
     dec:	03caa703          	lw	x14,60(x21)
     df0:	014aa783          	lw	x15,20(x21)
     df4:	f8f710e3          	bne	x14,x15,d74 <read_line+0x70>
     df8:	0140006f          	j	e0c <read_line+0x108>
     dfc:	00168693          	add	x13,x13,1
     e00:	0001d737          	lui	x14,0x1d
     e04:	e8d72223          	sw	x13,-380(x14) # 1ce84 <load_buf_off>
     e08:	00078b93          	mv	x23,x15
     e0c:	017989b3          	add	x19,x19,x23
     e10:	00098023          	sb	x0,0(x19)
     e14:	01742023          	sw	x23,0(x8)
     e18:	02c12083          	lw	x1,44(x2)
     e1c:	02812403          	lw	x8,40(x2)
     e20:	02412483          	lw	x9,36(x2)
     e24:	02012903          	lw	x18,32(x2)
     e28:	01c12983          	lw	x19,28(x2)
     e2c:	01812a03          	lw	x20,24(x2)
     e30:	01412a83          	lw	x21,20(x2)
     e34:	01012b03          	lw	x22,16(x2)
     e38:	00c12b83          	lw	x23,12(x2)
     e3c:	03010113          	add	x2,x2,48
     e40:	00008067          	ret

00000e44 <load_core>:
     e44:	d4010113          	add	x2,x2,-704
     e48:	2a112e23          	sw	x1,700(x2)
     e4c:	2a812c23          	sw	x8,696(x2)
     e50:	2b612023          	sw	x22,672(x2)
     e54:	29712e23          	sw	x23,668(x2)
     e58:	00050413          	mv	x8,x10
     e5c:	00058b93          	mv	x23,x11
     e60:	000115b7          	lui	x11,0x11
     e64:	f5458593          	add	x11,x11,-172 # 10f54 <__clzsi2+0x368>
     e68:	23d030ef          	jal	48a4 <strcasestr>
     e6c:	00050b13          	mv	x22,x10
     e70:	0001d7b7          	lui	x15,0x1d
     e74:	e807aa23          	sw	x0,-364(x15) # 1ce94 <t_ready>
     e78:	0001d7b7          	lui	x15,0x1d
     e7c:	e807a823          	sw	x0,-368(x15) # 1ce90 <t_flash>
     e80:	0001d7b7          	lui	x15,0x1d
     e84:	e807a623          	sw	x0,-372(x15) # 1ce8c <t_file>
     e88:	0001d7b7          	lui	x15,0x1d
     e8c:	e807a423          	sw	x0,-376(x15) # 1ce88 <t_parse>
     e90:	08050063          	beqz	x10,f10 <load_core+0xcc>
     e94:	00040593          	mv	x11,x8
     e98:	00011537          	lui	x10,0x11
     e9c:	f5c50513          	add	x10,x10,-164 # 10f5c <__clzsi2+0x370>
     ea0:	63c030ef          	jal	44dc <uart_printf>
     ea4:	00100613          	li	x12,1
     ea8:	00040593          	mv	x11,x8
     eac:	03010513          	add	x10,x2,48
     eb0:	5e0090ef          	jal	a490 <f_open>
     eb4:	08051263          	bnez	x10,f38 <load_core+0xf4>
     eb8:	2a912a23          	sw	x9,692(x2)
     ebc:	2b212823          	sw	x18,688(x2)
     ec0:	2b312623          	sw	x19,684(x2)
     ec4:	02012623          	sw	x0,44(x2)
     ec8:	04012703          	lw	x14,64(x2)
     ecc:	06812783          	lw	x15,104(x2)
     ed0:	06f70e63          	beq	x14,x15,f4c <load_core+0x108>
     ed4:	2b412423          	sw	x20,680(x2)
     ed8:	2b512223          	sw	x21,676(x2)
     edc:	29812c23          	sw	x24,664(x2)
     ee0:	29912a23          	sw	x25,660(x2)
     ee4:	29a12823          	sw	x26,656(x2)
     ee8:	29b12623          	sw	x27,652(x2)
     eec:	00000493          	li	x9,0
     ef0:	020009b7          	lui	x19,0x2000
     ef4:	05498993          	add	x19,x19,84 # 2000054 <STACK_TOP+0x1f00054>
     ef8:	0001da37          	lui	x20,0x1d
     efc:	000197b7          	lui	x15,0x19
     f00:	12078793          	add	x15,x15,288 # 19120 <file_dir>
     f04:	00f12623          	sw	x15,12(x2)
     f08:	4b078a93          	add	x21,x15,1200
     f0c:	0780006f          	j	f84 <load_core+0x140>
     f10:	00040593          	mv	x11,x8
     f14:	00011537          	lui	x10,0x11
     f18:	f7450513          	add	x10,x10,-140 # 10f74 <__clzsi2+0x388>
     f1c:	5c0030ef          	jal	44dc <uart_printf>
     f20:	f80b82e3          	beqz	x23,ea4 <load_core+0x60>
     f24:	00100593          	li	x11,1
     f28:	00011537          	lui	x10,0x11
     f2c:	f8c50513          	add	x10,x10,-116 # 10f8c <__clzsi2+0x3a0>
     f30:	cc8ff0ef          	jal	3f8 <message>
     f34:	3300006f          	j	1264 <load_core+0x420>
     f38:	00100593          	li	x11,1
     f3c:	00011537          	lui	x10,0x11
     f40:	fb450513          	add	x10,x10,-76 # 10fb4 <__clzsi2+0x3c8>
     f44:	cb4ff0ef          	jal	3f8 <message>
     f48:	31c0006f          	j	1264 <load_core+0x420>
     f4c:	04412703          	lw	x14,68(x2)
     f50:	06c12783          	lw	x15,108(x2)
     f54:	f8f710e3          	bne	x14,x15,ed4 <load_core+0x90>
     f58:	24c0006f          	j	11a4 <load_core+0x360>
     f5c:	02c12603          	lw	x12,44(x2)
     f60:	00048593          	mv	x11,x9
     f64:	000a8513          	mv	x10,x21
     f68:	b31ff0ef          	jal	a98 <write_flash>
     f6c:	02c12783          	lw	x15,44(x2)
     f70:	00f484b3          	add	x9,x9,x15
     f74:	02012623          	sw	x0,44(x2)
     f78:	06812703          	lw	x14,104(x2)
     f7c:	04012783          	lw	x15,64(x2)
     f80:	1ef70c63          	beq	x14,x15,1178 <load_core+0x334>
     f84:	2e0b0c63          	beqz	x22,127c <load_core+0x438>
     f88:	0009a403          	lw	x8,0(x19)
     f8c:	02c10693          	add	x13,x2,44
     f90:	10000613          	li	x12,256
     f94:	000a8593          	mv	x11,x21
     f98:	03010513          	add	x10,x2,48
     f9c:	249090ef          	jal	a9e4 <f_read>
     fa0:	0009a783          	lw	x15,0(x19)
     fa4:	e8ca2703          	lw	x14,-372(x20) # 1ce8c <t_file>
     fa8:	00e787b3          	add	x15,x15,x14
     fac:	408787b3          	sub	x15,x15,x8
     fb0:	e8fa2623          	sw	x15,-372(x20)
     fb4:	fa0b84e3          	beqz	x23,f5c <load_core+0x118>
     fb8:	02c12603          	lw	x12,44(x2)
     fbc:	00048593          	mv	x11,x9
     fc0:	000a8513          	mv	x10,x21
     fc4:	bf9ff0ef          	jal	bbc <verify_flash>
     fc8:	fa0512e3          	bnez	x10,f6c <load_core+0x128>
     fcc:	2b412483          	lw	x9,692(x2)
     fd0:	2b012903          	lw	x18,688(x2)
     fd4:	2ac12983          	lw	x19,684(x2)
     fd8:	2a812a03          	lw	x20,680(x2)
     fdc:	2a412a83          	lw	x21,676(x2)
     fe0:	29812c03          	lw	x24,664(x2)
     fe4:	29412c83          	lw	x25,660(x2)
     fe8:	29012d03          	lw	x26,656(x2)
     fec:	28c12d83          	lw	x27,652(x2)
     ff0:	2740006f          	j	1264 <load_core+0x420>
     ff4:	02c12703          	lw	x14,44(x2)
     ff8:	00170713          	add	x14,x14,1
     ffc:	02e12623          	sw	x14,44(x2)
    1000:	000c2783          	lw	x15,0(x24)
    1004:	e88ca683          	lw	x13,-376(x25)
    1008:	00d787b3          	add	x15,x15,x13
    100c:	41a787b3          	sub	x15,x15,x26
    1010:	e8fca423          	sw	x15,-376(x25)
    1014:	10000793          	li	x15,256
    1018:	0ef70863          	beq	x14,x15,1108 <load_core+0x2c4>
    101c:	00840413          	add	x8,x8,8
    1020:	00412783          	lw	x15,4(x2)
    1024:	f4f40ae3          	beq	x8,x15,f78 <load_core+0x134>
    1028:	000c2d03          	lw	x26,0(x24)
    102c:	00040593          	mv	x11,x8
    1030:	00044783          	lbu	x15,0(x8)
    1034:	fd078793          	add	x15,x15,-48
    1038:	0ff7f793          	zext.b	x15,x15
    103c:	00100713          	li	x14,1
    1040:	f2f76ce3          	bltu	x14,x15,f78 <load_core+0x134>
    1044:	00744903          	lbu	x18,7(x8)
    1048:	fd090913          	add	x18,x18,-48
    104c:	00779793          	sll	x15,x15,0x7
    1050:	00f90933          	add	x18,x18,x15
    1054:	00144783          	lbu	x15,1(x8)
    1058:	fd078793          	add	x15,x15,-48
    105c:	00679793          	sll	x15,x15,0x6
    1060:	00f90933          	add	x18,x18,x15
    1064:	00244783          	lbu	x15,2(x8)
    1068:	fd078793          	add	x15,x15,-48
    106c:	00579793          	sll	x15,x15,0x5
    1070:	00f90933          	add	x18,x18,x15
    1074:	00344783          	lbu	x15,3(x8)
    1078:	fd078793          	add	x15,x15,-48
    107c:	00479793          	sll	x15,x15,0x4
    1080:	00f90933          	add	x18,x18,x15
    1084:	00444783          	lbu	x15,4(x8)
    1088:	fd078793          	add	x15,x15,-48
    108c:	00379793          	sll	x15,x15,0x3
    1090:	00f90933          	add	x18,x18,x15
    1094:	00544783          	lbu	x15,5(x8)
    1098:	fd078793          	add	x15,x15,-48
    109c:	00279793          	sll	x15,x15,0x2
    10a0:	00f90933          	add	x18,x18,x15
    10a4:	00644783          	lbu	x15,6(x8)
    10a8:	fd078793          	add	x15,x15,-48
    10ac:	00179793          	sll	x15,x15,0x1
    10b0:	00f90933          	add	x18,x18,x15
    10b4:	0ff97913          	zext.b	x18,x18
    10b8:	02c12783          	lw	x15,44(x2)
    10bc:	00812703          	lw	x14,8(x2)
    10c0:	00f70733          	add	x14,x14,x15
    10c4:	4b270823          	sb	x18,1200(x14)
    10c8:	00f00713          	li	x14,15
    10cc:	f2f764e3          	bltu	x14,x15,ff4 <load_core+0x1b0>
    10d0:	00900613          	li	x12,9
    10d4:	02010513          	add	x10,x2,32
    10d8:	141030ef          	jal	4a18 <strncpy>
    10dc:	02010593          	add	x11,x2,32
    10e0:	000117b7          	lui	x15,0x11
    10e4:	fcc78513          	add	x10,x15,-52 # 10fcc <__clzsi2+0x3e0>
    10e8:	3f4030ef          	jal	44dc <uart_printf>
    10ec:	00200593          	li	x11,2
    10f0:	00090513          	mv	x10,x18
    10f4:	064030ef          	jal	4158 <uart_print_hex_digits>
    10f8:	000127b7          	lui	x15,0x12
    10fc:	82c78513          	add	x10,x15,-2004 # 1182c <__clzsi2+0xc40>
    1100:	3d4030ef          	jal	44d4 <uart_print>
    1104:	ef1ff06f          	j	ff4 <load_core+0x1b0>
    1108:	00048593          	mv	x11,x9
    110c:	00011537          	lui	x10,0x11
    1110:	fd450513          	add	x10,x10,-44 # 10fd4 <__clzsi2+0x3e8>
    1114:	3c8030ef          	jal	44dc <uart_printf>
    1118:	00019d37          	lui	x26,0x19
    111c:	120d0d13          	add	x26,x26,288 # 19120 <file_dir>
    1120:	4b0d0913          	add	x18,x26,1200
    1124:	4c0d0d13          	add	x26,x26,1216
    1128:	00012db7          	lui	x27,0x12
    112c:	00200593          	li	x11,2
    1130:	00094503          	lbu	x10,0(x18)
    1134:	024030ef          	jal	4158 <uart_print_hex_digits>
    1138:	82cd8513          	add	x10,x27,-2004 # 1182c <__clzsi2+0xc40>
    113c:	398030ef          	jal	44d4 <uart_print>
    1140:	00190913          	add	x18,x18,1
    1144:	ffa914e3          	bne	x18,x26,112c <load_core+0x2e8>
    1148:	00011537          	lui	x10,0x11
    114c:	4ec50513          	add	x10,x10,1260 # 114ec <__clzsi2+0x900>
    1150:	384030ef          	jal	44d4 <uart_print>
    1154:	02c12603          	lw	x12,44(x2)
    1158:	00048593          	mv	x11,x9
    115c:	00019537          	lui	x10,0x19
    1160:	5d050513          	add	x10,x10,1488 # 195d0 <corebuf>
    1164:	935ff0ef          	jal	a98 <write_flash>
    1168:	02c12783          	lw	x15,44(x2)
    116c:	00f484b3          	add	x9,x9,x15
    1170:	02012623          	sw	x0,44(x2)
    1174:	ea9ff06f          	j	101c <load_core+0x1d8>
    1178:	06c12703          	lw	x14,108(x2)
    117c:	04412783          	lw	x15,68(x2)
    1180:	e0f712e3          	bne	x14,x15,f84 <load_core+0x140>
    1184:	02c12603          	lw	x12,44(x2)
    1188:	18061c63          	bnez	x12,1320 <load_core+0x4dc>
    118c:	2a812a03          	lw	x20,680(x2)
    1190:	2a412a83          	lw	x21,676(x2)
    1194:	29812c03          	lw	x24,664(x2)
    1198:	29412c83          	lw	x25,660(x2)
    119c:	29012d03          	lw	x26,656(x2)
    11a0:	28c12d83          	lw	x27,652(x2)
    11a4:	4a5030ef          	jal	4e48 <spiflash_write_disable>
    11a8:	03010513          	add	x10,x2,48
    11ac:	36c0a0ef          	jal	b518 <f_close>
    11b0:	0001d937          	lui	x18,0x1d
    11b4:	0001d4b7          	lui	x9,0x1d
    11b8:	0001d437          	lui	x8,0x1d
    11bc:	0001d9b7          	lui	x19,0x1d
    11c0:	e9492703          	lw	x14,-364(x18) # 1ce94 <t_ready>
    11c4:	e904a683          	lw	x13,-368(x9) # 1ce90 <t_flash>
    11c8:	e8842603          	lw	x12,-376(x8) # 1ce88 <t_parse>
    11cc:	e8c9a583          	lw	x11,-372(x19) # 1ce8c <t_file>
    11d0:	00011537          	lui	x10,0x11
    11d4:	fe450513          	add	x10,x10,-28 # 10fe4 <__clzsi2+0x3f8>
    11d8:	304030ef          	jal	44dc <uart_printf>
    11dc:	000055b7          	lui	x11,0x5
    11e0:	3fc58593          	add	x11,x11,1020 # 53fc <sd_init+0xd4>
    11e4:	e9492503          	lw	x10,-364(x18)
    11e8:	6240c0ef          	jal	d80c <__hidden___udivsi3>
    11ec:	00050913          	mv	x18,x10
    11f0:	000055b7          	lui	x11,0x5
    11f4:	3fc58593          	add	x11,x11,1020 # 53fc <sd_init+0xd4>
    11f8:	e904a503          	lw	x10,-368(x9)
    11fc:	6100c0ef          	jal	d80c <__hidden___udivsi3>
    1200:	00050493          	mv	x9,x10
    1204:	000055b7          	lui	x11,0x5
    1208:	3fc58593          	add	x11,x11,1020 # 53fc <sd_init+0xd4>
    120c:	e8842503          	lw	x10,-376(x8)
    1210:	5fc0c0ef          	jal	d80c <__hidden___udivsi3>
    1214:	00050413          	mv	x8,x10
    1218:	000055b7          	lui	x11,0x5
    121c:	3fc58593          	add	x11,x11,1020 # 53fc <sd_init+0xd4>
    1220:	e8c9a503          	lw	x10,-372(x19)
    1224:	5e80c0ef          	jal	d80c <__hidden___udivsi3>
    1228:	00050593          	mv	x11,x10
    122c:	00090713          	mv	x14,x18
    1230:	00048693          	mv	x13,x9
    1234:	00040613          	mv	x12,x8
    1238:	00011537          	lui	x10,0x11
    123c:	03c50513          	add	x10,x10,60 # 1103c <__clzsi2+0x450>
    1240:	29c030ef          	jal	44dc <uart_printf>
    1244:	100b8463          	beqz	x23,134c <load_core+0x508>
    1248:	00100593          	li	x11,1
    124c:	00011537          	lui	x10,0x11
    1250:	09850513          	add	x10,x10,152 # 11098 <__clzsi2+0x4ac>
    1254:	9a4ff0ef          	jal	3f8 <message>
    1258:	2b412483          	lw	x9,692(x2)
    125c:	2b012903          	lw	x18,688(x2)
    1260:	2ac12983          	lw	x19,684(x2)
    1264:	2bc12083          	lw	x1,700(x2)
    1268:	2b812403          	lw	x8,696(x2)
    126c:	2a012b03          	lw	x22,672(x2)
    1270:	29c12b83          	lw	x23,668(x2)
    1274:	2c010113          	add	x2,x2,704
    1278:	00008067          	ret
    127c:	000087b7          	lui	x15,0x8
    1280:	f0f4d2e3          	bge	x9,x15,1184 <load_core+0x340>
    1284:	0009a403          	lw	x8,0(x19)
    1288:	000017b7          	lui	x15,0x1
    128c:	00f12e23          	sw	x15,28(x2)
    1290:	01c10613          	add	x12,x2,28
    1294:	0001a7b7          	lui	x15,0x1a
    1298:	41878593          	add	x11,x15,1048 # 1a418 <line_buf>
    129c:	03010513          	add	x10,x2,48
    12a0:	a65ff0ef          	jal	d04 <read_line>
    12a4:	0009a783          	lw	x15,0(x19)
    12a8:	e8ca2703          	lw	x14,-372(x20)
    12ac:	00e787b3          	add	x15,x15,x14
    12b0:	408787b3          	sub	x15,x15,x8
    12b4:	e8fa2623          	sw	x15,-372(x20)
    12b8:	00c12783          	lw	x15,12(x2)
    12bc:	0b07c703          	lbu	x14,176(x15)
    12c0:	02f00793          	li	x15,47
    12c4:	00f71a63          	bne	x14,x15,12d8 <load_core+0x494>
    12c8:	000197b7          	lui	x15,0x19
    12cc:	1d17c703          	lbu	x14,465(x15) # 191d1 <load_buf+0x1>
    12d0:	02f00793          	li	x15,47
    12d4:	caf702e3          	beq	x14,x15,f78 <load_core+0x134>
    12d8:	01c12783          	lw	x15,28(x2)
    12dc:	00700713          	li	x14,7
    12e0:	c8f75ce3          	bge	x14,x15,f78 <load_core+0x134>
    12e4:	00019737          	lui	x14,0x19
    12e8:	12070713          	add	x14,x14,288 # 19120 <file_dir>
    12ec:	0b070413          	add	x8,x14,176
    12f0:	ff878793          	add	x15,x15,-8
    12f4:	ff87f793          	and	x15,x15,-8
    12f8:	0b870713          	add	x14,x14,184
    12fc:	00e787b3          	add	x15,x15,x14
    1300:	00f12223          	sw	x15,4(x2)
    1304:	02000c37          	lui	x24,0x2000
    1308:	054c0c13          	add	x24,x24,84 # 2000054 <STACK_TOP+0x1f00054>
    130c:	000197b7          	lui	x15,0x19
    1310:	12078793          	add	x15,x15,288 # 19120 <file_dir>
    1314:	00f12423          	sw	x15,8(x2)
    1318:	0001dcb7          	lui	x25,0x1d
    131c:	d0dff06f          	j	1028 <load_core+0x1e4>
    1320:	00048593          	mv	x11,x9
    1324:	00019537          	lui	x10,0x19
    1328:	5d050513          	add	x10,x10,1488 # 195d0 <corebuf>
    132c:	f6cff0ef          	jal	a98 <write_flash>
    1330:	2a812a03          	lw	x20,680(x2)
    1334:	2a412a83          	lw	x21,676(x2)
    1338:	29812c03          	lw	x24,664(x2)
    133c:	29412c83          	lw	x25,660(x2)
    1340:	29012d03          	lw	x26,656(x2)
    1344:	28c12d83          	lw	x27,652(x2)
    1348:	e5dff06f          	j	11a4 <load_core+0x360>
    134c:	00100593          	li	x11,1
    1350:	00011537          	lui	x10,0x11
    1354:	0a850513          	add	x10,x10,168 # 110a8 <__clzsi2+0x4bc>
    1358:	8a0ff0ef          	jal	3f8 <message>
    135c:	2b412483          	lw	x9,692(x2)
    1360:	2b012903          	lw	x18,688(x2)
    1364:	2ac12983          	lw	x19,684(x2)
    1368:	efdff06f          	j	1264 <load_core+0x420>

0000136c <menu_select_core>:
    136c:	fb010113          	add	x2,x2,-80
    1370:	04112623          	sw	x1,76(x2)
    1374:	03612823          	sw	x22,48(x2)
    1378:	00050b13          	mv	x22,x10
    137c:	00012423          	sw	x0,8(x2)
    1380:	00c10693          	add	x13,x2,12
    1384:	01600613          	li	x12,22
    1388:	00000593          	li	x11,0
    138c:	00011537          	lui	x10,0x11
    1390:	0c050513          	add	x10,x10,192 # 110c0 <__clzsi2+0x4d4>
    1394:	d40ff0ef          	jal	8d4 <load_dir>
    1398:	06051063          	bnez	x10,13f8 <menu_select_core+0x8c>
    139c:	04812423          	sw	x8,72(x2)
    13a0:	04912223          	sw	x9,68(x2)
    13a4:	05212023          	sw	x18,64(x2)
    13a8:	03312e23          	sw	x19,60(x2)
    13ac:	03412c23          	sw	x20,56(x2)
    13b0:	03512a23          	sw	x21,52(x2)
    13b4:	03712623          	sw	x23,44(x2)
    13b8:	03812423          	sw	x24,40(x2)
    13bc:	03912223          	sw	x25,36(x2)
    13c0:	03a12023          	sw	x26,32(x2)
    13c4:	01b12e23          	sw	x27,28(x2)
    13c8:	00050913          	mv	x18,x10
    13cc:	12c00513          	li	x10,300
    13d0:	150030ef          	jal	4520 <delay>
    13d4:	00100493          	li	x9,1
    13d8:	00011c37          	lui	x24,0x11
    13dc:	0001bcb7          	lui	x25,0x1b
    13e0:	0001da37          	lui	x20,0x1d
    13e4:	00048793          	mv	x15,x9
    13e8:	01600b93          	li	x23,22
    13ec:	00c00993          	li	x19,12
    13f0:	02400a93          	li	x21,36
    13f4:	0a40006f          	j	1498 <menu_select_core+0x12c>
    13f8:	054030ef          	jal	444c <clear>
    13fc:	00100593          	li	x11,1
    1400:	00011537          	lui	x10,0x11
    1404:	0c850513          	add	x10,x10,200 # 110c8 <__clzsi2+0x4dc>
    1408:	ff1fe0ef          	jal	3f8 <message>
    140c:	1940006f          	j	15a0 <menu_select_core+0x234>
    1410:	03c030ef          	jal	444c <clear>
    1414:	00200593          	li	x11,2
    1418:	00200513          	li	x10,2
    141c:	349020ef          	jal	3f64 <cursor>
    1420:	ed4c0513          	add	x10,x24,-300 # 10ed4 <__clzsi2+0x2e8>
    1424:	445020ef          	jal	4068 <print>
    1428:	00c12783          	lw	x15,12(x2)
    142c:	04fbd063          	bge	x23,x15,146c <menu_select_core+0x100>
    1430:	01600793          	li	x15,22
    1434:	00f12623          	sw	x15,12(x2)
    1438:	01600d93          	li	x27,22
    143c:	518c8d13          	add	x26,x25,1304 # 1b518 <file_names+0x100>
    1440:	002d8d93          	add	x27,x27,2
    1444:	00300413          	li	x8,3
    1448:	00040593          	mv	x11,x8
    144c:	00200513          	li	x10,2
    1450:	315020ef          	jal	3f64 <cursor>
    1454:	000d0513          	mv	x10,x26
    1458:	411020ef          	jal	4068 <print>
    145c:	00140413          	add	x8,x8,1
    1460:	100d0d13          	add	x26,x26,256
    1464:	ffb412e3          	bne	x8,x27,1448 <menu_select_core+0xdc>
    1468:	0340006f          	j	149c <menu_select_core+0x130>
    146c:	00c12d83          	lw	x27,12(x2)
    1470:	00100793          	li	x15,1
    1474:	fdb7c4e3          	blt	x15,x27,143c <menu_select_core+0xd0>
    1478:	0240006f          	j	149c <menu_select_core+0x130>
    147c:	00810613          	add	x12,x2,8
    1480:	00200513          	li	x10,2
    1484:	0e0030ef          	jal	4564 <joy_choice>
    1488:	00400793          	li	x15,4
    148c:	0ef50463          	beq	x10,x15,1574 <menu_select_core+0x208>
    1490:	02950863          	beq	x10,x9,14c0 <menu_select_core+0x154>
    1494:	00090793          	mv	x15,x18
    1498:	f6079ce3          	bnez	x15,1410 <menu_select_core+0xa4>
    149c:	00c12583          	lw	x11,12(x2)
    14a0:	ebca2783          	lw	x15,-324(x20) # 1cebc <option_osd_key>
    14a4:	00098693          	mv	x13,x19
    14a8:	fc978ae3          	beq	x15,x9,147c <menu_select_core+0x110>
    14ac:	00200713          	li	x14,2
    14b0:	000a8693          	mv	x13,x21
    14b4:	fce794e3          	bne	x15,x14,147c <menu_select_core+0x110>
    14b8:	08400693          	li	x13,132
    14bc:	fc1ff06f          	j	147c <menu_select_core+0x110>
    14c0:	00812503          	lw	x10,8(x2)
    14c4:	0e050663          	beqz	x10,15b0 <menu_select_core+0x244>
    14c8:	00851513          	sll	x10,x10,0x8
    14cc:	000115b7          	lui	x11,0x11
    14d0:	f5458593          	add	x11,x11,-172 # 10f54 <__clzsi2+0x368>
    14d4:	0001b7b7          	lui	x15,0x1b
    14d8:	41878793          	add	x15,x15,1048 # 1b418 <file_names>
    14dc:	00a78533          	add	x10,x15,x10
    14e0:	3c4030ef          	jal	48a4 <strcasestr>
    14e4:	06050e63          	beqz	x10,1560 <menu_select_core+0x1f4>
    14e8:	00019437          	lui	x8,0x19
    14ec:	6d040413          	add	x8,x8,1744 # 196d0 <load_fname>
    14f0:	40000613          	li	x12,1024
    14f4:	000115b7          	lui	x11,0x11
    14f8:	0f058593          	add	x11,x11,240 # 110f0 <__clzsi2+0x504>
    14fc:	00040513          	mv	x10,x8
    1500:	518030ef          	jal	4a18 <strncpy>
    1504:	00812783          	lw	x15,8(x2)
    1508:	00879793          	sll	x15,x15,0x8
    150c:	40000613          	li	x12,1024
    1510:	0001b5b7          	lui	x11,0x1b
    1514:	41858593          	add	x11,x11,1048 # 1b418 <file_names>
    1518:	00f585b3          	add	x11,x11,x15
    151c:	00040513          	mv	x10,x8
    1520:	460030ef          	jal	4980 <strncat>
    1524:	000b0593          	mv	x11,x22
    1528:	00040513          	mv	x10,x8
    152c:	919ff0ef          	jal	e44 <load_core>
    1530:	04812403          	lw	x8,72(x2)
    1534:	04412483          	lw	x9,68(x2)
    1538:	04012903          	lw	x18,64(x2)
    153c:	03c12983          	lw	x19,60(x2)
    1540:	03812a03          	lw	x20,56(x2)
    1544:	03412a83          	lw	x21,52(x2)
    1548:	02c12b83          	lw	x23,44(x2)
    154c:	02812c03          	lw	x24,40(x2)
    1550:	02412c83          	lw	x25,36(x2)
    1554:	02012d03          	lw	x26,32(x2)
    1558:	01c12d83          	lw	x27,28(x2)
    155c:	0440006f          	j	15a0 <menu_select_core+0x234>
    1560:	00100593          	li	x11,1
    1564:	00011537          	lui	x10,0x11
    1568:	0dc50513          	add	x10,x10,220 # 110dc <__clzsi2+0x4f0>
    156c:	e8dfe0ef          	jal	3f8 <message>
    1570:	e75ff06f          	j	13e4 <menu_select_core+0x78>
    1574:	04812403          	lw	x8,72(x2)
    1578:	04412483          	lw	x9,68(x2)
    157c:	04012903          	lw	x18,64(x2)
    1580:	03c12983          	lw	x19,60(x2)
    1584:	03812a03          	lw	x20,56(x2)
    1588:	03412a83          	lw	x21,52(x2)
    158c:	02c12b83          	lw	x23,44(x2)
    1590:	02812c03          	lw	x24,40(x2)
    1594:	02412c83          	lw	x25,36(x2)
    1598:	02012d03          	lw	x26,32(x2)
    159c:	01c12d83          	lw	x27,28(x2)
    15a0:	04c12083          	lw	x1,76(x2)
    15a4:	03012b03          	lw	x22,48(x2)
    15a8:	05010113          	add	x2,x2,80
    15ac:	00008067          	ret
    15b0:	04812403          	lw	x8,72(x2)
    15b4:	04412483          	lw	x9,68(x2)
    15b8:	04012903          	lw	x18,64(x2)
    15bc:	03c12983          	lw	x19,60(x2)
    15c0:	03812a03          	lw	x20,56(x2)
    15c4:	03412a83          	lw	x21,52(x2)
    15c8:	02c12b83          	lw	x23,44(x2)
    15cc:	02812c03          	lw	x24,40(x2)
    15d0:	02412c83          	lw	x25,36(x2)
    15d4:	02012d03          	lw	x26,32(x2)
    15d8:	01c12d83          	lw	x27,28(x2)
    15dc:	fc5ff06f          	j	15a0 <menu_select_core+0x234>

000015e0 <_menu_select_core>:
    15e0:	ee010113          	add	x2,x2,-288
    15e4:	10112e23          	sw	x1,284(x2)
    15e8:	10812c23          	sw	x8,280(x2)
    15ec:	10912a23          	sw	x9,276(x2)
    15f0:	11212823          	sw	x18,272(x2)
    15f4:	11312623          	sw	x19,268(x2)
    15f8:	11412423          	sw	x20,264(x2)
    15fc:	00011537          	lui	x10,0x11
    1600:	0f850513          	add	x10,x10,248 # 110f8 <__clzsi2+0x50c>
    1604:	6d9020ef          	jal	44dc <uart_printf>
    1608:	10000613          	li	x12,256
    160c:	00010593          	mv	x11,x2
    1610:	00000513          	li	x10,0
    1614:	790030ef          	jal	4da4 <spiflash_read>
    1618:	00010493          	mv	x9,x2
    161c:	00000413          	li	x8,0
    1620:	000129b7          	lui	x19,0x12
    1624:	10000913          	li	x18,256
    1628:	00011a37          	lui	x20,0x11
    162c:	0240006f          	j	1650 <_menu_select_core+0x70>
    1630:	00200593          	li	x11,2
    1634:	0004c503          	lbu	x10,0(x9)
    1638:	321020ef          	jal	4158 <uart_print_hex_digits>
    163c:	82c98513          	add	x10,x19,-2004 # 1182c <__clzsi2+0xc40>
    1640:	695020ef          	jal	44d4 <uart_print>
    1644:	00140413          	add	x8,x8,1
    1648:	00148493          	add	x9,x9,1
    164c:	01240e63          	beq	x8,x18,1668 <_menu_select_core+0x88>
    1650:	04805e63          	blez	x8,16ac <_menu_select_core+0xcc>
    1654:	00f47793          	and	x15,x8,15
    1658:	fc079ce3          	bnez	x15,1630 <_menu_select_core+0x50>
    165c:	4eca0513          	add	x10,x20,1260 # 114ec <__clzsi2+0x900>
    1660:	67d020ef          	jal	44dc <uart_printf>
    1664:	fcdff06f          	j	1630 <_menu_select_core+0x50>
    1668:	00011537          	lui	x10,0x11
    166c:	4ec50513          	add	x10,x10,1260 # 114ec <__clzsi2+0x900>
    1670:	66d020ef          	jal	44dc <uart_printf>
    1674:	00011537          	lui	x10,0x11
    1678:	10c50513          	add	x10,x10,268 # 1110c <__clzsi2+0x520>
    167c:	d21fe0ef          	jal	39c <status>
    1680:	00011537          	lui	x10,0x11
    1684:	12050513          	add	x10,x10,288 # 11120 <__clzsi2+0x534>
    1688:	655020ef          	jal	44dc <uart_printf>
    168c:	11c12083          	lw	x1,284(x2)
    1690:	11812403          	lw	x8,280(x2)
    1694:	11412483          	lw	x9,276(x2)
    1698:	11012903          	lw	x18,272(x2)
    169c:	10c12983          	lw	x19,268(x2)
    16a0:	10812a03          	lw	x20,264(x2)
    16a4:	12010113          	add	x2,x2,288
    16a8:	00008067          	ret
    16ac:	00200593          	li	x11,2
    16b0:	0004c503          	lbu	x10,0(x9)
    16b4:	2a5020ef          	jal	4158 <uart_print_hex_digits>
    16b8:	00012537          	lui	x10,0x12
    16bc:	82c50513          	add	x10,x10,-2004 # 1182c <__clzsi2+0xc40>
    16c0:	615020ef          	jal	44d4 <uart_print>
    16c4:	00140413          	add	x8,x8,1
    16c8:	00148493          	add	x9,x9,1
    16cc:	f85ff06f          	j	1650 <_menu_select_core+0x70>

000016d0 <load_cheats>:
    16d0:	d7010113          	add	x2,x2,-656
    16d4:	28112623          	sw	x1,652(x2)
    16d8:	28812423          	sw	x8,648(x2)
    16dc:	28912223          	sw	x9,644(x2)
    16e0:	27612823          	sw	x22,624(x2)
    16e4:	00050413          	mv	x8,x10
    16e8:	000194b7          	lui	x9,0x19
    16ec:	6d048493          	add	x9,x9,1744 # 196d0 <load_fname>
    16f0:	40000613          	li	x12,1024
    16f4:	0001a5b7          	lui	x11,0x1a
    16f8:	ad058593          	add	x11,x11,-1328 # 19ad0 <pwd>
    16fc:	00048513          	mv	x10,x9
    1700:	318030ef          	jal	4a18 <strncpy>
    1704:	40000613          	li	x12,1024
    1708:	000115b7          	lui	x11,0x11
    170c:	13458593          	add	x11,x11,308 # 11134 <__clzsi2+0x548>
    1710:	00048513          	mv	x10,x9
    1714:	26c030ef          	jal	4980 <strncat>
    1718:	00841413          	sll	x8,x8,0x8
    171c:	0001b7b7          	lui	x15,0x1b
    1720:	41878793          	add	x15,x15,1048 # 1b418 <file_names>
    1724:	00f40433          	add	x8,x8,x15
    1728:	40000613          	li	x12,1024
    172c:	00040593          	mv	x11,x8
    1730:	00048513          	mv	x10,x9
    1734:	24c030ef          	jal	4980 <strncat>
    1738:	00011537          	lui	x10,0x11
    173c:	13850513          	add	x10,x10,312 # 11138 <__clzsi2+0x54c>
    1740:	59d020ef          	jal	44dc <uart_printf>
    1744:	000115b7          	lui	x11,0x11
    1748:	14c58593          	add	x11,x11,332 # 1114c <__clzsi2+0x560>
    174c:	00040513          	mv	x10,x8
    1750:	154030ef          	jal	48a4 <strcasestr>
    1754:	12050463          	beqz	x10,187c <load_cheats+0x1ac>
    1758:	3d1030ef          	jal	5328 <sd_init>
    175c:	06300b13          	li	x22,99
    1760:	16051e63          	bnez	x10,18dc <load_cheats+0x20c>
    1764:	00100613          	li	x12,1
    1768:	000195b7          	lui	x11,0x19
    176c:	6d058593          	add	x11,x11,1744 # 196d0 <load_fname>
    1770:	02010513          	add	x10,x2,32
    1774:	51d080ef          	jal	a490 <f_open>
    1778:	00050b13          	mv	x22,x10
    177c:	00100493          	li	x9,1
    1780:	10051663          	bnez	x10,188c <load_cheats+0x1bc>
    1784:	29212023          	sw	x18,640(x2)
    1788:	27312e23          	sw	x19,636(x2)
    178c:	27412c23          	sw	x20,632(x2)
    1790:	27512a23          	sw	x21,628(x2)
    1794:	02000437          	lui	x8,0x2000
    1798:	16040413          	add	x8,x8,352 # 2000160 <STACK_TOP+0x1f00160>
    179c:	02000ab7          	lui	x21,0x2000
    17a0:	0e0a8a93          	add	x21,x21,224 # 20000e0 <STACK_TOP+0x1f000e0>
    17a4:	02000a37          	lui	x20,0x2000
    17a8:	100a0a13          	add	x20,x20,256 # 2000100 <STACK_TOP+0x1f00100>
    17ac:	020009b7          	lui	x19,0x2000
    17b0:	12098993          	add	x19,x19,288 # 2000120 <STACK_TOP+0x1f00120>
    17b4:	02000937          	lui	x18,0x2000
    17b8:	14090913          	add	x18,x18,320 # 2000140 <STACK_TOP+0x1f00140>
    17bc:	00c10693          	add	x13,x2,12
    17c0:	01000613          	li	x12,16
    17c4:	01010593          	add	x11,x2,16
    17c8:	02010513          	add	x10,x2,32
    17cc:	218090ef          	jal	a9e4 <f_read>
    17d0:	00042023          	sw	x0,0(x8)
    17d4:	00910923          	sb	x9,18(x2)
    17d8:	01314783          	lbu	x15,19(x2)
    17dc:	00849713          	sll	x14,x9,0x8
    17e0:	00e7e7b3          	or	x15,x15,x14
    17e4:	00faa023          	sw	x15,0(x21)
    17e8:	01614783          	lbu	x15,22(x2)
    17ec:	00879793          	sll	x15,x15,0x8
    17f0:	01714703          	lbu	x14,23(x2)
    17f4:	00e7e7b3          	or	x15,x15,x14
    17f8:	00fa2023          	sw	x15,0(x20)
    17fc:	01a14783          	lbu	x15,26(x2)
    1800:	00879793          	sll	x15,x15,0x8
    1804:	01b14703          	lbu	x14,27(x2)
    1808:	00e7e7b3          	or	x15,x15,x14
    180c:	00f9a023          	sw	x15,0(x19)
    1810:	01e14783          	lbu	x15,30(x2)
    1814:	00879793          	sll	x15,x15,0x8
    1818:	01f14703          	lbu	x14,31(x2)
    181c:	00e7e7b3          	or	x15,x15,x14
    1820:	00f92023          	sw	x15,0(x18)
    1824:	00100793          	li	x15,1
    1828:	00f42023          	sw	x15,0(x8)
    182c:	00100713          	li	x14,1
    1830:	00042783          	lw	x15,0(x8)
    1834:	fee78ee3          	beq	x15,x14,1830 <load_cheats+0x160>
    1838:	00148493          	add	x9,x9,1
    183c:	01100793          	li	x15,17
    1840:	f6f49ee3          	bne	x9,x15,17bc <load_cheats+0xec>
    1844:	020007b7          	lui	x15,0x2000
    1848:	0a078793          	add	x15,x15,160 # 20000a0 <STACK_TOP+0x1f000a0>
    184c:	0007a783          	lw	x15,0(x15)
    1850:	04078a63          	beqz	x15,18a4 <load_cheats+0x1d4>
    1854:	0001d7b7          	lui	x15,0x1d
    1858:	eb67c783          	lbu	x15,-330(x15) # 1ceb6 <option_cheats_enabled>
    185c:	04078463          	beqz	x15,18a4 <load_cheats+0x1d4>
    1860:	020007b7          	lui	x15,0x2000
    1864:	00100713          	li	x14,1
    1868:	0ce7a023          	sw	x14,192(x15) # 20000c0 <STACK_TOP+0x1f000c0>
    186c:	00011537          	lui	x10,0x11
    1870:	17c50513          	add	x10,x10,380 # 1117c <__clzsi2+0x590>
    1874:	b29fe0ef          	jal	39c <status>
    1878:	0440006f          	j	18bc <load_cheats+0x1ec>
    187c:	00011537          	lui	x10,0x11
    1880:	15450513          	add	x10,x10,340 # 11154 <__clzsi2+0x568>
    1884:	b19fe0ef          	jal	39c <status>
    1888:	0540006f          	j	18dc <load_cheats+0x20c>
    188c:	00011537          	lui	x10,0x11
    1890:	16850513          	add	x10,x10,360 # 11168 <__clzsi2+0x57c>
    1894:	b09fe0ef          	jal	39c <status>
    1898:	020007b7          	lui	x15,0x2000
    189c:	0c07a023          	sw	x0,192(x15) # 20000c0 <STACK_TOP+0x1f000c0>
    18a0:	03c0006f          	j	18dc <load_cheats+0x20c>
    18a4:	020007b7          	lui	x15,0x2000
    18a8:	00100713          	li	x14,1
    18ac:	0ce7a023          	sw	x14,192(x15) # 20000c0 <STACK_TOP+0x1f000c0>
    18b0:	00011537          	lui	x10,0x11
    18b4:	18c50513          	add	x10,x10,396 # 1118c <__clzsi2+0x5a0>
    18b8:	ae5fe0ef          	jal	39c <status>
    18bc:	020007b7          	lui	x15,0x2000
    18c0:	1607a023          	sw	x0,352(x15) # 2000160 <STACK_TOP+0x1f00160>
    18c4:	02010513          	add	x10,x2,32
    18c8:	451090ef          	jal	b518 <f_close>
    18cc:	28012903          	lw	x18,640(x2)
    18d0:	27c12983          	lw	x19,636(x2)
    18d4:	27812a03          	lw	x20,632(x2)
    18d8:	27412a83          	lw	x21,628(x2)
    18dc:	000b0513          	mv	x10,x22
    18e0:	28c12083          	lw	x1,652(x2)
    18e4:	28812403          	lw	x8,648(x2)
    18e8:	28412483          	lw	x9,644(x2)
    18ec:	27012b03          	lw	x22,624(x2)
    18f0:	29010113          	add	x2,x2,656
    18f4:	00008067          	ret

000018f8 <menu_load_cheats>:
    18f8:	fa010113          	add	x2,x2,-96
    18fc:	04112e23          	sw	x1,92(x2)
    1900:	04812c23          	sw	x8,88(x2)
    1904:	04912a23          	sw	x9,84(x2)
    1908:	05212823          	sw	x18,80(x2)
    190c:	05312623          	sw	x19,76(x2)
    1910:	05412423          	sw	x20,72(x2)
    1914:	05512223          	sw	x21,68(x2)
    1918:	05612023          	sw	x22,64(x2)
    191c:	03712e23          	sw	x23,60(x2)
    1920:	03812c23          	sw	x24,56(x2)
    1924:	03912a23          	sw	x25,52(x2)
    1928:	03a12823          	sw	x26,48(x2)
    192c:	03b12623          	sw	x27,44(x2)
    1930:	00050d13          	mv	x26,x10
    1934:	00012c23          	sw	x0,24(x2)
    1938:	0001a7b7          	lui	x15,0x1a
    193c:	12078793          	add	x15,x15,288 # 1a120 <snes_backup_name+0x44>
    1940:	02f00713          	li	x14,47
    1944:	9ae78823          	sb	x14,-1616(x15)
    1948:	9a0788a3          	sb	x0,-1615(x15)
    194c:	00000a93          	li	x21,0
    1950:	0001a7b7          	lui	x15,0x1a
    1954:	ad078793          	add	x15,x15,-1328 # 19ad0 <pwd>
    1958:	00f12223          	sw	x15,4(x2)
    195c:	00011cb7          	lui	x25,0x11
    1960:	000197b7          	lui	x15,0x19
    1964:	12078d93          	add	x27,x15,288 # 19120 <file_dir>
    1968:	2e5020ef          	jal	444c <clear>
    196c:	001a9413          	sll	x8,x21,0x1
    1970:	01540433          	add	x8,x8,x21
    1974:	00241413          	sll	x8,x8,0x2
    1978:	41540433          	sub	x8,x8,x21
    197c:	00141413          	sll	x8,x8,0x1
    1980:	01c10693          	add	x13,x2,28
    1984:	01600613          	li	x12,22
    1988:	00040593          	mv	x11,x8
    198c:	00412503          	lw	x10,4(x2)
    1990:	f45fe0ef          	jal	8d4 <load_dir>
    1994:	00a12623          	sw	x10,12(x2)
    1998:	24051c63          	bnez	x10,1bf0 <menu_load_cheats+0x2f8>
    199c:	01c12b03          	lw	x22,28(x2)
    19a0:	01600593          	li	x11,22
    19a4:	015b0513          	add	x10,x22,21
    19a8:	65d0b0ef          	jal	d804 <__divsi3>
    19ac:	00050c13          	mv	x24,x10
    19b0:	000117b7          	lui	x15,0x11
    19b4:	19c78513          	add	x10,x15,412 # 1119c <__clzsi2+0x5b0>
    19b8:	9e5fe0ef          	jal	39c <status>
    19bc:	001a8793          	add	x15,x21,1
    19c0:	00f12423          	sw	x15,8(x2)
    19c4:	000c0613          	mv	x12,x24
    19c8:	00078593          	mv	x11,x15
    19cc:	000117b7          	lui	x15,0x11
    19d0:	1a478513          	add	x10,x15,420 # 111a4 <__clzsi2+0x5b8>
    19d4:	235020ef          	jal	4408 <printf>
    19d8:	0001d7b7          	lui	x15,0x1d
    19dc:	e987a783          	lw	x15,-360(x15) # 1ce98 <file_len>
    19e0:	01812703          	lw	x14,24(x2)
    19e4:	00f74663          	blt	x14,x15,19f0 <menu_load_cheats+0xf8>
    19e8:	fff78793          	add	x15,x15,-1
    19ec:	00f12c23          	sw	x15,24(x2)
    19f0:	000197b7          	lui	x15,0x19
    19f4:	12078493          	add	x9,x15,288 # 19120 <file_dir>
    19f8:	0001b937          	lui	x18,0x1b
    19fc:	41890913          	add	x18,x18,1048 # 1b418 <file_names>
    1a00:	05848b93          	add	x23,x9,88
    1a04:	001a9993          	sll	x19,x21,0x1
    1a08:	015989b3          	add	x19,x19,x21
    1a0c:	00299993          	sll	x19,x19,0x2
    1a10:	413a89b3          	sub	x19,x21,x19
    1a14:	00199993          	sll	x19,x19,0x1
    1a18:	00298993          	add	x19,x19,2
    1a1c:	01c0006f          	j	1a38 <menu_load_cheats+0x140>
    1a20:	00812a83          	lw	x21,8(x2)
    1a24:	f45ff06f          	j	1968 <menu_load_cheats+0x70>
    1a28:	00140413          	add	x8,x8,1
    1a2c:	00448493          	add	x9,x9,4
    1a30:	10090913          	add	x18,x18,256
    1a34:	03748a63          	beq	x9,x23,1a68 <menu_load_cheats+0x170>
    1a38:	008985b3          	add	x11,x19,x8
    1a3c:	00200513          	li	x10,2
    1a40:	524020ef          	jal	3f64 <cursor>
    1a44:	ff6452e3          	bge	x8,x22,1a28 <menu_load_cheats+0x130>
    1a48:	00090513          	mv	x10,x18
    1a4c:	61c020ef          	jal	4068 <print>
    1a50:	fc040ce3          	beqz	x8,1a28 <menu_load_cheats+0x130>
    1a54:	0004a783          	lw	x15,0(x9)
    1a58:	fc0788e3          	beqz	x15,1a28 <menu_load_cheats+0x130>
    1a5c:	134c8513          	add	x10,x25,308 # 11134 <__clzsi2+0x548>
    1a60:	608020ef          	jal	4068 <print>
    1a64:	fc5ff06f          	j	1a28 <menu_load_cheats+0x130>
    1a68:	12c00513          	li	x10,300
    1a6c:	2b5020ef          	jal	4520 <delay>
    1a70:	0001d937          	lui	x18,0x1d
    1a74:	0001d4b7          	lui	x9,0x1d
    1a78:	11c0006f          	j	1b94 <menu_load_cheats+0x29c>
    1a7c:	08400693          	li	x13,132
    1a80:	1340006f          	j	1bb4 <menu_load_cheats+0x2bc>
    1a84:	134c8593          	add	x11,x25,308
    1a88:	00412503          	lw	x10,4(x2)
    1a8c:	549020ef          	jal	47d4 <strcmp>
    1a90:	01812783          	lw	x15,24(x2)
    1a94:	0157e733          	or	x14,x15,x21
    1a98:	00a76733          	or	x14,x14,x10
    1a9c:	16070e63          	beqz	x14,1c18 <menu_load_cheats+0x320>
    1aa0:	00279713          	sll	x14,x15,0x2
    1aa4:	00ed8733          	add	x14,x27,x14
    1aa8:	00072703          	lw	x14,0(x14)
    1aac:	02071c63          	bnez	x14,1ae4 <menu_load_cheats+0x1ec>
    1ab0:	00fd2023          	sw	x15,0(x26)
    1ab4:	0001d737          	lui	x14,0x1d
    1ab8:	ecc72683          	lw	x13,-308(x14) # 1cecc <CORE_ID>
    1abc:	00100713          	li	x14,1
    1ac0:	0ce68063          	beq	x13,x14,1b80 <menu_load_cheats+0x288>
    1ac4:	00078513          	mv	x10,x15
    1ac8:	c09ff0ef          	jal	16d0 <load_cheats>
    1acc:	0c050463          	beqz	x10,1b94 <menu_load_cheats+0x29c>
    1ad0:	00100593          	li	x11,1
    1ad4:	00011537          	lui	x10,0x11
    1ad8:	1ac50513          	add	x10,x10,428 # 111ac <__clzsi2+0x5c0>
    1adc:	91dfe0ef          	jal	3f8 <message>
    1ae0:	e89ff06f          	j	1968 <menu_load_cheats+0x70>
    1ae4:	0001b737          	lui	x14,0x1b
    1ae8:	00879693          	sll	x13,x15,0x8
    1aec:	41870713          	add	x14,x14,1048 # 1b418 <file_names>
    1af0:	00d70733          	add	x14,x14,x13
    1af4:	00074683          	lbu	x13,0(x14)
    1af8:	02e00713          	li	x14,46
    1afc:	02e69063          	bne	x13,x14,1b1c <menu_load_cheats+0x224>
    1b00:	0001b737          	lui	x14,0x1b
    1b04:	00879793          	sll	x15,x15,0x8
    1b08:	41870713          	add	x14,x14,1048 # 1b418 <file_names>
    1b0c:	00f707b3          	add	x15,x14,x15
    1b10:	0017c703          	lbu	x14,1(x15)
    1b14:	02e00793          	li	x15,46
    1b18:	04f70663          	beq	x14,x15,1b64 <menu_load_cheats+0x26c>
    1b1c:	0001a437          	lui	x8,0x1a
    1b20:	ad040413          	add	x8,x8,-1328 # 19ad0 <pwd>
    1b24:	40000613          	li	x12,1024
    1b28:	000115b7          	lui	x11,0x11
    1b2c:	13458593          	add	x11,x11,308 # 11134 <__clzsi2+0x548>
    1b30:	00040513          	mv	x10,x8
    1b34:	64d020ef          	jal	4980 <strncat>
    1b38:	01812783          	lw	x15,24(x2)
    1b3c:	00879793          	sll	x15,x15,0x8
    1b40:	40000613          	li	x12,1024
    1b44:	0001b5b7          	lui	x11,0x1b
    1b48:	41858593          	add	x11,x11,1048 # 1b418 <file_names>
    1b4c:	00f585b3          	add	x11,x11,x15
    1b50:	00040513          	mv	x10,x8
    1b54:	62d020ef          	jal	4980 <strncat>
    1b58:	00012c23          	sw	x0,24(x2)
    1b5c:	00c12a83          	lw	x21,12(x2)
    1b60:	e09ff06f          	j	1968 <menu_load_cheats+0x70>
    1b64:	02f00593          	li	x11,47
    1b68:	0001a537          	lui	x10,0x1a
    1b6c:	ad050513          	add	x10,x10,-1328 # 19ad0 <pwd>
    1b70:	6f5020ef          	jal	4a64 <strrchr>
    1b74:	fe0502e3          	beqz	x10,1b58 <menu_load_cheats+0x260>
    1b78:	00050023          	sb	x0,0(x10)
    1b7c:	fddff06f          	j	1b58 <menu_load_cheats+0x260>
    1b80:	00078513          	mv	x10,x15
    1b84:	b4dff0ef          	jal	16d0 <load_cheats>
    1b88:	f45ff06f          	j	1acc <menu_load_cheats+0x1d4>
    1b8c:	fffc0793          	add	x15,x24,-1
    1b90:	e8fac8e3          	blt	x21,x15,1a20 <menu_load_cheats+0x128>
    1b94:	e9892583          	lw	x11,-360(x18) # 1ce98 <file_len>
    1b98:	ebc4a783          	lw	x15,-324(x9) # 1cebc <option_osd_key>
    1b9c:	00100713          	li	x14,1
    1ba0:	00c00693          	li	x13,12
    1ba4:	00e78863          	beq	x15,x14,1bb4 <menu_load_cheats+0x2bc>
    1ba8:	00200713          	li	x14,2
    1bac:	02400693          	li	x13,36
    1bb0:	ece786e3          	beq	x15,x14,1a7c <menu_load_cheats+0x184>
    1bb4:	01810613          	add	x12,x2,24
    1bb8:	00200513          	li	x10,2
    1bbc:	1a9020ef          	jal	4564 <joy_choice>
    1bc0:	00050413          	mv	x8,x10
    1bc4:	00400793          	li	x15,4
    1bc8:	04f50663          	beq	x10,x15,1c14 <menu_load_cheats+0x31c>
    1bcc:	00100793          	li	x15,1
    1bd0:	eaf50ae3          	beq	x10,x15,1a84 <menu_load_cheats+0x18c>
    1bd4:	00200793          	li	x15,2
    1bd8:	faf50ae3          	beq	x10,x15,1b8c <menu_load_cheats+0x294>
    1bdc:	00300793          	li	x15,3
    1be0:	faf51ae3          	bne	x10,x15,1b94 <menu_load_cheats+0x29c>
    1be4:	fb5058e3          	blez	x21,1b94 <menu_load_cheats+0x29c>
    1be8:	fffa8a93          	add	x21,x21,-1
    1bec:	d7dff06f          	j	1968 <menu_load_cheats+0x70>
    1bf0:	00011537          	lui	x10,0x11
    1bf4:	1c450513          	add	x10,x10,452 # 111c4 <__clzsi2+0x5d8>
    1bf8:	fa4fe0ef          	jal	39c <status>
    1bfc:	00c12583          	lw	x11,12(x2)
    1c00:	00011537          	lui	x10,0x11
    1c04:	1dc50513          	add	x10,x10,476 # 111dc <__clzsi2+0x5f0>
    1c08:	001020ef          	jal	4408 <printf>
    1c0c:	fff00413          	li	x8,-1
    1c10:	0080006f          	j	1c18 <menu_load_cheats+0x320>
    1c14:	00100413          	li	x8,1
    1c18:	00040513          	mv	x10,x8
    1c1c:	05c12083          	lw	x1,92(x2)
    1c20:	05812403          	lw	x8,88(x2)
    1c24:	05412483          	lw	x9,84(x2)
    1c28:	05012903          	lw	x18,80(x2)
    1c2c:	04c12983          	lw	x19,76(x2)
    1c30:	04812a03          	lw	x20,72(x2)
    1c34:	04412a83          	lw	x21,68(x2)
    1c38:	04012b03          	lw	x22,64(x2)
    1c3c:	03c12b83          	lw	x23,60(x2)
    1c40:	03812c03          	lw	x24,56(x2)
    1c44:	03412c83          	lw	x25,52(x2)
    1c48:	03012d03          	lw	x26,48(x2)
    1c4c:	02c12d83          	lw	x27,44(x2)
    1c50:	06010113          	add	x2,x2,96
    1c54:	00008067          	ret

00001c58 <menu_cheats_options>:
    1c58:	fc010113          	add	x2,x2,-64
    1c5c:	02112e23          	sw	x1,60(x2)
    1c60:	02812c23          	sw	x8,56(x2)
    1c64:	02912a23          	sw	x9,52(x2)
    1c68:	03212823          	sw	x18,48(x2)
    1c6c:	03312623          	sw	x19,44(x2)
    1c70:	03412423          	sw	x20,40(x2)
    1c74:	03512223          	sw	x21,36(x2)
    1c78:	03612023          	sw	x22,32(x2)
    1c7c:	01712e23          	sw	x23,28(x2)
    1c80:	01812c23          	sw	x24,24(x2)
    1c84:	01912a23          	sw	x25,20(x2)
    1c88:	01a12823          	sw	x26,16(x2)
    1c8c:	00012623          	sw	x0,12(x2)
    1c90:	00011d37          	lui	x26,0x11
    1c94:	00011cb7          	lui	x25,0x11
    1c98:	00011c37          	lui	x24,0x11
    1c9c:	0001dbb7          	lui	x23,0x1d
    1ca0:	00011b37          	lui	x22,0x11
    1ca4:	0001d937          	lui	x18,0x1d
    1ca8:	02400a13          	li	x20,36
    1cac:	7a0020ef          	jal	444c <clear>
    1cb0:	00a00593          	li	x11,10
    1cb4:	00800513          	li	x10,8
    1cb8:	2ac020ef          	jal	3f64 <cursor>
    1cbc:	1e0d0513          	add	x10,x26,480 # 111e0 <__clzsi2+0x5f4>
    1cc0:	3a8020ef          	jal	4068 <print>
    1cc4:	00c00593          	li	x11,12
    1cc8:	00200513          	li	x10,2
    1ccc:	298020ef          	jal	3f64 <cursor>
    1cd0:	ed4c8513          	add	x10,x25,-300 # 10ed4 <__clzsi2+0x2e8>
    1cd4:	394020ef          	jal	4068 <print>
    1cd8:	00e00593          	li	x11,14
    1cdc:	00200513          	li	x10,2
    1ce0:	284020ef          	jal	3f64 <cursor>
    1ce4:	1f0c0513          	add	x10,x24,496 # 111f0 <__clzsi2+0x604>
    1ce8:	380020ef          	jal	4068 <print>
    1cec:	00e00593          	li	x11,14
    1cf0:	01000513          	li	x10,16
    1cf4:	270020ef          	jal	3f64 <cursor>
    1cf8:	eb6bc783          	lbu	x15,-330(x23) # 1ceb6 <option_cheats_enabled>
    1cfc:	04078063          	beqz	x15,1d3c <menu_cheats_options+0xe4>
    1d00:	00011537          	lui	x10,0x11
    1d04:	1f850513          	add	x10,x10,504 # 111f8 <__clzsi2+0x60c>
    1d08:	360020ef          	jal	4068 <print>
    1d0c:	00f00593          	li	x11,15
    1d10:	00200513          	li	x10,2
    1d14:	250020ef          	jal	3f64 <cursor>
    1d18:	200b0513          	add	x10,x22,512 # 11200 <__clzsi2+0x614>
    1d1c:	34c020ef          	jal	4068 <print>
    1d20:	12c00513          	li	x10,300
    1d24:	7fc020ef          	jal	4520 <delay>
    1d28:	00100413          	li	x8,1
    1d2c:	00c00493          	li	x9,12
    1d30:	00200993          	li	x19,2
    1d34:	08400a93          	li	x21,132
    1d38:	0300006f          	j	1d68 <menu_cheats_options+0x110>
    1d3c:	00011537          	lui	x10,0x11
    1d40:	1fc50513          	add	x10,x10,508 # 111fc <__clzsi2+0x610>
    1d44:	324020ef          	jal	4068 <print>
    1d48:	fc5ff06f          	j	1d0c <menu_cheats_options+0xb4>
    1d4c:	00c10613          	add	x12,x2,12
    1d50:	00400593          	li	x11,4
    1d54:	00048513          	mv	x10,x9
    1d58:	00d020ef          	jal	4564 <joy_choice>
    1d5c:	00400793          	li	x15,4
    1d60:	08f50c63          	beq	x10,x15,1df8 <menu_cheats_options+0x1a0>
    1d64:	02850063          	beq	x10,x8,1d84 <menu_cheats_options+0x12c>
    1d68:	ebc92783          	lw	x15,-324(x18) # 1cebc <option_osd_key>
    1d6c:	00048693          	mv	x13,x9
    1d70:	fc878ee3          	beq	x15,x8,1d4c <menu_cheats_options+0xf4>
    1d74:	000a0693          	mv	x13,x20
    1d78:	fd379ae3          	bne	x15,x19,1d4c <menu_cheats_options+0xf4>
    1d7c:	000a8693          	mv	x13,x21
    1d80:	fcdff06f          	j	1d4c <menu_cheats_options+0xf4>
    1d84:	00c12783          	lw	x15,12(x2)
    1d88:	06078863          	beqz	x15,1df8 <menu_cheats_options+0x1a0>
    1d8c:	fc878ee3          	beq	x15,x8,1d68 <menu_cheats_options+0x110>
    1d90:	00200713          	li	x14,2
    1d94:	02e78a63          	beq	x15,x14,1dc8 <menu_cheats_options+0x170>
    1d98:	00300713          	li	x14,3
    1d9c:	04e78463          	beq	x15,x14,1de4 <menu_cheats_options+0x18c>
    1da0:	00011537          	lui	x10,0x11
    1da4:	21050513          	add	x10,x10,528 # 11210 <__clzsi2+0x624>
    1da8:	df4fe0ef          	jal	39c <status>
    1dac:	90dfe0ef          	jal	6b8 <save_option>
    1db0:	ee050ee3          	beqz	x10,1cac <menu_cheats_options+0x54>
    1db4:	00100593          	li	x11,1
    1db8:	00011537          	lui	x10,0x11
    1dbc:	22450513          	add	x10,x10,548 # 11224 <__clzsi2+0x638>
    1dc0:	e38fe0ef          	jal	3f8 <message>
    1dc4:	ee9ff06f          	j	1cac <menu_cheats_options+0x54>
    1dc8:	0001d737          	lui	x14,0x1d
    1dcc:	eb674783          	lbu	x15,-330(x14) # 1ceb6 <option_cheats_enabled>
    1dd0:	0017c793          	xor	x15,x15,1
    1dd4:	eaf70b23          	sb	x15,-330(x14)
    1dd8:	02000737          	lui	x14,0x2000
    1ddc:	0af72023          	sw	x15,160(x14) # 20000a0 <STACK_TOP+0x1f000a0>
    1de0:	fc1ff06f          	j	1da0 <menu_cheats_options+0x148>
    1de4:	12c00513          	li	x10,300
    1de8:	738020ef          	jal	4520 <delay>
    1dec:	00810513          	add	x10,x2,8
    1df0:	b09ff0ef          	jal	18f8 <menu_load_cheats>
    1df4:	fadff06f          	j	1da0 <menu_cheats_options+0x148>
    1df8:	03c12083          	lw	x1,60(x2)
    1dfc:	03812403          	lw	x8,56(x2)
    1e00:	03412483          	lw	x9,52(x2)
    1e04:	03012903          	lw	x18,48(x2)
    1e08:	02c12983          	lw	x19,44(x2)
    1e0c:	02812a03          	lw	x20,40(x2)
    1e10:	02412a83          	lw	x21,36(x2)
    1e14:	02012b03          	lw	x22,32(x2)
    1e18:	01c12b83          	lw	x23,28(x2)
    1e1c:	01812c03          	lw	x24,24(x2)
    1e20:	01412c83          	lw	x25,20(x2)
    1e24:	01012d03          	lw	x26,16(x2)
    1e28:	04010113          	add	x2,x2,64
    1e2c:	00008067          	ret

00001e30 <save_bsram_nes>:
    1e30:	c7010113          	add	x2,x2,-912
    1e34:	38112623          	sw	x1,908(x2)
    1e38:	01010593          	add	x11,x2,16
    1e3c:	00019537          	lui	x10,0x19
    1e40:	00050513          	mv	x10,x10
    1e44:	61d090ef          	jal	bc60 <f_stat>
    1e48:	00050a63          	beqz	x10,1e5c <save_bsram_nes+0x2c>
    1e4c:	00019537          	lui	x10,0x19
    1e50:	00050513          	mv	x10,x10
    1e54:	4540a0ef          	jal	c2a8 <f_mkdir>
    1e58:	06051863          	bnez	x10,1ec8 <save_bsram_nes+0x98>
    1e5c:	00a00613          	li	x12,10
    1e60:	0001a5b7          	lui	x11,0x1a
    1e64:	ed058593          	add	x11,x11,-304 # 19ed0 <nes_backup_path_bsram>
    1e68:	13010513          	add	x10,x2,304
    1e6c:	624080ef          	jal	a490 <f_open>
    1e70:	06051c63          	bnez	x10,1ee8 <save_bsram_nes+0xb8>
    1e74:	00c10693          	add	x13,x2,12
    1e78:	00002637          	lui	x12,0x2
    1e7c:	000197b7          	lui	x15,0x19
    1e80:	1147a583          	lw	x11,276(x15) # 19114 <nes_bsram_starting_address>
    1e84:	13010513          	add	x10,x2,304
    1e88:	6f1080ef          	jal	ad78 <f_write>
    1e8c:	00051863          	bnez	x10,1e9c <save_bsram_nes+0x6c>
    1e90:	00c12703          	lw	x14,12(x2)
    1e94:	000027b7          	lui	x15,0x2
    1e98:	06f70a63          	beq	x14,x15,1f0c <save_bsram_nes+0xdc>
    1e9c:	00011537          	lui	x10,0x11
    1ea0:	28850513          	add	x10,x10,648 # 11288 <__clzsi2+0x69c>
    1ea4:	cf8fe0ef          	jal	39c <status>
    1ea8:	00c12583          	lw	x11,12(x2)
    1eac:	00011537          	lui	x10,0x11
    1eb0:	2a050513          	add	x10,x10,672 # 112a0 <__clzsi2+0x6b4>
    1eb4:	628020ef          	jal	44dc <uart_printf>
    1eb8:	00100513          	li	x10,1
    1ebc:	38c12083          	lw	x1,908(x2)
    1ec0:	39010113          	add	x2,x2,912
    1ec4:	00008067          	ret
    1ec8:	00011537          	lui	x10,0x11
    1ecc:	24050513          	add	x10,x10,576 # 11240 <__clzsi2+0x654>
    1ed0:	cccfe0ef          	jal	39c <status>
    1ed4:	00011537          	lui	x10,0x11
    1ed8:	25850513          	add	x10,x10,600 # 11258 <__clzsi2+0x66c>
    1edc:	600020ef          	jal	44dc <uart_printf>
    1ee0:	00100513          	li	x10,1
    1ee4:	fd9ff06f          	j	1ebc <save_bsram_nes+0x8c>
    1ee8:	38812423          	sw	x8,904(x2)
    1eec:	00011437          	lui	x8,0x11
    1ef0:	27040513          	add	x10,x8,624 # 11270 <__clzsi2+0x684>
    1ef4:	ca8fe0ef          	jal	39c <status>
    1ef8:	27040513          	add	x10,x8,624
    1efc:	5e0020ef          	jal	44dc <uart_printf>
    1f00:	00100513          	li	x10,1
    1f04:	38812403          	lw	x8,904(x2)
    1f08:	fb5ff06f          	j	1ebc <save_bsram_nes+0x8c>
    1f0c:	00011537          	lui	x10,0x11
    1f10:	2b850513          	add	x10,x10,696 # 112b8 <__clzsi2+0x6cc>
    1f14:	c88fe0ef          	jal	39c <status>
    1f18:	13010513          	add	x10,x2,304
    1f1c:	5fc090ef          	jal	b518 <f_close>
    1f20:	00000513          	li	x10,0
    1f24:	f99ff06f          	j	1ebc <save_bsram_nes+0x8c>

00001f28 <menu_options>:
    1f28:	fc010113          	add	x2,x2,-64
    1f2c:	02112e23          	sw	x1,60(x2)
    1f30:	02812c23          	sw	x8,56(x2)
    1f34:	02912a23          	sw	x9,52(x2)
    1f38:	03212823          	sw	x18,48(x2)
    1f3c:	03312623          	sw	x19,44(x2)
    1f40:	03412423          	sw	x20,40(x2)
    1f44:	03512223          	sw	x21,36(x2)
    1f48:	03612023          	sw	x22,32(x2)
    1f4c:	01712e23          	sw	x23,28(x2)
    1f50:	01812c23          	sw	x24,24(x2)
    1f54:	01912a23          	sw	x25,20(x2)
    1f58:	01a12823          	sw	x26,16(x2)
    1f5c:	00012623          	sw	x0,12(x2)
    1f60:	00011d37          	lui	x26,0x11
    1f64:	00011cb7          	lui	x25,0x11
    1f68:	00011c37          	lui	x24,0x11
    1f6c:	0001d937          	lui	x18,0x1d
    1f70:	00011bb7          	lui	x23,0x11
    1f74:	0001db37          	lui	x22,0x1d
    1f78:	00100413          	li	x8,1
    1f7c:	4d0020ef          	jal	444c <clear>
    1f80:	00a00593          	li	x11,10
    1f84:	00800513          	li	x10,8
    1f88:	7dd010ef          	jal	3f64 <cursor>
    1f8c:	2c8d0513          	add	x10,x26,712 # 112c8 <__clzsi2+0x6dc>
    1f90:	0d8020ef          	jal	4068 <print>
    1f94:	00c00593          	li	x11,12
    1f98:	00200513          	li	x10,2
    1f9c:	7c9010ef          	jal	3f64 <cursor>
    1fa0:	ed4c8513          	add	x10,x25,-300 # 10ed4 <__clzsi2+0x2e8>
    1fa4:	0c4020ef          	jal	4068 <print>
    1fa8:	00e00593          	li	x11,14
    1fac:	00200513          	li	x10,2
    1fb0:	7b5010ef          	jal	3f64 <cursor>
    1fb4:	2d8c0513          	add	x10,x24,728 # 112d8 <__clzsi2+0x6ec>
    1fb8:	0b0020ef          	jal	4068 <print>
    1fbc:	00e00593          	li	x11,14
    1fc0:	01000513          	li	x10,16
    1fc4:	7a1010ef          	jal	3f64 <cursor>
    1fc8:	ebc92783          	lw	x15,-324(x18) # 1cebc <option_osd_key>
    1fcc:	06878463          	beq	x15,x8,2034 <menu_options+0x10c>
    1fd0:	00200713          	li	x14,2
    1fd4:	06e78863          	beq	x15,x14,2044 <menu_options+0x11c>
    1fd8:	00011537          	lui	x10,0x11
    1fdc:	30850513          	add	x10,x10,776 # 11308 <__clzsi2+0x71c>
    1fe0:	088020ef          	jal	4068 <print>
    1fe4:	00f00593          	li	x11,15
    1fe8:	00200513          	li	x10,2
    1fec:	779010ef          	jal	3f64 <cursor>
    1ff0:	310b8513          	add	x10,x23,784 # 11310 <__clzsi2+0x724>
    1ff4:	074020ef          	jal	4068 <print>
    1ff8:	00f00593          	li	x11,15
    1ffc:	01000513          	li	x10,16
    2000:	765010ef          	jal	3f64 <cursor>
    2004:	eb8b4783          	lbu	x15,-328(x22) # 1ceb8 <option_backup_bsram>
    2008:	04078663          	beqz	x15,2054 <menu_options+0x12c>
    200c:	00011537          	lui	x10,0x11
    2010:	32050513          	add	x10,x10,800 # 11320 <__clzsi2+0x734>
    2014:	054020ef          	jal	4068 <print>
    2018:	12c00513          	li	x10,300
    201c:	504020ef          	jal	4520 <delay>
    2020:	00c00493          	li	x9,12
    2024:	00200a13          	li	x20,2
    2028:	02400993          	li	x19,36
    202c:	08400a93          	li	x21,132
    2030:	0500006f          	j	2080 <menu_options+0x158>
    2034:	00011537          	lui	x10,0x11
    2038:	2e850513          	add	x10,x10,744 # 112e8 <__clzsi2+0x6fc>
    203c:	02c020ef          	jal	4068 <print>
    2040:	fa5ff06f          	j	1fe4 <menu_options+0xbc>
    2044:	00011537          	lui	x10,0x11
    2048:	2f850513          	add	x10,x10,760 # 112f8 <__clzsi2+0x70c>
    204c:	01c020ef          	jal	4068 <print>
    2050:	f95ff06f          	j	1fe4 <menu_options+0xbc>
    2054:	00011537          	lui	x10,0x11
    2058:	32450513          	add	x10,x10,804 # 11324 <__clzsi2+0x738>
    205c:	00c020ef          	jal	4068 <print>
    2060:	fb9ff06f          	j	2018 <menu_options+0xf0>
    2064:	00c10613          	add	x12,x2,12
    2068:	00400593          	li	x11,4
    206c:	00048513          	mv	x10,x9
    2070:	4f4020ef          	jal	4564 <joy_choice>
    2074:	00400793          	li	x15,4
    2078:	0cf50263          	beq	x10,x15,213c <menu_options+0x214>
    207c:	02850063          	beq	x10,x8,209c <menu_options+0x174>
    2080:	ebc92783          	lw	x15,-324(x18)
    2084:	00048693          	mv	x13,x9
    2088:	fc878ee3          	beq	x15,x8,2064 <menu_options+0x13c>
    208c:	00098693          	mv	x13,x19
    2090:	fd479ae3          	bne	x15,x20,2064 <menu_options+0x13c>
    2094:	000a8693          	mv	x13,x21
    2098:	fcdff06f          	j	2064 <menu_options+0x13c>
    209c:	00c12783          	lw	x15,12(x2)
    20a0:	08078e63          	beqz	x15,213c <menu_options+0x214>
    20a4:	fc878ee3          	beq	x15,x8,2080 <menu_options+0x158>
    20a8:	00200713          	li	x14,2
    20ac:	02e78a63          	beq	x15,x14,20e0 <menu_options+0x1b8>
    20b0:	00300713          	li	x14,3
    20b4:	06e78a63          	beq	x15,x14,2128 <menu_options+0x200>
    20b8:	00011537          	lui	x10,0x11
    20bc:	21050513          	add	x10,x10,528 # 11210 <__clzsi2+0x624>
    20c0:	adcfe0ef          	jal	39c <status>
    20c4:	df4fe0ef          	jal	6b8 <save_option>
    20c8:	ea050ae3          	beqz	x10,1f7c <menu_options+0x54>
    20cc:	00100593          	li	x11,1
    20d0:	00011537          	lui	x10,0x11
    20d4:	22450513          	add	x10,x10,548 # 11224 <__clzsi2+0x638>
    20d8:	b20fe0ef          	jal	3f8 <message>
    20dc:	e9dff06f          	j	1f78 <menu_options+0x50>
    20e0:	0001d7b7          	lui	x15,0x1d
    20e4:	ebc7a783          	lw	x15,-324(x15) # 1cebc <option_osd_key>
    20e8:	00100713          	li	x14,1
    20ec:	00e78e63          	beq	x15,x14,2108 <menu_options+0x1e0>
    20f0:	00200713          	li	x14,2
    20f4:	02e78263          	beq	x15,x14,2118 <menu_options+0x1f0>
    20f8:	0001d7b7          	lui	x15,0x1d
    20fc:	00100713          	li	x14,1
    2100:	eae7ae23          	sw	x14,-324(x15) # 1cebc <option_osd_key>
    2104:	fb5ff06f          	j	20b8 <menu_options+0x190>
    2108:	0001d7b7          	lui	x15,0x1d
    210c:	00200713          	li	x14,2
    2110:	eae7ae23          	sw	x14,-324(x15) # 1cebc <option_osd_key>
    2114:	fa5ff06f          	j	20b8 <menu_options+0x190>
    2118:	0001d7b7          	lui	x15,0x1d
    211c:	00300713          	li	x14,3
    2120:	eae7ae23          	sw	x14,-324(x15) # 1cebc <option_osd_key>
    2124:	f95ff06f          	j	20b8 <menu_options+0x190>
    2128:	0001d737          	lui	x14,0x1d
    212c:	eb874783          	lbu	x15,-328(x14) # 1ceb8 <option_backup_bsram>
    2130:	0017c793          	xor	x15,x15,1
    2134:	eaf70c23          	sb	x15,-328(x14)
    2138:	f81ff06f          	j	20b8 <menu_options+0x190>
    213c:	03c12083          	lw	x1,60(x2)
    2140:	03812403          	lw	x8,56(x2)
    2144:	03412483          	lw	x9,52(x2)
    2148:	03012903          	lw	x18,48(x2)
    214c:	02c12983          	lw	x19,44(x2)
    2150:	02812a03          	lw	x20,40(x2)
    2154:	02412a83          	lw	x21,36(x2)
    2158:	02012b03          	lw	x22,32(x2)
    215c:	01c12b83          	lw	x23,28(x2)
    2160:	01812c03          	lw	x24,24(x2)
    2164:	01412c83          	lw	x25,20(x2)
    2168:	01012d03          	lw	x26,16(x2)
    216c:	04010113          	add	x2,x2,64
    2170:	00008067          	ret

00002174 <parse_snes_header>:
    2174:	f9010113          	add	x2,x2,-112
    2178:	06112623          	sw	x1,108(x2)
    217c:	06812423          	sw	x8,104(x2)
    2180:	06912223          	sw	x9,100(x2)
    2184:	07212023          	sw	x18,96(x2)
    2188:	05312e23          	sw	x19,92(x2)
    218c:	05412c23          	sw	x20,88(x2)
    2190:	05512a23          	sw	x21,84(x2)
    2194:	00050a93          	mv	x21,x10
    2198:	00058493          	mv	x9,x11
    219c:	00060993          	mv	x19,x12
    21a0:	00068913          	mv	x18,x13
    21a4:	00070413          	mv	x8,x14
    21a8:	00078a13          	mv	x20,x15
    21ac:	01012a23          	sw	x16,20(x2)
    21b0:	01112c23          	sw	x17,24(x2)
    21b4:	41f5d613          	sra	x12,x11,0x1f
    21b8:	3a0090ef          	jal	b558 <f_lseek>
    21bc:	02050663          	beqz	x10,21e8 <parse_snes_header+0x74>
    21c0:	00100513          	li	x10,1
    21c4:	06c12083          	lw	x1,108(x2)
    21c8:	06812403          	lw	x8,104(x2)
    21cc:	06412483          	lw	x9,100(x2)
    21d0:	06012903          	lw	x18,96(x2)
    21d4:	05c12983          	lw	x19,92(x2)
    21d8:	05812a03          	lw	x20,88(x2)
    21dc:	05412a83          	lw	x21,84(x2)
    21e0:	07010113          	add	x2,x2,112
    21e4:	00008067          	ret
    21e8:	02c10693          	add	x13,x2,44
    21ec:	04000613          	li	x12,64
    21f0:	00040593          	mv	x11,x8
    21f4:	000a8513          	mv	x10,x21
    21f8:	7ec080ef          	jal	a9e4 <f_read>
    21fc:	02c12703          	lw	x14,44(x2)
    2200:	04000793          	li	x15,64
    2204:	00100513          	li	x10,1
    2208:	faf71ee3          	bne	x14,x15,21c4 <parse_snes_header+0x50>
    220c:	05612823          	sw	x22,80(x2)
    2210:	05712623          	sw	x23,76(x2)
    2214:	05812423          	sw	x24,72(x2)
    2218:	05912223          	sw	x25,68(x2)
    221c:	05a12023          	sw	x26,64(x2)
    2220:	03b12e23          	sw	x27,60(x2)
    2224:	01544d03          	lbu	x26,21(x8)
    2228:	01a12e23          	sw	x26,28(x2)
    222c:	01744c83          	lbu	x25,23(x8)
    2230:	01844d83          	lbu	x27,24(x8)
    2234:	01c44b03          	lbu	x22,28(x8)
    2238:	008b1b13          	sll	x22,x22,0x8
    223c:	01d44783          	lbu	x15,29(x8)
    2240:	00fb0b33          	add	x22,x22,x15
    2244:	01e44b83          	lbu	x23,30(x8)
    2248:	008b9b93          	sll	x23,x23,0x8
    224c:	01f44783          	lbu	x15,31(x8)
    2250:	00fb8bb3          	add	x23,x23,x15
    2254:	03d44c03          	lbu	x24,61(x8)
    2258:	008c1c13          	sll	x24,x24,0x8
    225c:	03c44783          	lbu	x15,60(x8)
    2260:	00fc0c33          	add	x24,x24,x15
    2264:	40000a93          	li	x21,1024
    2268:	019a9ab3          	sll	x21,x21,x25
    226c:	00011537          	lui	x10,0x11
    2270:	d8050513          	add	x10,x10,-640 # 10d80 <__clzsi2+0x194>
    2274:	928fe0ef          	jal	39c <status>
    2278:	000a8593          	mv	x11,x21
    227c:	00011537          	lui	x10,0x11
    2280:	32850513          	add	x10,x10,808 # 11328 <__clzsi2+0x73c>
    2284:	184020ef          	jal	4408 <printf>
    2288:	013aa9b3          	slt	x19,x21,x19
    228c:	0019b993          	seqz	x19,x19
    2290:	fffc8793          	add	x15,x25,-1
    2294:	0017b793          	seqz	x15,x15
    2298:	00f989b3          	add	x19,x19,x15
    229c:	017b07b3          	add	x15,x22,x23
    22a0:	ffff0737          	lui	x14,0xffff0
    22a4:	00170713          	add	x14,x14,1 # ffff0001 <STACK_TOP+0xffef0001>
    22a8:	00e787b3          	add	x15,x15,x14
    22ac:	0017b793          	seqz	x15,x15
    22b0:	00f989b3          	add	x19,x19,x15
    22b4:	00040713          	mv	x14,x8
    22b8:	01540593          	add	x11,x8,21
    22bc:	00100693          	li	x13,1
    22c0:	05f00613          	li	x12,95
    22c4:	00074783          	lbu	x15,0(x14)
    22c8:	fe078793          	add	x15,x15,-32
    22cc:	0ff7f793          	zext.b	x15,x15
    22d0:	00f637b3          	sltu	x15,x12,x15
    22d4:	0017b793          	seqz	x15,x15
    22d8:	40f007b3          	neg	x15,x15
    22dc:	00f6f6b3          	and	x13,x13,x15
    22e0:	00170713          	add	x14,x14,1
    22e4:	feb710e3          	bne	x14,x11,22c4 <parse_snes_header+0x150>
    22e8:	00d989b3          	add	x19,x19,x13
    22ec:	01312223          	sw	x19,4(x2)
    22f0:	01812023          	sw	x24,0(x2)
    22f4:	000b8893          	mv	x17,x23
    22f8:	000b0813          	mv	x16,x22
    22fc:	000d8793          	mv	x15,x27
    2300:	000c8713          	mv	x14,x25
    2304:	000d0693          	mv	x13,x26
    2308:	00090613          	mv	x12,x18
    230c:	00048593          	mv	x11,x9
    2310:	00011537          	lui	x10,0x11
    2314:	33050513          	add	x10,x10,816 # 11330 <__clzsi2+0x744>
    2318:	1c4020ef          	jal	44dc <uart_printf>
    231c:	00d00793          	li	x15,13
    2320:	00100513          	li	x10,1
    2324:	1397c063          	blt	x15,x25,2444 <parse_snes_header+0x2d0>
    2328:	00700793          	li	x15,7
    232c:	13b7ca63          	blt	x15,x27,2460 <parse_snes_header+0x2ec>
    2330:	15305663          	blez	x19,247c <parse_snes_header+0x308>
    2334:	000087b7          	lui	x15,0x8
    2338:	16fc4063          	blt	x24,x15,2498 <parse_snes_header+0x324>
    233c:	02091a63          	bnez	x18,2370 <parse_snes_header+0x1fc>
    2340:	003d7793          	and	x15,x26,3
    2344:	08078a63          	beqz	x15,23d8 <parse_snes_header+0x264>
    2348:	05300793          	li	x15,83
    234c:	01c12703          	lw	x14,28(x2)
    2350:	08f70463          	beq	x14,x15,23d8 <parse_snes_header+0x264>
    2354:	05012b03          	lw	x22,80(x2)
    2358:	04c12b83          	lw	x23,76(x2)
    235c:	04812c03          	lw	x24,72(x2)
    2360:	04412c83          	lw	x25,68(x2)
    2364:	04012d03          	lw	x26,64(x2)
    2368:	03c12d83          	lw	x27,60(x2)
    236c:	e59ff06f          	j	21c4 <parse_snes_header+0x50>
    2370:	00100793          	li	x15,1
    2374:	02f91863          	bne	x18,x15,23a4 <parse_snes_header+0x230>
    2378:	003d7793          	and	x15,x26,3
    237c:	00100713          	li	x14,1
    2380:	04e78c63          	beq	x15,x14,23d8 <parse_snes_header+0x264>
    2384:	00090513          	mv	x10,x18
    2388:	05012b03          	lw	x22,80(x2)
    238c:	04c12b83          	lw	x23,76(x2)
    2390:	04812c03          	lw	x24,72(x2)
    2394:	04412c83          	lw	x25,68(x2)
    2398:	04012d03          	lw	x26,64(x2)
    239c:	03c12d83          	lw	x27,60(x2)
    23a0:	e25ff06f          	j	21c4 <parse_snes_header+0x50>
    23a4:	00200793          	li	x15,2
    23a8:	06f91e63          	bne	x18,x15,2424 <parse_snes_header+0x2b0>
    23ac:	003d7793          	and	x15,x26,3
    23b0:	00200713          	li	x14,2
    23b4:	00100513          	li	x10,1
    23b8:	02e78063          	beq	x15,x14,23d8 <parse_snes_header+0x264>
    23bc:	05012b03          	lw	x22,80(x2)
    23c0:	04c12b83          	lw	x23,76(x2)
    23c4:	04812c03          	lw	x24,72(x2)
    23c8:	04412c83          	lw	x25,68(x2)
    23cc:	04012d03          	lw	x26,64(x2)
    23d0:	03c12d83          	lw	x27,60(x2)
    23d4:	df1ff06f          	j	21c4 <parse_snes_header+0x50>
    23d8:	01aa2023          	sw	x26,0(x20)
    23dc:	01644783          	lbu	x15,22(x8)
    23e0:	01412703          	lw	x14,20(x2)
    23e4:	00f72023          	sw	x15,0(x14)
    23e8:	01812783          	lw	x15,24(x2)
    23ec:	0197a023          	sw	x25,0(x15) # 8000 <load_xdir+0x190>
    23f0:	07012783          	lw	x15,112(x2)
    23f4:	01b7a023          	sw	x27,0(x15)
    23f8:	01a44703          	lbu	x14,26(x8)
    23fc:	07412783          	lw	x15,116(x2)
    2400:	00e7a023          	sw	x14,0(x15)
    2404:	00000513          	li	x10,0
    2408:	05012b03          	lw	x22,80(x2)
    240c:	04c12b83          	lw	x23,76(x2)
    2410:	04812c03          	lw	x24,72(x2)
    2414:	04412c83          	lw	x25,68(x2)
    2418:	04012d03          	lw	x26,64(x2)
    241c:	03c12d83          	lw	x27,60(x2)
    2420:	da5ff06f          	j	21c4 <parse_snes_header+0x50>
    2424:	00100513          	li	x10,1
    2428:	05012b03          	lw	x22,80(x2)
    242c:	04c12b83          	lw	x23,76(x2)
    2430:	04812c03          	lw	x24,72(x2)
    2434:	04412c83          	lw	x25,68(x2)
    2438:	04012d03          	lw	x26,64(x2)
    243c:	03c12d83          	lw	x27,60(x2)
    2440:	d85ff06f          	j	21c4 <parse_snes_header+0x50>
    2444:	05012b03          	lw	x22,80(x2)
    2448:	04c12b83          	lw	x23,76(x2)
    244c:	04812c03          	lw	x24,72(x2)
    2450:	04412c83          	lw	x25,68(x2)
    2454:	04012d03          	lw	x26,64(x2)
    2458:	03c12d83          	lw	x27,60(x2)
    245c:	d69ff06f          	j	21c4 <parse_snes_header+0x50>
    2460:	05012b03          	lw	x22,80(x2)
    2464:	04c12b83          	lw	x23,76(x2)
    2468:	04812c03          	lw	x24,72(x2)
    246c:	04412c83          	lw	x25,68(x2)
    2470:	04012d03          	lw	x26,64(x2)
    2474:	03c12d83          	lw	x27,60(x2)
    2478:	d4dff06f          	j	21c4 <parse_snes_header+0x50>
    247c:	05012b03          	lw	x22,80(x2)
    2480:	04c12b83          	lw	x23,76(x2)
    2484:	04812c03          	lw	x24,72(x2)
    2488:	04412c83          	lw	x25,68(x2)
    248c:	04012d03          	lw	x26,64(x2)
    2490:	03c12d83          	lw	x27,60(x2)
    2494:	d31ff06f          	j	21c4 <parse_snes_header+0x50>
    2498:	05012b03          	lw	x22,80(x2)
    249c:	04c12b83          	lw	x23,76(x2)
    24a0:	04812c03          	lw	x24,72(x2)
    24a4:	04412c83          	lw	x25,68(x2)
    24a8:	04012d03          	lw	x26,64(x2)
    24ac:	03c12d83          	lw	x27,60(x2)
    24b0:	d15ff06f          	j	21c4 <parse_snes_header+0x50>

000024b4 <loadnes>:
    24b4:	d7010113          	add	x2,x2,-656
    24b8:	28112623          	sw	x1,652(x2)
    24bc:	28812423          	sw	x8,648(x2)
    24c0:	28912223          	sw	x9,644(x2)
    24c4:	29212023          	sw	x18,640(x2)
    24c8:	27312e23          	sw	x19,636(x2)
    24cc:	27412c23          	sw	x20,632(x2)
    24d0:	00050993          	mv	x19,x10
    24d4:	0001a737          	lui	x14,0x1a
    24d8:	12070413          	add	x8,x14,288 # 1a120 <snes_backup_name+0x44>
    24dc:	00019937          	lui	x18,0x19
    24e0:	6d090913          	add	x18,x18,1744 # 196d0 <load_fname>
    24e4:	40000613          	li	x12,1024
    24e8:	9b040593          	add	x11,x8,-1616
    24ec:	00090513          	mv	x10,x18
    24f0:	528020ef          	jal	4a18 <strncpy>
    24f4:	40000613          	li	x12,1024
    24f8:	000115b7          	lui	x11,0x11
    24fc:	13458593          	add	x11,x11,308 # 11134 <__clzsi2+0x548>
    2500:	00090513          	mv	x10,x18
    2504:	47c020ef          	jal	4980 <strncat>
    2508:	00899493          	sll	x9,x19,0x8
    250c:	0001b7b7          	lui	x15,0x1b
    2510:	41878793          	add	x15,x15,1048 # 1b418 <file_names>
    2514:	00f484b3          	add	x9,x9,x15
    2518:	40000613          	li	x12,1024
    251c:	00048593          	mv	x11,x9
    2520:	00090513          	mv	x10,x18
    2524:	45c020ef          	jal	4980 <strncat>
    2528:	db040793          	add	x15,x8,-592
    252c:	eba40713          	add	x14,x8,-326
    2530:	00078023          	sb	x0,0(x15)
    2534:	00178793          	add	x15,x15,1
    2538:	fee79ce3          	bne	x15,x14,2530 <loadnes+0x7c>
    253c:	0001b7b7          	lui	x15,0x1b
    2540:	00899713          	sll	x14,x19,0x8
    2544:	41878793          	add	x15,x15,1048 # 1b418 <file_names>
    2548:	00e787b3          	add	x15,x15,x14
    254c:	0007c783          	lbu	x15,0(x15)
    2550:	12078263          	beqz	x15,2674 <loadnes+0x1c0>
    2554:	00000413          	li	x8,0
    2558:	00140413          	add	x8,x8,1
    255c:	008487b3          	add	x15,x9,x8
    2560:	0007c783          	lbu	x15,0(x15)
    2564:	fe079ae3          	bnez	x15,2558 <loadnes+0xa4>
    2568:	0001a937          	lui	x18,0x1a
    256c:	12090913          	add	x18,x18,288 # 1a120 <snes_backup_name+0x44>
    2570:	db090a13          	add	x20,x18,-592
    2574:	10a00613          	li	x12,266
    2578:	00000593          	li	x11,0
    257c:	000a0513          	mv	x10,x20
    2580:	1f8020ef          	jal	4778 <memset>
    2584:	ebc90913          	add	x18,x18,-324
    2588:	ffc40613          	add	x12,x8,-4
    258c:	00048593          	mv	x11,x9
    2590:	00090513          	mv	x10,x18
    2594:	484020ef          	jal	4a18 <strncpy>
    2598:	000195b7          	lui	x11,0x19
    259c:	10c58593          	add	x11,x11,268 # 1910c <nes_backup_save_str_bsram>
    25a0:	000a0513          	mv	x10,x20
    25a4:	3a4020ef          	jal	4948 <strcat>
    25a8:	00090593          	mv	x11,x18
    25ac:	000a0513          	mv	x10,x20
    25b0:	398020ef          	jal	4948 <strcat>
    25b4:	00011537          	lui	x10,0x11
    25b8:	39450513          	add	x10,x10,916 # 11394 <__clzsi2+0x7a8>
    25bc:	721010ef          	jal	44dc <uart_printf>
    25c0:	000115b7          	lui	x11,0x11
    25c4:	3a458593          	add	x11,x11,932 # 113a4 <__clzsi2+0x7b8>
    25c8:	00048513          	mv	x10,x9
    25cc:	2d8020ef          	jal	48a4 <strcasestr>
    25d0:	0a050663          	beqz	x10,267c <loadnes+0x1c8>
    25d4:	555020ef          	jal	5328 <sd_init>
    25d8:	06300913          	li	x18,99
    25dc:	1a051463          	bnez	x10,2784 <loadnes+0x2d0>
    25e0:	00100613          	li	x12,1
    25e4:	000195b7          	lui	x11,0x19
    25e8:	6d058593          	add	x11,x11,1744 # 196d0 <load_fname>
    25ec:	01010513          	add	x10,x2,16
    25f0:	6a1070ef          	jal	a490 <f_open>
    25f4:	00050913          	mv	x18,x10
    25f8:	08051c63          	bnez	x10,2690 <loadnes+0x1dc>
    25fc:	27712623          	sw	x23,620(x2)
    2600:	00299993          	sll	x19,x19,0x2
    2604:	000197b7          	lui	x15,0x19
    2608:	12078793          	add	x15,x15,288 # 19120 <file_dir>
    260c:	013787b3          	add	x15,x15,x19
    2610:	0587ab83          	lw	x23,88(x15)
    2614:	00100513          	li	x10,1
    2618:	0cc020ef          	jal	46e4 <snes_ctrl>
    261c:	0001d7b7          	lui	x15,0x1d
    2620:	ea078623          	sb	x0,-340(x15) # 1ceac <snes_running>
    2624:	00000593          	li	x11,0
    2628:	00000613          	li	x12,0
    262c:	01010513          	add	x10,x2,16
    2630:	729080ef          	jal	b558 <f_lseek>
    2634:	00050913          	mv	x18,x10
    2638:	00abdb93          	srl	x23,x23,0xa
    263c:	00000993          	li	x19,0
    2640:	06051063          	bnez	x10,26a0 <loadnes+0x1ec>
    2644:	27512a23          	sw	x21,628(x2)
    2648:	27612823          	sw	x22,624(x2)
    264c:	27812423          	sw	x24,616(x2)
    2650:	27912223          	sw	x25,612(x2)
    2654:	00019a37          	lui	x20,0x19
    2658:	120a0a13          	add	x20,x20,288 # 19120 <file_dir>
    265c:	0b0a0b13          	add	x22,x20,176
    2660:	00011cb7          	lui	x25,0x11
    2664:	00011c37          	lui	x24,0x11
    2668:	00001ab7          	lui	x21,0x1
    266c:	fffa8a93          	add	x21,x21,-1 # fff <load_core+0x1bb>
    2670:	0640006f          	j	26d4 <loadnes+0x220>
    2674:	00000413          	li	x8,0
    2678:	ef1ff06f          	j	2568 <loadnes+0xb4>
    267c:	00011537          	lui	x10,0x11
    2680:	3ac50513          	add	x10,x10,940 # 113ac <__clzsi2+0x7c0>
    2684:	d19fd0ef          	jal	39c <status>
    2688:	00100913          	li	x18,1
    268c:	0f00006f          	j	277c <loadnes+0x2c8>
    2690:	00011537          	lui	x10,0x11
    2694:	16850513          	add	x10,x10,360 # 11168 <__clzsi2+0x57c>
    2698:	d05fd0ef          	jal	39c <status>
    269c:	0e00006f          	j	277c <loadnes+0x2c8>
    26a0:	00011537          	lui	x10,0x11
    26a4:	3c050513          	add	x10,x10,960 # 113c0 <__clzsi2+0x7d4>
    26a8:	cf5fd0ef          	jal	39c <status>
    26ac:	0c40006f          	j	2770 <loadnes+0x2bc>
    26b0:	d80c8513          	add	x10,x25,-640 # 10d80 <__clzsi2+0x194>
    26b4:	ce9fd0ef          	jal	39c <status>
    26b8:	000b8613          	mv	x12,x23
    26bc:	00a9d593          	srl	x11,x19,0xa
    26c0:	3d0c0513          	add	x10,x24,976 # 113d0 <__clzsi2+0x7e4>
    26c4:	545010ef          	jal	4408 <printf>
    26c8:	00c12703          	lw	x14,12(x2)
    26cc:	40000793          	li	x15,1024
    26d0:	06f71063          	bne	x14,x15,2730 <loadnes+0x27c>
    26d4:	00c10693          	add	x13,x2,12
    26d8:	40000613          	li	x12,1024
    26dc:	000b0593          	mv	x11,x22
    26e0:	01010513          	add	x10,x2,16
    26e4:	300080ef          	jal	a9e4 <f_read>
    26e8:	00050913          	mv	x18,x10
    26ec:	04051263          	bnez	x10,2730 <loadnes+0x27c>
    26f0:	00c12783          	lw	x15,12(x2)
    26f4:	00f989b3          	add	x19,x19,x15
    26f8:	02078863          	beqz	x15,2728 <loadnes+0x274>
    26fc:	0b0a0493          	add	x9,x20,176
    2700:	00050413          	mv	x8,x10
    2704:	0004a503          	lw	x10,0(x9)
    2708:	7e9010ef          	jal	46f0 <snes_data>
    270c:	00440413          	add	x8,x8,4
    2710:	00448493          	add	x9,x9,4
    2714:	00c12783          	lw	x15,12(x2)
    2718:	fef466e3          	bltu	x8,x15,2704 <loadnes+0x250>
    271c:	0159f7b3          	and	x15,x19,x21
    2720:	fa0794e3          	bnez	x15,26c8 <loadnes+0x214>
    2724:	f8dff06f          	j	26b0 <loadnes+0x1fc>
    2728:	01499793          	sll	x15,x19,0x14
    272c:	f80782e3          	beqz	x15,26b0 <loadnes+0x1fc>
    2730:	01010513          	add	x10,x2,16
    2734:	5e5080ef          	jal	b518 <f_close>
    2738:	00098593          	mv	x11,x19
    273c:	00011537          	lui	x10,0x11
    2740:	3d850513          	add	x10,x10,984 # 113d8 <__clzsi2+0x7ec>
    2744:	599010ef          	jal	44dc <uart_printf>
    2748:	00011537          	lui	x10,0x11
    274c:	3ec50513          	add	x10,x10,1004 # 113ec <__clzsi2+0x800>
    2750:	c4dfd0ef          	jal	39c <status>
    2754:	0001d7b7          	lui	x15,0x1d
    2758:	00100713          	li	x14,1
    275c:	eae78623          	sb	x14,-340(x15) # 1ceac <snes_running>
    2760:	27412a83          	lw	x21,628(x2)
    2764:	27012b03          	lw	x22,624(x2)
    2768:	26812c03          	lw	x24,616(x2)
    276c:	26412c83          	lw	x25,612(x2)
    2770:	00000513          	li	x10,0
    2774:	771010ef          	jal	46e4 <snes_ctrl>
    2778:	26c12b83          	lw	x23,620(x2)
    277c:	00000513          	li	x10,0
    2780:	7f8010ef          	jal	3f78 <overlay>
    2784:	00090513          	mv	x10,x18
    2788:	28c12083          	lw	x1,652(x2)
    278c:	28812403          	lw	x8,648(x2)
    2790:	28412483          	lw	x9,644(x2)
    2794:	28012903          	lw	x18,640(x2)
    2798:	27c12983          	lw	x19,636(x2)
    279c:	27812a03          	lw	x20,632(x2)
    27a0:	29010113          	add	x2,x2,656
    27a4:	00008067          	ret

000027a8 <gen_crc16>:
    27a8:	08050c63          	beqz	x10,2840 <gen_crc16+0x98>
    27ac:	00058e63          	beqz	x11,27c8 <gen_crc16+0x20>
    27b0:	00000693          	li	x13,0
    27b4:	00000793          	li	x15,0
    27b8:	00700893          	li	x17,7
    27bc:	ffff8837          	lui	x16,0xffff8
    27c0:	00580813          	add	x16,x16,5 # ffff8005 <STACK_TOP+0xffef8005>
    27c4:	0980006f          	j	285c <gen_crc16+0xb4>
    27c8:	00058793          	mv	x15,x11
    27cc:	01000693          	li	x13,16
    27d0:	ffff8637          	lui	x12,0xffff8
    27d4:	00560613          	add	x12,x12,5 # ffff8005 <STACK_TOP+0xffef8005>
    27d8:	01079713          	sll	x14,x15,0x10
    27dc:	41075713          	sra	x14,x14,0x10
    27e0:	40f75713          	sra	x14,x14,0xf
    27e4:	00c77733          	and	x14,x14,x12
    27e8:	00179793          	sll	x15,x15,0x1
    27ec:	00f747b3          	xor	x15,x14,x15
    27f0:	01079793          	sll	x15,x15,0x10
    27f4:	0107d793          	srl	x15,x15,0x10
    27f8:	fff68693          	add	x13,x13,-1
    27fc:	fc069ee3          	bnez	x13,27d8 <gen_crc16+0x30>
    2800:	01000693          	li	x13,16
    2804:	00100613          	li	x12,1
    2808:	00000513          	li	x10,0
    280c:	00008737          	lui	x14,0x8
    2810:	0140006f          	j	2824 <gen_crc16+0x7c>
    2814:	40175713          	sra	x14,x14,0x1
    2818:	00161613          	sll	x12,x12,0x1
    281c:	fff68693          	add	x13,x13,-1
    2820:	00068e63          	beqz	x13,283c <gen_crc16+0x94>
    2824:	00e7f5b3          	and	x11,x15,x14
    2828:	fe0586e3          	beqz	x11,2814 <gen_crc16+0x6c>
    282c:	00c56533          	or	x10,x10,x12
    2830:	01051513          	sll	x10,x10,0x10
    2834:	01055513          	srl	x10,x10,0x10
    2838:	fddff06f          	j	2814 <gen_crc16+0x6c>
    283c:	00008067          	ret
    2840:	00000513          	li	x10,0
    2844:	00008067          	ret
    2848:	40f7d793          	sra	x15,x15,0xf
    284c:	0107f7b3          	and	x15,x15,x16
    2850:	00f74733          	xor	x14,x14,x15
    2854:	01071793          	sll	x15,x14,0x10
    2858:	0107d793          	srl	x15,x15,0x10
    285c:	01079793          	sll	x15,x15,0x10
    2860:	4107d793          	sra	x15,x15,0x10
    2864:	00054703          	lbu	x14,0(x10)
    2868:	40d75733          	sra	x14,x14,x13
    286c:	00177713          	and	x14,x14,1
    2870:	00179613          	sll	x12,x15,0x1
    2874:	00c76733          	or	x14,x14,x12
    2878:	01071713          	sll	x14,x14,0x10
    287c:	41075713          	sra	x14,x14,0x10
    2880:	00168693          	add	x13,x13,1
    2884:	fcd8d2e3          	bge	x17,x13,2848 <gen_crc16+0xa0>
    2888:	00150513          	add	x10,x10,1
    288c:	fff58693          	add	x13,x11,-1
    2890:	01069593          	sll	x11,x13,0x10
    2894:	0105d593          	srl	x11,x11,0x10
    2898:	40f7d793          	sra	x15,x15,0xf
    289c:	0107f7b3          	and	x15,x15,x16
    28a0:	00f74733          	xor	x14,x14,x15
    28a4:	01071793          	sll	x15,x14,0x10
    28a8:	0107d793          	srl	x15,x15,0x10
    28ac:	01069713          	sll	x14,x13,0x10
    28b0:	01075713          	srl	x14,x14,0x10
    28b4:	f0070ce3          	beqz	x14,27cc <gen_crc16+0x24>
    28b8:	00000693          	li	x13,0
    28bc:	fa1ff06f          	j	285c <gen_crc16+0xb4>

000028c0 <load_bsram_nes>:
    28c0:	c6010113          	add	x2,x2,-928
    28c4:	38112e23          	sw	x1,924(x2)
    28c8:	0001d7b7          	lui	x15,0x1d
    28cc:	ea0782a3          	sb	x0,-347(x15) # 1cea5 <nes_backup_valid>
    28d0:	020007b7          	lui	x15,0x2000
    28d4:	00100713          	li	x14,1
    28d8:	1ae7a023          	sw	x14,416(x15) # 20001a0 <STACK_TOP+0x1f001a0>
    28dc:	0fa00513          	li	x10,250
    28e0:	441010ef          	jal	4520 <delay>
    28e4:	26010593          	add	x11,x2,608
    28e8:	0001a537          	lui	x10,0x1a
    28ec:	ed050513          	add	x10,x10,-304 # 19ed0 <nes_backup_path_bsram>
    28f0:	370090ef          	jal	bc60 <f_stat>
    28f4:	00050a63          	beqz	x10,2908 <load_bsram_nes+0x48>
    28f8:	0001a537          	lui	x10,0x1a
    28fc:	ed050513          	add	x10,x10,-304 # 19ed0 <nes_backup_path_bsram>
    2900:	1a9090ef          	jal	c2a8 <f_mkdir>
    2904:	0e051a63          	bnez	x10,29f8 <load_bsram_nes+0x138>
    2908:	38812c23          	sw	x8,920(x2)
    290c:	0001a437          	lui	x8,0x1a
    2910:	ed040413          	add	x8,x8,-304 # 19ed0 <nes_backup_path_bsram>
    2914:	00040593          	mv	x11,x8
    2918:	00011537          	lui	x10,0x11
    291c:	3f450513          	add	x10,x10,1012 # 113f4 <__clzsi2+0x808>
    2920:	3bd010ef          	jal	44dc <uart_printf>
    2924:	00100613          	li	x12,1
    2928:	00040593          	mv	x11,x8
    292c:	01010513          	add	x10,x2,16
    2930:	361070ef          	jal	a490 <f_open>
    2934:	00050413          	mv	x8,x10
    2938:	0c051a63          	bnez	x10,2a0c <load_bsram_nes+0x14c>
    293c:	38912a23          	sw	x9,916(x2)
    2940:	39212823          	sw	x18,912(x2)
    2944:	39312623          	sw	x19,908(x2)
    2948:	000197b7          	lui	x15,0x19
    294c:	1147a483          	lw	x9,276(x15) # 19114 <nes_bsram_starting_address>
    2950:	3ff00913          	li	x18,1023
    2954:	000029b7          	lui	x19,0x2
    2958:	00c10693          	add	x13,x2,12
    295c:	40000613          	li	x12,1024
    2960:	00048593          	mv	x11,x9
    2964:	01010513          	add	x10,x2,16
    2968:	07c080ef          	jal	a9e4 <f_read>
    296c:	00051c63          	bnez	x10,2984 <load_bsram_nes+0xc4>
    2970:	00c12783          	lw	x15,12(x2)
    2974:	00f95863          	bge	x18,x15,2984 <load_bsram_nes+0xc4>
    2978:	00f484b3          	add	x9,x9,x15
    297c:	00f40433          	add	x8,x8,x15
    2980:	fd346ce3          	bltu	x8,x19,2958 <load_bsram_nes+0x98>
    2984:	0001d7b7          	lui	x15,0x1d
    2988:	00100713          	li	x14,1
    298c:	eae782a3          	sb	x14,-347(x15) # 1cea5 <nes_backup_valid>
    2990:	01010513          	add	x10,x2,16
    2994:	385080ef          	jal	b518 <f_close>
    2998:	00019437          	lui	x8,0x19
    299c:	000025b7          	lui	x11,0x2
    29a0:	11442503          	lw	x10,276(x8) # 19114 <nes_bsram_starting_address>
    29a4:	e05ff0ef          	jal	27a8 <gen_crc16>
    29a8:	00011537          	lui	x10,0x11
    29ac:	43850513          	add	x10,x10,1080 # 11438 <__clzsi2+0x84c>
    29b0:	9edfd0ef          	jal	39c <status>
    29b4:	000025b7          	lui	x11,0x2
    29b8:	11442503          	lw	x10,276(x8)
    29bc:	dedff0ef          	jal	27a8 <gen_crc16>
    29c0:	0001d7b7          	lui	x15,0x1d
    29c4:	eaa79123          	sh	x10,-350(x15) # 1cea2 <nes_bsram_crc16>
    29c8:	0fa00513          	li	x10,250
    29cc:	355010ef          	jal	4520 <delay>
    29d0:	020007b7          	lui	x15,0x2000
    29d4:	1a07a023          	sw	x0,416(x15) # 20001a0 <STACK_TOP+0x1f001a0>
    29d8:	00000513          	li	x10,0
    29dc:	39812403          	lw	x8,920(x2)
    29e0:	39412483          	lw	x9,916(x2)
    29e4:	39012903          	lw	x18,912(x2)
    29e8:	38c12983          	lw	x19,908(x2)
    29ec:	39c12083          	lw	x1,924(x2)
    29f0:	3a010113          	add	x2,x2,928
    29f4:	00008067          	ret
    29f8:	00011537          	lui	x10,0x11
    29fc:	24050513          	add	x10,x10,576 # 11240 <__clzsi2+0x654>
    2a00:	99dfd0ef          	jal	39c <status>
    2a04:	00100513          	li	x10,1
    2a08:	fe5ff06f          	j	29ec <load_bsram_nes+0x12c>
    2a0c:	0001d7b7          	lui	x15,0x1d
    2a10:	00100713          	li	x14,1
    2a14:	eae782a3          	sb	x14,-347(x15) # 1cea5 <nes_backup_valid>
    2a18:	00011537          	lui	x10,0x11
    2a1c:	41050513          	add	x10,x10,1040 # 11410 <__clzsi2+0x824>
    2a20:	97dfd0ef          	jal	39c <status>
    2a24:	00100513          	li	x10,1
    2a28:	39812403          	lw	x8,920(x2)
    2a2c:	fc1ff06f          	j	29ec <load_bsram_nes+0x12c>

00002a30 <menu_options_nes>:
    2a30:	fc010113          	add	x2,x2,-64
    2a34:	02112e23          	sw	x1,60(x2)
    2a38:	02812c23          	sw	x8,56(x2)
    2a3c:	02912a23          	sw	x9,52(x2)
    2a40:	03212823          	sw	x18,48(x2)
    2a44:	03312623          	sw	x19,44(x2)
    2a48:	03412423          	sw	x20,40(x2)
    2a4c:	03512223          	sw	x21,36(x2)
    2a50:	03612023          	sw	x22,32(x2)
    2a54:	01712e23          	sw	x23,28(x2)
    2a58:	01812c23          	sw	x24,24(x2)
    2a5c:	01912a23          	sw	x25,20(x2)
    2a60:	00012623          	sw	x0,12(x2)
    2a64:	00011c37          	lui	x24,0x11
    2a68:	0001d937          	lui	x18,0x1d
    2a6c:	00011cb7          	lui	x25,0x11
    2a70:	00012ab7          	lui	x21,0x12
    2a74:	8fca8a93          	add	x21,x21,-1796 # 118fc <__clzsi2+0xd10>
    2a78:	00011bb7          	lui	x23,0x11
    2a7c:	00011b37          	lui	x22,0x11
    2a80:	1680006f          	j	2be8 <menu_options_nes+0x1b8>
    2a84:	00011537          	lui	x10,0x11
    2a88:	2e850513          	add	x10,x10,744 # 112e8 <__clzsi2+0x6fc>
    2a8c:	5dc010ef          	jal	4068 <print>
    2a90:	1c00006f          	j	2c50 <menu_options_nes+0x220>
    2a94:	00011537          	lui	x10,0x11
    2a98:	2f850513          	add	x10,x10,760 # 112f8 <__clzsi2+0x70c>
    2a9c:	5cc010ef          	jal	4068 <print>
    2aa0:	1b00006f          	j	2c50 <menu_options_nes+0x220>
    2aa4:	00011537          	lui	x10,0x11
    2aa8:	32450513          	add	x10,x10,804 # 11324 <__clzsi2+0x738>
    2aac:	5bc010ef          	jal	4068 <print>
    2ab0:	1dc0006f          	j	2c8c <menu_options_nes+0x25c>
    2ab4:	00011537          	lui	x10,0x11
    2ab8:	32450513          	add	x10,x10,804 # 11324 <__clzsi2+0x738>
    2abc:	5ac010ef          	jal	4068 <print>
    2ac0:	2080006f          	j	2cc8 <menu_options_nes+0x298>
    2ac4:	00011537          	lui	x10,0x11
    2ac8:	48c50513          	add	x10,x10,1164 # 1148c <__clzsi2+0x8a0>
    2acc:	59c010ef          	jal	4068 <print>
    2ad0:	27c0006f          	j	2d4c <menu_options_nes+0x31c>
    2ad4:	00011537          	lui	x10,0x11
    2ad8:	49c50513          	add	x10,x10,1180 # 1149c <__clzsi2+0x8b0>
    2adc:	58c010ef          	jal	4068 <print>
    2ae0:	2a80006f          	j	2d88 <menu_options_nes+0x358>
    2ae4:	00c10613          	add	x12,x2,12
    2ae8:	00a00593          	li	x11,10
    2aec:	00040513          	mv	x10,x8
    2af0:	275010ef          	jal	4564 <joy_choice>
    2af4:	00400793          	li	x15,4
    2af8:	30f50a63          	beq	x10,x15,2e0c <menu_options_nes+0x3dc>
    2afc:	02950063          	beq	x10,x9,2b1c <menu_options_nes+0xec>
    2b00:	ebc92783          	lw	x15,-324(x18) # 1cebc <option_osd_key>
    2b04:	00040693          	mv	x13,x8
    2b08:	fc978ee3          	beq	x15,x9,2ae4 <menu_options_nes+0xb4>
    2b0c:	00098693          	mv	x13,x19
    2b10:	fd479ae3          	bne	x15,x20,2ae4 <menu_options_nes+0xb4>
    2b14:	08400693          	li	x13,132
    2b18:	fcdff06f          	j	2ae4 <menu_options_nes+0xb4>
    2b1c:	00c12703          	lw	x14,12(x2)
    2b20:	00900793          	li	x15,9
    2b24:	0ae7ea63          	bltu	x15,x14,2bd8 <menu_options_nes+0x1a8>
    2b28:	00271793          	sll	x15,x14,0x2
    2b2c:	015787b3          	add	x15,x15,x21
    2b30:	0007a783          	lw	x15,0(x15)
    2b34:	00078067          	jr	x15
    2b38:	0001d7b7          	lui	x15,0x1d
    2b3c:	ebc7a783          	lw	x15,-324(x15) # 1cebc <option_osd_key>
    2b40:	00100713          	li	x14,1
    2b44:	00e78e63          	beq	x15,x14,2b60 <menu_options_nes+0x130>
    2b48:	00200713          	li	x14,2
    2b4c:	02e78263          	beq	x15,x14,2b70 <menu_options_nes+0x140>
    2b50:	0001d7b7          	lui	x15,0x1d
    2b54:	00100713          	li	x14,1
    2b58:	eae7ae23          	sw	x14,-324(x15) # 1cebc <option_osd_key>
    2b5c:	0340006f          	j	2b90 <menu_options_nes+0x160>
    2b60:	0001d7b7          	lui	x15,0x1d
    2b64:	00200713          	li	x14,2
    2b68:	eae7ae23          	sw	x14,-324(x15) # 1cebc <option_osd_key>
    2b6c:	0240006f          	j	2b90 <menu_options_nes+0x160>
    2b70:	0001d7b7          	lui	x15,0x1d
    2b74:	00300713          	li	x14,3
    2b78:	eae7ae23          	sw	x14,-324(x15) # 1cebc <option_osd_key>
    2b7c:	0140006f          	j	2b90 <menu_options_nes+0x160>
    2b80:	0001d737          	lui	x14,0x1d
    2b84:	eb874783          	lbu	x15,-328(x14) # 1ceb8 <option_backup_bsram>
    2b88:	0017c793          	xor	x15,x15,1
    2b8c:	eaf70c23          	sb	x15,-328(x14)
    2b90:	00011537          	lui	x10,0x11
    2b94:	21050513          	add	x10,x10,528 # 11210 <__clzsi2+0x624>
    2b98:	805fd0ef          	jal	39c <status>
    2b9c:	b1dfd0ef          	jal	6b8 <save_option>
    2ba0:	ec050ce3          	beqz	x10,2a78 <menu_options_nes+0x48>
    2ba4:	00100593          	li	x11,1
    2ba8:	00011537          	lui	x10,0x11
    2bac:	22450513          	add	x10,x10,548 # 11224 <__clzsi2+0x638>
    2bb0:	849fd0ef          	jal	3f8 <message>
    2bb4:	ec5ff06f          	j	2a78 <menu_options_nes+0x48>
    2bb8:	0001d737          	lui	x14,0x1d
    2bbc:	eb774783          	lbu	x15,-329(x14) # 1ceb7 <option_enhanced_apu>
    2bc0:	0017c793          	xor	x15,x15,1
    2bc4:	eaf70ba3          	sb	x15,-329(x14)
    2bc8:	020007b7          	lui	x15,0x2000
    2bcc:	0807a703          	lw	x14,128(x15) # 2000080 <STACK_TOP+0x1f00080>
    2bd0:	00173713          	seqz	x14,x14
    2bd4:	08e7a023          	sw	x14,128(x15)
    2bd8:	00c12783          	lw	x15,12(x2)
    2bdc:	ffb78793          	add	x15,x15,-5
    2be0:	00200713          	li	x14,2
    2be4:	faf766e3          	bltu	x14,x15,2b90 <menu_options_nes+0x160>
    2be8:	065010ef          	jal	444c <clear>
    2bec:	00a00593          	li	x11,10
    2bf0:	00800513          	li	x10,8
    2bf4:	370010ef          	jal	3f64 <cursor>
    2bf8:	2c8c0513          	add	x10,x24,712 # 112c8 <__clzsi2+0x6dc>
    2bfc:	46c010ef          	jal	4068 <print>
    2c00:	00c00593          	li	x11,12
    2c04:	00200513          	li	x10,2
    2c08:	35c010ef          	jal	3f64 <cursor>
    2c0c:	ed4b8513          	add	x10,x23,-300 # 10ed4 <__clzsi2+0x2e8>
    2c10:	458010ef          	jal	4068 <print>
    2c14:	00e00593          	li	x11,14
    2c18:	00200513          	li	x10,2
    2c1c:	348010ef          	jal	3f64 <cursor>
    2c20:	2d8b0513          	add	x10,x22,728 # 112d8 <__clzsi2+0x6ec>
    2c24:	444010ef          	jal	4068 <print>
    2c28:	00e00593          	li	x11,14
    2c2c:	01000513          	li	x10,16
    2c30:	334010ef          	jal	3f64 <cursor>
    2c34:	ebc92783          	lw	x15,-324(x18)
    2c38:	00100713          	li	x14,1
    2c3c:	e4e784e3          	beq	x15,x14,2a84 <menu_options_nes+0x54>
    2c40:	00200713          	li	x14,2
    2c44:	e4e788e3          	beq	x15,x14,2a94 <menu_options_nes+0x64>
    2c48:	308c8513          	add	x10,x25,776 # 11308 <__clzsi2+0x71c>
    2c4c:	41c010ef          	jal	4068 <print>
    2c50:	00f00593          	li	x11,15
    2c54:	00200513          	li	x10,2
    2c58:	30c010ef          	jal	3f64 <cursor>
    2c5c:	00011537          	lui	x10,0x11
    2c60:	31050513          	add	x10,x10,784 # 11310 <__clzsi2+0x724>
    2c64:	404010ef          	jal	4068 <print>
    2c68:	00f00593          	li	x11,15
    2c6c:	01000513          	li	x10,16
    2c70:	2f4010ef          	jal	3f64 <cursor>
    2c74:	0001d7b7          	lui	x15,0x1d
    2c78:	eb87c783          	lbu	x15,-328(x15) # 1ceb8 <option_backup_bsram>
    2c7c:	e20784e3          	beqz	x15,2aa4 <menu_options_nes+0x74>
    2c80:	00011537          	lui	x10,0x11
    2c84:	32050513          	add	x10,x10,800 # 11320 <__clzsi2+0x734>
    2c88:	3e0010ef          	jal	4068 <print>
    2c8c:	01000593          	li	x11,16
    2c90:	00200513          	li	x10,2
    2c94:	2d0010ef          	jal	3f64 <cursor>
    2c98:	00011537          	lui	x10,0x11
    2c9c:	44850513          	add	x10,x10,1096 # 11448 <__clzsi2+0x85c>
    2ca0:	3c8010ef          	jal	4068 <print>
    2ca4:	01000593          	li	x11,16
    2ca8:	01000513          	li	x10,16
    2cac:	2b8010ef          	jal	3f64 <cursor>
    2cb0:	0001d7b7          	lui	x15,0x1d
    2cb4:	eb77c783          	lbu	x15,-329(x15) # 1ceb7 <option_enhanced_apu>
    2cb8:	de078ee3          	beqz	x15,2ab4 <menu_options_nes+0x84>
    2cbc:	00011537          	lui	x10,0x11
    2cc0:	32050513          	add	x10,x10,800 # 11320 <__clzsi2+0x734>
    2cc4:	3a4010ef          	jal	4068 <print>
    2cc8:	01100593          	li	x11,17
    2ccc:	00200513          	li	x10,2
    2cd0:	294010ef          	jal	3f64 <cursor>
    2cd4:	00011537          	lui	x10,0x11
    2cd8:	45850513          	add	x10,x10,1112 # 11458 <__clzsi2+0x86c>
    2cdc:	38c010ef          	jal	4068 <print>
    2ce0:	01200593          	li	x11,18
    2ce4:	00200513          	li	x10,2
    2ce8:	27c010ef          	jal	3f64 <cursor>
    2cec:	00011537          	lui	x10,0x11
    2cf0:	46050513          	add	x10,x10,1120 # 11460 <__clzsi2+0x874>
    2cf4:	374010ef          	jal	4068 <print>
    2cf8:	01300593          	li	x11,19
    2cfc:	00200513          	li	x10,2
    2d00:	264010ef          	jal	3f64 <cursor>
    2d04:	00011537          	lui	x10,0x11
    2d08:	46c50513          	add	x10,x10,1132 # 1146c <__clzsi2+0x880>
    2d0c:	35c010ef          	jal	4068 <print>
    2d10:	01400593          	li	x11,20
    2d14:	00200513          	li	x10,2
    2d18:	24c010ef          	jal	3f64 <cursor>
    2d1c:	00011537          	lui	x10,0x11
    2d20:	47850513          	add	x10,x10,1144 # 11478 <__clzsi2+0x88c>
    2d24:	344010ef          	jal	4068 <print>
    2d28:	01400593          	li	x11,20
    2d2c:	01000513          	li	x10,16
    2d30:	234010ef          	jal	3f64 <cursor>
    2d34:	0001d7b7          	lui	x15,0x1d
    2d38:	eb57c783          	lbu	x15,-331(x15) # 1ceb5 <option_sys_type_is_pal>
    2d3c:	d80794e3          	bnez	x15,2ac4 <menu_options_nes+0x94>
    2d40:	00011537          	lui	x10,0x11
    2d44:	48050513          	add	x10,x10,1152 # 11480 <__clzsi2+0x894>
    2d48:	320010ef          	jal	4068 <print>
    2d4c:	01500593          	li	x11,21
    2d50:	00200513          	li	x10,2
    2d54:	210010ef          	jal	3f64 <cursor>
    2d58:	00011537          	lui	x10,0x11
    2d5c:	49050513          	add	x10,x10,1168 # 11490 <__clzsi2+0x8a4>
    2d60:	308010ef          	jal	4068 <print>
    2d64:	01500593          	li	x11,21
    2d68:	01000513          	li	x10,16
    2d6c:	1f8010ef          	jal	3f64 <cursor>
    2d70:	0001d7b7          	lui	x15,0x1d
    2d74:	eb07a783          	lw	x15,-336(x15) # 1ceb0 <option_aspect_ratio>
    2d78:	d4079ee3          	bnez	x15,2ad4 <menu_options_nes+0xa4>
    2d7c:	00011537          	lui	x10,0x11
    2d80:	49850513          	add	x10,x10,1176 # 11498 <__clzsi2+0x8ac>
    2d84:	2e4010ef          	jal	4068 <print>
    2d88:	12c00513          	li	x10,300
    2d8c:	794010ef          	jal	4520 <delay>
    2d90:	00100493          	li	x9,1
    2d94:	00c00413          	li	x8,12
    2d98:	00200a13          	li	x20,2
    2d9c:	02400993          	li	x19,36
    2da0:	d61ff06f          	j	2b00 <menu_options_nes+0xd0>
    2da4:	12c00513          	li	x10,300
    2da8:	778010ef          	jal	4520 <delay>
    2dac:	eadfe0ef          	jal	1c58 <menu_cheats_options>
    2db0:	e29ff06f          	j	2bd8 <menu_options_nes+0x1a8>
    2db4:	12c00513          	li	x10,300
    2db8:	768010ef          	jal	4520 <delay>
    2dbc:	874ff0ef          	jal	1e30 <save_bsram_nes>
    2dc0:	e19ff06f          	j	2bd8 <menu_options_nes+0x1a8>
    2dc4:	12c00513          	li	x10,300
    2dc8:	758010ef          	jal	4520 <delay>
    2dcc:	af5ff0ef          	jal	28c0 <load_bsram_nes>
    2dd0:	e09ff06f          	j	2bd8 <menu_options_nes+0x1a8>
    2dd4:	0001d737          	lui	x14,0x1d
    2dd8:	eb574783          	lbu	x15,-331(x14) # 1ceb5 <option_sys_type_is_pal>
    2ddc:	0017c793          	xor	x15,x15,1
    2de0:	eaf70aa3          	sb	x15,-331(x14)
    2de4:	02000737          	lui	x14,0x2000
    2de8:	1cf72023          	sw	x15,448(x14) # 20001c0 <STACK_TOP+0x1f001c0>
    2dec:	dedff06f          	j	2bd8 <menu_options_nes+0x1a8>
    2df0:	0001d737          	lui	x14,0x1d
    2df4:	eb072783          	lw	x15,-336(x14) # 1ceb0 <option_aspect_ratio>
    2df8:	0017b793          	seqz	x15,x15
    2dfc:	eaf72823          	sw	x15,-336(x14)
    2e00:	02000737          	lui	x14,0x2000
    2e04:	1ef72023          	sw	x15,480(x14) # 20001e0 <STACK_TOP+0x1f001e0>
    2e08:	dd1ff06f          	j	2bd8 <menu_options_nes+0x1a8>
    2e0c:	03c12083          	lw	x1,60(x2)
    2e10:	03812403          	lw	x8,56(x2)
    2e14:	03412483          	lw	x9,52(x2)
    2e18:	03012903          	lw	x18,48(x2)
    2e1c:	02c12983          	lw	x19,44(x2)
    2e20:	02812a03          	lw	x20,40(x2)
    2e24:	02412a83          	lw	x21,36(x2)
    2e28:	02012b03          	lw	x22,32(x2)
    2e2c:	01c12b83          	lw	x23,28(x2)
    2e30:	01812c03          	lw	x24,24(x2)
    2e34:	01412c83          	lw	x25,20(x2)
    2e38:	04010113          	add	x2,x2,64
    2e3c:	00008067          	ret

00002e40 <backup_load>:
    2e40:	0001d7b7          	lui	x15,0x1d
    2e44:	ea078223          	sb	x0,-348(x15) # 1cea4 <snes_backup_valid>
    2e48:	0001d7b7          	lui	x15,0x1d
    2e4c:	eb87c783          	lbu	x15,-328(x15) # 1ceb8 <option_backup_bsram>
    2e50:	16078e63          	beqz	x15,2fcc <backup_load+0x18c>
    2e54:	c6010113          	add	x2,x2,-928
    2e58:	38112e23          	sw	x1,924(x2)
    2e5c:	39212823          	sw	x18,912(x2)
    2e60:	00058913          	mv	x18,x11
    2e64:	00059a63          	bnez	x11,2e78 <backup_load+0x38>
    2e68:	39c12083          	lw	x1,924(x2)
    2e6c:	39012903          	lw	x18,912(x2)
    2e70:	3a010113          	add	x2,x2,928
    2e74:	00008067          	ret
    2e78:	26010593          	add	x11,x2,608
    2e7c:	00019537          	lui	x10,0x19
    2e80:	00050513          	mv	x10,x10
    2e84:	5dd080ef          	jal	bc60 <f_stat>
    2e88:	00050a63          	beqz	x10,2e9c <backup_load+0x5c>
    2e8c:	00019537          	lui	x10,0x19
    2e90:	00050513          	mv	x10,x10
    2e94:	414090ef          	jal	c2a8 <f_mkdir>
    2e98:	0e051863          	bnez	x10,2f88 <backup_load+0x148>
    2e9c:	38812c23          	sw	x8,920(x2)
    2ea0:	38912a23          	sw	x9,916(x2)
    2ea4:	39412423          	sw	x20,904(x2)
    2ea8:	0001a437          	lui	x8,0x1a
    2eac:	0dc40413          	add	x8,x8,220 # 1a0dc <snes_backup_name>
    2eb0:	000194b7          	lui	x9,0x19
    2eb4:	00040593          	mv	x11,x8
    2eb8:	00048513          	mv	x10,x9
    2ebc:	28d010ef          	jal	4948 <strcat>
    2ec0:	00040593          	mv	x11,x8
    2ec4:	00011537          	lui	x10,0x11
    2ec8:	3f450513          	add	x10,x10,1012 # 113f4 <__clzsi2+0x808>
    2ecc:	610010ef          	jal	44dc <uart_printf>
    2ed0:	00100613          	li	x12,1
    2ed4:	00048593          	mv	x11,x9
    2ed8:	01010513          	add	x10,x2,16
    2edc:	5b4070ef          	jal	a490 <f_open>
    2ee0:	00050413          	mv	x8,x10
    2ee4:	00090a13          	mv	x20,x18
    2ee8:	007004b7          	lui	x9,0x700
    2eec:	0a051c63          	bnez	x10,2fa4 <backup_load+0x164>
    2ef0:	39312623          	sw	x19,908(x2)
    2ef4:	3ff00993          	li	x19,1023
    2ef8:	00c10693          	add	x13,x2,12
    2efc:	40000613          	li	x12,1024
    2f00:	00048593          	mv	x11,x9
    2f04:	01010513          	add	x10,x2,16
    2f08:	2dd070ef          	jal	a9e4 <f_read>
    2f0c:	00051c63          	bnez	x10,2f24 <backup_load+0xe4>
    2f10:	00c12783          	lw	x15,12(x2)
    2f14:	00f9d863          	bge	x19,x15,2f24 <backup_load+0xe4>
    2f18:	00f484b3          	add	x9,x9,x15
    2f1c:	00f40433          	add	x8,x8,x15
    2f20:	fd446ce3          	bltu	x8,x20,2ef8 <backup_load+0xb8>
    2f24:	0001d7b7          	lui	x15,0x1d
    2f28:	00100713          	li	x14,1
    2f2c:	eae78223          	sb	x14,-348(x15) # 1cea4 <snes_backup_valid>
    2f30:	01010513          	add	x10,x2,16
    2f34:	5e4080ef          	jal	b518 <f_close>
    2f38:	01091593          	sll	x11,x18,0x10
    2f3c:	0105d593          	srl	x11,x11,0x10
    2f40:	00700537          	lui	x10,0x700
    2f44:	865ff0ef          	jal	27a8 <gen_crc16>
    2f48:	00050613          	mv	x12,x10
    2f4c:	00040593          	mv	x11,x8
    2f50:	00011537          	lui	x10,0x11
    2f54:	4c850513          	add	x10,x10,1224 # 114c8 <__clzsi2+0x8dc>
    2f58:	584010ef          	jal	44dc <uart_printf>
    2f5c:	39812403          	lw	x8,920(x2)
    2f60:	39412483          	lw	x9,916(x2)
    2f64:	38c12983          	lw	x19,908(x2)
    2f68:	38812a03          	lw	x20,904(x2)
    2f6c:	01091593          	sll	x11,x18,0x10
    2f70:	0105d593          	srl	x11,x11,0x10
    2f74:	00700537          	lui	x10,0x700
    2f78:	831ff0ef          	jal	27a8 <gen_crc16>
    2f7c:	0001d7b7          	lui	x15,0x1d
    2f80:	eaa79023          	sh	x10,-352(x15) # 1cea0 <snes_bsram_crc16>
    2f84:	ee5ff06f          	j	2e68 <backup_load+0x28>
    2f88:	00011537          	lui	x10,0x11
    2f8c:	24050513          	add	x10,x10,576 # 11240 <__clzsi2+0x654>
    2f90:	c0cfd0ef          	jal	39c <status>
    2f94:	00011537          	lui	x10,0x11
    2f98:	25850513          	add	x10,x10,600 # 11258 <__clzsi2+0x66c>
    2f9c:	540010ef          	jal	44dc <uart_printf>
    2fa0:	fcdff06f          	j	2f6c <backup_load+0x12c>
    2fa4:	0001d7b7          	lui	x15,0x1d
    2fa8:	00100713          	li	x14,1
    2fac:	eae782a3          	sb	x14,-347(x15) # 1cea5 <nes_backup_valid>
    2fb0:	00011537          	lui	x10,0x11
    2fb4:	4a050513          	add	x10,x10,1184 # 114a0 <__clzsi2+0x8b4>
    2fb8:	524010ef          	jal	44dc <uart_printf>
    2fbc:	39812403          	lw	x8,920(x2)
    2fc0:	39412483          	lw	x9,916(x2)
    2fc4:	38812a03          	lw	x20,904(x2)
    2fc8:	fa5ff06f          	j	2f6c <backup_load+0x12c>
    2fcc:	00008067          	ret

00002fd0 <loadsnes>:
    2fd0:	d5010113          	add	x2,x2,-688
    2fd4:	2a112623          	sw	x1,684(x2)
    2fd8:	2a812423          	sw	x8,680(x2)
    2fdc:	2a912223          	sw	x9,676(x2)
    2fe0:	2b212023          	sw	x18,672(x2)
    2fe4:	29312e23          	sw	x19,668(x2)
    2fe8:	00050993          	mv	x19,x10
    2fec:	00019437          	lui	x8,0x19
    2ff0:	6d040413          	add	x8,x8,1744 # 196d0 <load_fname>
    2ff4:	40000613          	li	x12,1024
    2ff8:	0001a5b7          	lui	x11,0x1a
    2ffc:	ad058593          	add	x11,x11,-1328 # 19ad0 <pwd>
    3000:	00040513          	mv	x10,x8
    3004:	215010ef          	jal	4a18 <strncpy>
    3008:	40000613          	li	x12,1024
    300c:	000115b7          	lui	x11,0x11
    3010:	13458593          	add	x11,x11,308 # 11134 <__clzsi2+0x548>
    3014:	00040513          	mv	x10,x8
    3018:	169010ef          	jal	4980 <strncat>
    301c:	00899493          	sll	x9,x19,0x8
    3020:	0001b7b7          	lui	x15,0x1b
    3024:	41878793          	add	x15,x15,1048 # 1b418 <file_names>
    3028:	00f484b3          	add	x9,x9,x15
    302c:	40000613          	li	x12,1024
    3030:	00048593          	mv	x11,x9
    3034:	00040513          	mv	x10,x8
    3038:	149010ef          	jal	4980 <strncat>
    303c:	000115b7          	lui	x11,0x11
    3040:	4f058593          	add	x11,x11,1264 # 114f0 <__clzsi2+0x904>
    3044:	00048513          	mv	x10,x9
    3048:	05d010ef          	jal	48a4 <strcasestr>
    304c:	18050c63          	beqz	x10,31e4 <loadsnes+0x214>
    3050:	40950433          	sub	x8,x10,x9
    3054:	0001a937          	lui	x18,0x1a
    3058:	0dc90913          	add	x18,x18,220 # 1a0dc <snes_backup_name>
    305c:	00040613          	mv	x12,x8
    3060:	00048593          	mv	x11,x9
    3064:	00090513          	mv	x10,x18
    3068:	1b1010ef          	jal	4a18 <strncpy>
    306c:	000115b7          	lui	x11,0x11
    3070:	51c58593          	add	x11,x11,1308 # 1151c <__clzsi2+0x930>
    3074:	00890533          	add	x10,x18,x8
    3078:	185010ef          	jal	49fc <strcpy>
    307c:	2ac020ef          	jal	5328 <sd_init>
    3080:	06300913          	li	x18,99
    3084:	34051663          	bnez	x10,33d0 <loadsnes+0x400>
    3088:	00100613          	li	x12,1
    308c:	000195b7          	lui	x11,0x19
    3090:	6d058593          	add	x11,x11,1744 # 196d0 <load_fname>
    3094:	03010513          	add	x10,x2,48
    3098:	3f8070ef          	jal	a490 <f_open>
    309c:	00050913          	mv	x18,x10
    30a0:	16051663          	bnez	x10,320c <loadsnes+0x23c>
    30a4:	29712623          	sw	x23,652(x2)
    30a8:	00019437          	lui	x8,0x19
    30ac:	12040413          	add	x8,x8,288 # 19120 <file_dir>
    30b0:	00299993          	sll	x19,x19,0x2
    30b4:	013409b3          	add	x19,x8,x19
    30b8:	0589ab83          	lw	x23,88(x19) # 2058 <menu_options+0x130>
    30bc:	3ffbf993          	and	x19,x23,1023
    30c0:	00098593          	mv	x11,x19
    30c4:	00011537          	lui	x10,0x11
    30c8:	52450513          	add	x10,x10,1316 # 11524 <__clzsi2+0x938>
    30cc:	410010ef          	jal	44dc <uart_printf>
    30d0:	413b84b3          	sub	x9,x23,x19
    30d4:	000085b7          	lui	x11,0x8
    30d8:	fc058593          	add	x11,x11,-64 # 7fc0 <load_xdir+0x150>
    30dc:	01810793          	add	x15,x2,24
    30e0:	00f12223          	sw	x15,4(x2)
    30e4:	01c10793          	add	x15,x2,28
    30e8:	00f12023          	sw	x15,0(x2)
    30ec:	02010893          	add	x17,x2,32
    30f0:	02410813          	add	x16,x2,36
    30f4:	02810793          	add	x15,x2,40
    30f8:	0b040713          	add	x14,x8,176
    30fc:	00000693          	li	x13,0
    3100:	00048613          	mv	x12,x9
    3104:	00b985b3          	add	x11,x19,x11
    3108:	03010513          	add	x10,x2,48
    310c:	868ff0ef          	jal	2174 <parse_snes_header>
    3110:	04050463          	beqz	x10,3158 <loadsnes+0x188>
    3114:	000105b7          	lui	x11,0x10
    3118:	fc058593          	add	x11,x11,-64 # ffc0 <__muldf3+0x5fc>
    311c:	01810793          	add	x15,x2,24
    3120:	00f12223          	sw	x15,4(x2)
    3124:	01c10793          	add	x15,x2,28
    3128:	00f12023          	sw	x15,0(x2)
    312c:	02010893          	add	x17,x2,32
    3130:	02410813          	add	x16,x2,36
    3134:	02810793          	add	x15,x2,40
    3138:	00019737          	lui	x14,0x19
    313c:	1d070713          	add	x14,x14,464 # 191d0 <load_buf>
    3140:	00100693          	li	x13,1
    3144:	00048613          	mv	x12,x9
    3148:	00b985b3          	add	x11,x19,x11
    314c:	03010513          	add	x10,x2,48
    3150:	824ff0ef          	jal	2174 <parse_snes_header>
    3154:	0c051463          	bnez	x10,321c <loadsnes+0x24c>
    3158:	29612823          	sw	x22,656(x2)
    315c:	00100513          	li	x10,1
    3160:	584010ef          	jal	46e4 <snes_ctrl>
    3164:	0001d7b7          	lui	x15,0x1d
    3168:	ea078623          	sb	x0,-340(x15) # 1ceac <snes_running>
    316c:	000194b7          	lui	x9,0x19
    3170:	12048493          	add	x9,x9,288 # 19120 <file_dir>
    3174:	0b048b13          	add	x22,x9,176
    3178:	0f048493          	add	x9,x9,240
    317c:	000b0413          	mv	x8,x22
    3180:	00042503          	lw	x10,0(x8)
    3184:	56c010ef          	jal	46f0 <snes_data>
    3188:	00440413          	add	x8,x8,4
    318c:	fe941ae3          	bne	x8,x9,3180 <loadsnes+0x1b0>
    3190:	00098593          	mv	x11,x19
    3194:	00000613          	li	x12,0
    3198:	03010513          	add	x10,x2,48
    319c:	3bc080ef          	jal	b558 <f_lseek>
    31a0:	00050913          	mv	x18,x10
    31a4:	40abdb93          	sra	x23,x23,0xa
    31a8:	00000993          	li	x19,0
    31ac:	0c051663          	bnez	x10,3278 <loadsnes+0x2a8>
    31b0:	29412c23          	sw	x20,664(x2)
    31b4:	29512a23          	sw	x21,660(x2)
    31b8:	29812423          	sw	x24,648(x2)
    31bc:	29912223          	sw	x25,644(x2)
    31c0:	29a12023          	sw	x26,640(x2)
    31c4:	00019a37          	lui	x20,0x19
    31c8:	1d0a0a13          	add	x20,x20,464 # 191d0 <load_buf>
    31cc:	00011d37          	lui	x26,0x11
    31d0:	00011cb7          	lui	x25,0x11
    31d4:	00011c37          	lui	x24,0x11
    31d8:	00010ab7          	lui	x21,0x10
    31dc:	fffa8a93          	add	x21,x21,-1 # ffff <__muldf3+0x63b>
    31e0:	0e40006f          	j	32c4 <loadsnes+0x2f4>
    31e4:	000115b7          	lui	x11,0x11
    31e8:	4f858593          	add	x11,x11,1272 # 114f8 <__clzsi2+0x90c>
    31ec:	00048513          	mv	x10,x9
    31f0:	6b4010ef          	jal	48a4 <strcasestr>
    31f4:	e4051ee3          	bnez	x10,3050 <loadsnes+0x80>
    31f8:	00011537          	lui	x10,0x11
    31fc:	50050513          	add	x10,x10,1280 # 11500 <__clzsi2+0x914>
    3200:	99cfd0ef          	jal	39c <status>
    3204:	00100913          	li	x18,1
    3208:	1c80006f          	j	33d0 <loadsnes+0x400>
    320c:	00011537          	lui	x10,0x11
    3210:	16850513          	add	x10,x10,360 # 11168 <__clzsi2+0x57c>
    3214:	988fd0ef          	jal	39c <status>
    3218:	1b80006f          	j	33d0 <loadsnes+0x400>
    321c:	004105b7          	lui	x11,0x410
    3220:	fc058593          	add	x11,x11,-64 # 40ffc0 <STACK_TOP+0x30ffc0>
    3224:	01810793          	add	x15,x2,24
    3228:	00f12223          	sw	x15,4(x2)
    322c:	01c10793          	add	x15,x2,28
    3230:	00f12023          	sw	x15,0(x2)
    3234:	02010893          	add	x17,x2,32
    3238:	02410813          	add	x16,x2,36
    323c:	02810793          	add	x15,x2,40
    3240:	00019737          	lui	x14,0x19
    3244:	1d070713          	add	x14,x14,464 # 191d0 <load_buf>
    3248:	00200693          	li	x13,2
    324c:	00048613          	mv	x12,x9
    3250:	00b985b3          	add	x11,x19,x11
    3254:	03010513          	add	x10,x2,48
    3258:	f1dfe0ef          	jal	2174 <parse_snes_header>
    325c:	ee050ee3          	beqz	x10,3158 <loadsnes+0x188>
    3260:	00011537          	lui	x10,0x11
    3264:	53050513          	add	x10,x10,1328 # 11530 <__clzsi2+0x944>
    3268:	934fd0ef          	jal	39c <status>
    326c:	0c800513          	li	x10,200
    3270:	2b0010ef          	jal	4520 <delay>
    3274:	1500006f          	j	33c4 <loadsnes+0x3f4>
    3278:	00011537          	lui	x10,0x11
    327c:	3c050513          	add	x10,x10,960 # 113c0 <__clzsi2+0x7d4>
    3280:	91cfd0ef          	jal	39c <status>
    3284:	1340006f          	j	33b8 <loadsnes+0x3e8>
    3288:	00011537          	lui	x10,0x11
    328c:	54450513          	add	x10,x10,1348 # 11544 <__clzsi2+0x958>
    3290:	5d9000ef          	jal	4068 <print>
    3294:	02012783          	lw	x15,32(x2)
    3298:	00100593          	li	x11,1
    329c:	00f595b3          	sll	x11,x11,x15
    32a0:	01c12603          	lw	x12,28(x2)
    32a4:	00060663          	beqz	x12,32b0 <loadsnes+0x2e0>
    32a8:	00100793          	li	x15,1
    32ac:	00c79633          	sll	x12,x15,x12
    32b0:	554c0513          	add	x10,x24,1364 # 11554 <__clzsi2+0x968>
    32b4:	154010ef          	jal	4408 <printf>
    32b8:	02c12703          	lw	x14,44(x2)
    32bc:	40000793          	li	x15,1024
    32c0:	12f71e63          	bne	x14,x15,33fc <loadsnes+0x42c>
    32c4:	02c10693          	add	x13,x2,44
    32c8:	40000613          	li	x12,1024
    32cc:	000a0593          	mv	x11,x20
    32d0:	03010513          	add	x10,x2,48
    32d4:	710070ef          	jal	a9e4 <f_read>
    32d8:	00050913          	mv	x18,x10
    32dc:	12051063          	bnez	x10,33fc <loadsnes+0x42c>
    32e0:	02c12783          	lw	x15,44(x2)
    32e4:	10078663          	beqz	x15,33f0 <loadsnes+0x420>
    32e8:	000b0493          	mv	x9,x22
    32ec:	00050413          	mv	x8,x10
    32f0:	0004a503          	lw	x10,0(x9)
    32f4:	3fc010ef          	jal	46f0 <snes_data>
    32f8:	00440413          	add	x8,x8,4
    32fc:	02c12783          	lw	x15,44(x2)
    3300:	00448493          	add	x9,x9,4
    3304:	fef466e3          	bltu	x8,x15,32f0 <loadsnes+0x320>
    3308:	00f989b3          	add	x19,x19,x15
    330c:	0159f7b3          	and	x15,x19,x21
    3310:	fa0794e3          	bnez	x15,32b8 <loadsnes+0x2e8>
    3314:	d80d0513          	add	x10,x26,-640 # 10d80 <__clzsi2+0x194>
    3318:	884fd0ef          	jal	39c <status>
    331c:	000b8613          	mv	x12,x23
    3320:	00a9d593          	srl	x11,x19,0xa
    3324:	3d0c8513          	add	x10,x25,976 # 113d0 <__clzsi2+0x7e4>
    3328:	0e0010ef          	jal	4408 <printf>
    332c:	02812783          	lw	x15,40(x2)
    3330:	0037f793          	and	x15,x15,3
    3334:	f4078ae3          	beqz	x15,3288 <loadsnes+0x2b8>
    3338:	00100713          	li	x14,1
    333c:	00e78e63          	beq	x15,x14,3358 <loadsnes+0x388>
    3340:	00200713          	li	x14,2
    3344:	f4e798e3          	bne	x15,x14,3294 <loadsnes+0x2c4>
    3348:	00011537          	lui	x10,0x11
    334c:	54c50513          	add	x10,x10,1356 # 1154c <__clzsi2+0x960>
    3350:	519000ef          	jal	4068 <print>
    3354:	f41ff06f          	j	3294 <loadsnes+0x2c4>
    3358:	00011537          	lui	x10,0x11
    335c:	54850513          	add	x10,x10,1352 # 11548 <__clzsi2+0x95c>
    3360:	509000ef          	jal	4068 <print>
    3364:	f31ff06f          	j	3294 <loadsnes+0x2c4>
    3368:	0001d7b7          	lui	x15,0x1d
    336c:	ea07a423          	sw	x0,-344(x15) # 1cea8 <snes_ramsize>
    3370:	0001d7b7          	lui	x15,0x1d
    3374:	ea87a583          	lw	x11,-344(x15) # 1cea8 <snes_ramsize>
    3378:	0001a537          	lui	x10,0x1a
    337c:	0dc50513          	add	x10,x10,220 # 1a0dc <snes_backup_name>
    3380:	ac1ff0ef          	jal	2e40 <backup_load>
    3384:	00011537          	lui	x10,0x11
    3388:	3ec50513          	add	x10,x10,1004 # 113ec <__clzsi2+0x800>
    338c:	810fd0ef          	jal	39c <status>
    3390:	0001d7b7          	lui	x15,0x1d
    3394:	00100713          	li	x14,1
    3398:	eae78623          	sb	x14,-340(x15) # 1ceac <snes_running>
    339c:	00000513          	li	x10,0
    33a0:	3d9000ef          	jal	3f78 <overlay>
    33a4:	29812a03          	lw	x20,664(x2)
    33a8:	29412a83          	lw	x21,660(x2)
    33ac:	28812c03          	lw	x24,648(x2)
    33b0:	28412c83          	lw	x25,644(x2)
    33b4:	28012d03          	lw	x26,640(x2)
    33b8:	00000513          	li	x10,0
    33bc:	328010ef          	jal	46e4 <snes_ctrl>
    33c0:	29012b03          	lw	x22,656(x2)
    33c4:	03010513          	add	x10,x2,48
    33c8:	150080ef          	jal	b518 <f_close>
    33cc:	28c12b83          	lw	x23,652(x2)
    33d0:	00090513          	mv	x10,x18
    33d4:	2ac12083          	lw	x1,684(x2)
    33d8:	2a812403          	lw	x8,680(x2)
    33dc:	2a412483          	lw	x9,676(x2)
    33e0:	2a012903          	lw	x18,672(x2)
    33e4:	29c12983          	lw	x19,668(x2)
    33e8:	2b010113          	add	x2,x2,688
    33ec:	00008067          	ret
    33f0:	01099793          	sll	x15,x19,0x10
    33f4:	0107d793          	srl	x15,x15,0x10
    33f8:	f0078ee3          	beqz	x15,3314 <loadsnes+0x344>
    33fc:	01c12783          	lw	x15,28(x2)
    3400:	f60784e3          	beqz	x15,3368 <loadsnes+0x398>
    3404:	40000613          	li	x12,1024
    3408:	00f61633          	sll	x12,x12,x15
    340c:	0001d7b7          	lui	x15,0x1d
    3410:	eac7a423          	sw	x12,-344(x15) # 1cea8 <snes_ramsize>
    3414:	f4c05ee3          	blez	x12,3370 <loadsnes+0x3a0>
    3418:	00000593          	li	x11,0
    341c:	00700537          	lui	x10,0x700
    3420:	358010ef          	jal	4778 <memset>
    3424:	f4dff06f          	j	3370 <loadsnes+0x3a0>

00003428 <menu_loadrom>:
    3428:	fa010113          	add	x2,x2,-96
    342c:	04112e23          	sw	x1,92(x2)
    3430:	04812c23          	sw	x8,88(x2)
    3434:	04912a23          	sw	x9,84(x2)
    3438:	05212823          	sw	x18,80(x2)
    343c:	05312623          	sw	x19,76(x2)
    3440:	05412423          	sw	x20,72(x2)
    3444:	05512223          	sw	x21,68(x2)
    3448:	05612023          	sw	x22,64(x2)
    344c:	03712e23          	sw	x23,60(x2)
    3450:	03812c23          	sw	x24,56(x2)
    3454:	03912a23          	sw	x25,52(x2)
    3458:	03a12823          	sw	x26,48(x2)
    345c:	03b12623          	sw	x27,44(x2)
    3460:	00050d13          	mv	x26,x10
    3464:	00012c23          	sw	x0,24(x2)
    3468:	0001a7b7          	lui	x15,0x1a
    346c:	12078793          	add	x15,x15,288 # 1a120 <snes_backup_name+0x44>
    3470:	02f00713          	li	x14,47
    3474:	9ae78823          	sb	x14,-1616(x15)
    3478:	9a0788a3          	sb	x0,-1615(x15)
    347c:	00000a93          	li	x21,0
    3480:	0001a7b7          	lui	x15,0x1a
    3484:	ad078793          	add	x15,x15,-1328 # 19ad0 <pwd>
    3488:	00f12223          	sw	x15,4(x2)
    348c:	00011cb7          	lui	x25,0x11
    3490:	000197b7          	lui	x15,0x19
    3494:	12078d93          	add	x27,x15,288 # 19120 <file_dir>
    3498:	7b5000ef          	jal	444c <clear>
    349c:	001a9413          	sll	x8,x21,0x1
    34a0:	01540433          	add	x8,x8,x21
    34a4:	00241413          	sll	x8,x8,0x2
    34a8:	41540433          	sub	x8,x8,x21
    34ac:	00141413          	sll	x8,x8,0x1
    34b0:	01c10693          	add	x13,x2,28
    34b4:	01600613          	li	x12,22
    34b8:	00040593          	mv	x11,x8
    34bc:	00412503          	lw	x10,4(x2)
    34c0:	c14fd0ef          	jal	8d4 <load_dir>
    34c4:	00a12623          	sw	x10,12(x2)
    34c8:	24051c63          	bnez	x10,3720 <menu_loadrom+0x2f8>
    34cc:	01c12b03          	lw	x22,28(x2)
    34d0:	01600593          	li	x11,22
    34d4:	015b0513          	add	x10,x22,21
    34d8:	32c0a0ef          	jal	d804 <__divsi3>
    34dc:	00050c13          	mv	x24,x10
    34e0:	000117b7          	lui	x15,0x11
    34e4:	19c78513          	add	x10,x15,412 # 1119c <__clzsi2+0x5b0>
    34e8:	eb5fc0ef          	jal	39c <status>
    34ec:	001a8793          	add	x15,x21,1
    34f0:	00f12423          	sw	x15,8(x2)
    34f4:	000c0613          	mv	x12,x24
    34f8:	00078593          	mv	x11,x15
    34fc:	000117b7          	lui	x15,0x11
    3500:	1a478513          	add	x10,x15,420 # 111a4 <__clzsi2+0x5b8>
    3504:	705000ef          	jal	4408 <printf>
    3508:	0001d7b7          	lui	x15,0x1d
    350c:	e987a783          	lw	x15,-360(x15) # 1ce98 <file_len>
    3510:	01812703          	lw	x14,24(x2)
    3514:	00f74663          	blt	x14,x15,3520 <menu_loadrom+0xf8>
    3518:	fff78793          	add	x15,x15,-1
    351c:	00f12c23          	sw	x15,24(x2)
    3520:	000197b7          	lui	x15,0x19
    3524:	12078493          	add	x9,x15,288 # 19120 <file_dir>
    3528:	0001b937          	lui	x18,0x1b
    352c:	41890913          	add	x18,x18,1048 # 1b418 <file_names>
    3530:	05848b93          	add	x23,x9,88
    3534:	001a9993          	sll	x19,x21,0x1
    3538:	015989b3          	add	x19,x19,x21
    353c:	00299993          	sll	x19,x19,0x2
    3540:	413a89b3          	sub	x19,x21,x19
    3544:	00199993          	sll	x19,x19,0x1
    3548:	00298993          	add	x19,x19,2
    354c:	01c0006f          	j	3568 <menu_loadrom+0x140>
    3550:	00812a83          	lw	x21,8(x2)
    3554:	f45ff06f          	j	3498 <menu_loadrom+0x70>
    3558:	00140413          	add	x8,x8,1
    355c:	00448493          	add	x9,x9,4
    3560:	10090913          	add	x18,x18,256
    3564:	03748a63          	beq	x9,x23,3598 <menu_loadrom+0x170>
    3568:	008985b3          	add	x11,x19,x8
    356c:	00200513          	li	x10,2
    3570:	1f5000ef          	jal	3f64 <cursor>
    3574:	ff6452e3          	bge	x8,x22,3558 <menu_loadrom+0x130>
    3578:	00090513          	mv	x10,x18
    357c:	2ed000ef          	jal	4068 <print>
    3580:	fc040ce3          	beqz	x8,3558 <menu_loadrom+0x130>
    3584:	0004a783          	lw	x15,0(x9)
    3588:	fc0788e3          	beqz	x15,3558 <menu_loadrom+0x130>
    358c:	134c8513          	add	x10,x25,308 # 11134 <__clzsi2+0x548>
    3590:	2d9000ef          	jal	4068 <print>
    3594:	fc5ff06f          	j	3558 <menu_loadrom+0x130>
    3598:	12c00513          	li	x10,300
    359c:	785000ef          	jal	4520 <delay>
    35a0:	0001d937          	lui	x18,0x1d
    35a4:	0001d4b7          	lui	x9,0x1d
    35a8:	11c0006f          	j	36c4 <menu_loadrom+0x29c>
    35ac:	08400693          	li	x13,132
    35b0:	1340006f          	j	36e4 <menu_loadrom+0x2bc>
    35b4:	134c8593          	add	x11,x25,308
    35b8:	00412503          	lw	x10,4(x2)
    35bc:	218010ef          	jal	47d4 <strcmp>
    35c0:	01812783          	lw	x15,24(x2)
    35c4:	0157e733          	or	x14,x15,x21
    35c8:	00a76733          	or	x14,x14,x10
    35cc:	16070e63          	beqz	x14,3748 <menu_loadrom+0x320>
    35d0:	00279713          	sll	x14,x15,0x2
    35d4:	00ed8733          	add	x14,x27,x14
    35d8:	00072703          	lw	x14,0(x14)
    35dc:	02071c63          	bnez	x14,3614 <menu_loadrom+0x1ec>
    35e0:	00fd2023          	sw	x15,0(x26)
    35e4:	0001d737          	lui	x14,0x1d
    35e8:	ecc72683          	lw	x13,-308(x14) # 1cecc <CORE_ID>
    35ec:	00100713          	li	x14,1
    35f0:	0ce68063          	beq	x13,x14,36b0 <menu_loadrom+0x288>
    35f4:	00078513          	mv	x10,x15
    35f8:	9d9ff0ef          	jal	2fd0 <loadsnes>
    35fc:	0c050463          	beqz	x10,36c4 <menu_loadrom+0x29c>
    3600:	00100593          	li	x11,1
    3604:	00011537          	lui	x10,0x11
    3608:	56450513          	add	x10,x10,1380 # 11564 <__clzsi2+0x978>
    360c:	dedfc0ef          	jal	3f8 <message>
    3610:	e89ff06f          	j	3498 <menu_loadrom+0x70>
    3614:	0001b737          	lui	x14,0x1b
    3618:	00879693          	sll	x13,x15,0x8
    361c:	41870713          	add	x14,x14,1048 # 1b418 <file_names>
    3620:	00d70733          	add	x14,x14,x13
    3624:	00074683          	lbu	x13,0(x14)
    3628:	02e00713          	li	x14,46
    362c:	02e69063          	bne	x13,x14,364c <menu_loadrom+0x224>
    3630:	0001b737          	lui	x14,0x1b
    3634:	00879793          	sll	x15,x15,0x8
    3638:	41870713          	add	x14,x14,1048 # 1b418 <file_names>
    363c:	00f707b3          	add	x15,x14,x15
    3640:	0017c703          	lbu	x14,1(x15)
    3644:	02e00793          	li	x15,46
    3648:	04f70663          	beq	x14,x15,3694 <menu_loadrom+0x26c>
    364c:	0001a437          	lui	x8,0x1a
    3650:	ad040413          	add	x8,x8,-1328 # 19ad0 <pwd>
    3654:	40000613          	li	x12,1024
    3658:	000115b7          	lui	x11,0x11
    365c:	13458593          	add	x11,x11,308 # 11134 <__clzsi2+0x548>
    3660:	00040513          	mv	x10,x8
    3664:	31c010ef          	jal	4980 <strncat>
    3668:	01812783          	lw	x15,24(x2)
    366c:	00879793          	sll	x15,x15,0x8
    3670:	40000613          	li	x12,1024
    3674:	0001b5b7          	lui	x11,0x1b
    3678:	41858593          	add	x11,x11,1048 # 1b418 <file_names>
    367c:	00f585b3          	add	x11,x11,x15
    3680:	00040513          	mv	x10,x8
    3684:	2fc010ef          	jal	4980 <strncat>
    3688:	00012c23          	sw	x0,24(x2)
    368c:	00c12a83          	lw	x21,12(x2)
    3690:	e09ff06f          	j	3498 <menu_loadrom+0x70>
    3694:	02f00593          	li	x11,47
    3698:	0001a537          	lui	x10,0x1a
    369c:	ad050513          	add	x10,x10,-1328 # 19ad0 <pwd>
    36a0:	3c4010ef          	jal	4a64 <strrchr>
    36a4:	fe0502e3          	beqz	x10,3688 <menu_loadrom+0x260>
    36a8:	00050023          	sb	x0,0(x10)
    36ac:	fddff06f          	j	3688 <menu_loadrom+0x260>
    36b0:	00078513          	mv	x10,x15
    36b4:	e01fe0ef          	jal	24b4 <loadnes>
    36b8:	f45ff06f          	j	35fc <menu_loadrom+0x1d4>
    36bc:	fffc0793          	add	x15,x24,-1
    36c0:	e8fac8e3          	blt	x21,x15,3550 <menu_loadrom+0x128>
    36c4:	e9892583          	lw	x11,-360(x18) # 1ce98 <file_len>
    36c8:	ebc4a783          	lw	x15,-324(x9) # 1cebc <option_osd_key>
    36cc:	00100713          	li	x14,1
    36d0:	00c00693          	li	x13,12
    36d4:	00e78863          	beq	x15,x14,36e4 <menu_loadrom+0x2bc>
    36d8:	00200713          	li	x14,2
    36dc:	02400693          	li	x13,36
    36e0:	ece786e3          	beq	x15,x14,35ac <menu_loadrom+0x184>
    36e4:	01810613          	add	x12,x2,24
    36e8:	00200513          	li	x10,2
    36ec:	679000ef          	jal	4564 <joy_choice>
    36f0:	00050413          	mv	x8,x10
    36f4:	00400793          	li	x15,4
    36f8:	04f50663          	beq	x10,x15,3744 <menu_loadrom+0x31c>
    36fc:	00100793          	li	x15,1
    3700:	eaf50ae3          	beq	x10,x15,35b4 <menu_loadrom+0x18c>
    3704:	00200793          	li	x15,2
    3708:	faf50ae3          	beq	x10,x15,36bc <menu_loadrom+0x294>
    370c:	00300793          	li	x15,3
    3710:	faf51ae3          	bne	x10,x15,36c4 <menu_loadrom+0x29c>
    3714:	fb5058e3          	blez	x21,36c4 <menu_loadrom+0x29c>
    3718:	fffa8a93          	add	x21,x21,-1
    371c:	d7dff06f          	j	3498 <menu_loadrom+0x70>
    3720:	00011537          	lui	x10,0x11
    3724:	57450513          	add	x10,x10,1396 # 11574 <__clzsi2+0x988>
    3728:	c75fc0ef          	jal	39c <status>
    372c:	00c12583          	lw	x11,12(x2)
    3730:	00011537          	lui	x10,0x11
    3734:	1dc50513          	add	x10,x10,476 # 111dc <__clzsi2+0x5f0>
    3738:	4d1000ef          	jal	4408 <printf>
    373c:	fff00413          	li	x8,-1
    3740:	0080006f          	j	3748 <menu_loadrom+0x320>
    3744:	00100413          	li	x8,1
    3748:	00040513          	mv	x10,x8
    374c:	05c12083          	lw	x1,92(x2)
    3750:	05812403          	lw	x8,88(x2)
    3754:	05412483          	lw	x9,84(x2)
    3758:	05012903          	lw	x18,80(x2)
    375c:	04c12983          	lw	x19,76(x2)
    3760:	04812a03          	lw	x20,72(x2)
    3764:	04412a83          	lw	x21,68(x2)
    3768:	04012b03          	lw	x22,64(x2)
    376c:	03c12b83          	lw	x23,60(x2)
    3770:	03812c03          	lw	x24,56(x2)
    3774:	03412c83          	lw	x25,52(x2)
    3778:	03012d03          	lw	x26,48(x2)
    377c:	02c12d83          	lw	x27,44(x2)
    3780:	06010113          	add	x2,x2,96
    3784:	00008067          	ret

00003788 <backup_save>:
    3788:	c8010113          	add	x2,x2,-896
    378c:	36112e23          	sw	x1,892(x2)
    3790:	36912a23          	sw	x9,884(x2)
    3794:	0001d7b7          	lui	x15,0x1d
    3798:	eb87c783          	lbu	x15,-328(x15) # 1ceb8 <option_backup_bsram>
    379c:	00100493          	li	x9,1
    37a0:	12078a63          	beqz	x15,38d4 <backup_save+0x14c>
    37a4:	36812c23          	sw	x8,888(x2)
    37a8:	00058413          	mv	x8,x11
    37ac:	0001d7b7          	lui	x15,0x1d
    37b0:	ea47c783          	lbu	x15,-348(x15) # 1cea4 <snes_backup_valid>
    37b4:	10078e63          	beqz	x15,38d0 <backup_save+0x148>
    37b8:	00059663          	bnez	x11,37c4 <backup_save+0x3c>
    37bc:	37812403          	lw	x8,888(x2)
    37c0:	1140006f          	j	38d4 <backup_save+0x14c>
    37c4:	37212823          	sw	x18,880(x2)
    37c8:	766177b7          	lui	x15,0x76617
    37cc:	32f78793          	add	x15,x15,815 # 7661732f <STACK_TOP+0x7651732f>
    37d0:	26f12223          	sw	x15,612(x2)
    37d4:	002f77b7          	lui	x15,0x2f7
    37d8:	36578793          	add	x15,x15,869 # 2f7365 <STACK_TOP+0x1f7365>
    37dc:	26f12423          	sw	x15,616(x2)
    37e0:	10200613          	li	x12,258
    37e4:	00000593          	li	x11,0
    37e8:	26c10513          	add	x10,x2,620
    37ec:	78d000ef          	jal	4778 <memset>
    37f0:	01041593          	sll	x11,x8,0x10
    37f4:	0105d593          	srl	x11,x11,0x10
    37f8:	00700537          	lui	x10,0x700
    37fc:	fadfe0ef          	jal	27a8 <gen_crc16>
    3800:	00050913          	mv	x18,x10
    3804:	00040613          	mv	x12,x8
    3808:	00050593          	mv	x11,x10
    380c:	00011537          	lui	x10,0x11
    3810:	58c50513          	add	x10,x10,1420 # 1158c <__clzsi2+0x9a0>
    3814:	4c9000ef          	jal	44dc <uart_printf>
    3818:	0001d7b7          	lui	x15,0x1d
    381c:	ea07d783          	lhu	x15,-352(x15) # 1cea0 <snes_bsram_crc16>
    3820:	0d278463          	beq	x15,x18,38e8 <backup_save+0x160>
    3824:	0001a5b7          	lui	x11,0x1a
    3828:	0dc58593          	add	x11,x11,220 # 1a0dc <snes_backup_name>
    382c:	26410513          	add	x10,x2,612
    3830:	118010ef          	jal	4948 <strcat>
    3834:	00a00613          	li	x12,10
    3838:	26410593          	add	x11,x2,612
    383c:	01010513          	add	x10,x2,16
    3840:	451060ef          	jal	a490 <f_open>
    3844:	04051c63          	bnez	x10,389c <backup_save+0x114>
    3848:	00c10693          	add	x13,x2,12
    384c:	00040613          	mv	x12,x8
    3850:	007005b7          	lui	x11,0x700
    3854:	01010513          	add	x10,x2,16
    3858:	520070ef          	jal	ad78 <f_write>
    385c:	00051663          	bnez	x10,3868 <backup_save+0xe0>
    3860:	00c12783          	lw	x15,12(x2)
    3864:	04f40e63          	beq	x8,x15,38c0 <backup_save+0x138>
    3868:	00011537          	lui	x10,0x11
    386c:	5a450513          	add	x10,x10,1444 # 115a4 <__clzsi2+0x9b8>
    3870:	b2dfc0ef          	jal	39c <status>
    3874:	00c12583          	lw	x11,12(x2)
    3878:	00011537          	lui	x10,0x11
    387c:	2a050513          	add	x10,x10,672 # 112a0 <__clzsi2+0x6b4>
    3880:	45d000ef          	jal	44dc <uart_printf>
    3884:	00200493          	li	x9,2
    3888:	01010513          	add	x10,x2,16
    388c:	48d070ef          	jal	b518 <f_close>
    3890:	37812403          	lw	x8,888(x2)
    3894:	37012903          	lw	x18,880(x2)
    3898:	03c0006f          	j	38d4 <backup_save+0x14c>
    389c:	00011437          	lui	x8,0x11
    38a0:	27040513          	add	x10,x8,624 # 11270 <__clzsi2+0x684>
    38a4:	af9fc0ef          	jal	39c <status>
    38a8:	27040513          	add	x10,x8,624
    38ac:	431000ef          	jal	44dc <uart_printf>
    38b0:	00200493          	li	x9,2
    38b4:	37812403          	lw	x8,888(x2)
    38b8:	37012903          	lw	x18,880(x2)
    38bc:	0180006f          	j	38d4 <backup_save+0x14c>
    38c0:	0001d7b7          	lui	x15,0x1d
    38c4:	eb279023          	sh	x18,-352(x15) # 1cea0 <snes_bsram_crc16>
    38c8:	00000493          	li	x9,0
    38cc:	fbdff06f          	j	3888 <backup_save+0x100>
    38d0:	37812403          	lw	x8,888(x2)
    38d4:	00048513          	mv	x10,x9
    38d8:	37c12083          	lw	x1,892(x2)
    38dc:	37412483          	lw	x9,884(x2)
    38e0:	38010113          	add	x2,x2,896
    38e4:	00008067          	ret
    38e8:	37812403          	lw	x8,888(x2)
    38ec:	37012903          	lw	x18,880(x2)
    38f0:	fe5ff06f          	j	38d4 <backup_save+0x14c>

000038f4 <backup_process>:
    38f4:	0001d7b7          	lui	x15,0x1d
    38f8:	eac7c783          	lbu	x15,-340(x15) # 1ceac <snes_running>
    38fc:	0e078663          	beqz	x15,39e8 <backup_process+0xf4>
    3900:	0001d7b7          	lui	x15,0x1d
    3904:	eb87c783          	lbu	x15,-328(x15) # 1ceb8 <option_backup_bsram>
    3908:	0e078063          	beqz	x15,39e8 <backup_process+0xf4>
    390c:	0001d7b7          	lui	x15,0x1d
    3910:	ea87a583          	lw	x11,-344(x15) # 1cea8 <snes_ramsize>
    3914:	0c058a63          	beqz	x11,39e8 <backup_process+0xf4>
    3918:	ff010113          	add	x2,x2,-16
    391c:	00112623          	sw	x1,12(x2)
    3920:	00812423          	sw	x8,8(x2)
    3924:	020007b7          	lui	x15,0x2000
    3928:	0507a403          	lw	x8,80(x15) # 2000050 <STACK_TOP+0x1f00050>
    392c:	0001d7b7          	lui	x15,0x1d
    3930:	e9c7a703          	lw	x14,-356(x15) # 1ce9c <snes_backup_time>
    3934:	40e40733          	sub	x14,x8,x14
    3938:	000027b7          	lui	x15,0x2
    393c:	70f78793          	add	x15,x15,1807 # 270f <loadnes+0x25b>
    3940:	00e7fe63          	bgeu	x15,x14,395c <backup_process+0x68>
    3944:	0001d7b7          	lui	x15,0x1d
    3948:	ecc7a783          	lw	x15,-308(x15) # 1cecc <CORE_ID>
    394c:	00200713          	li	x14,2
    3950:	00e78e63          	beq	x15,x14,396c <backup_process+0x78>
    3954:	00100713          	li	x14,1
    3958:	02e78263          	beq	x15,x14,397c <backup_process+0x88>
    395c:	00c12083          	lw	x1,12(x2)
    3960:	00812403          	lw	x8,8(x2)
    3964:	01010113          	add	x2,x2,16
    3968:	00008067          	ret
    396c:	0001a537          	lui	x10,0x1a
    3970:	0dc50513          	add	x10,x10,220 # 1a0dc <snes_backup_name>
    3974:	e15ff0ef          	jal	3788 <backup_save>
    3978:	0080006f          	j	3980 <backup_process+0x8c>
    397c:	cb4fe0ef          	jal	1e30 <save_bsram_nes>
    3980:	00051663          	bnez	x10,398c <backup_process+0x98>
    3984:	0001d7b7          	lui	x15,0x1d
    3988:	e687ac23          	sw	x8,-392(x15) # 1ce78 <backup_success_time>
    398c:	0001d7b7          	lui	x15,0x1d
    3990:	e787a783          	lw	x15,-392(x15) # 1ce78 <backup_success_time>
    3994:	00079863          	bnez	x15,39a4 <backup_process+0xb0>
    3998:	0001d7b7          	lui	x15,0x1d
    399c:	e887ae23          	sw	x8,-356(x15) # 1ce9c <snes_backup_time>
    39a0:	fbdff06f          	j	395c <backup_process+0x68>
    39a4:	00011537          	lui	x10,0x11
    39a8:	d8050513          	add	x10,x10,-640 # 10d80 <__clzsi2+0x194>
    39ac:	9f1fc0ef          	jal	39c <status>
    39b0:	0001d7b7          	lui	x15,0x1d
    39b4:	e787a503          	lw	x10,-392(x15) # 1ce78 <backup_success_time>
    39b8:	3e800593          	li	x11,1000
    39bc:	40a40533          	sub	x10,x8,x10
    39c0:	645090ef          	jal	d804 <__divsi3>
    39c4:	00050593          	mv	x11,x10
    39c8:	00011537          	lui	x10,0x11
    39cc:	5b450513          	add	x10,x10,1460 # 115b4 <__clzsi2+0x9c8>
    39d0:	239000ef          	jal	4408 <printf>
    39d4:	00400593          	li	x11,4
    39d8:	0001d7b7          	lui	x15,0x1d
    39dc:	ea07d503          	lhu	x10,-352(x15) # 1cea0 <snes_bsram_crc16>
    39e0:	75c000ef          	jal	413c <print_hex_digits>
    39e4:	fb5ff06f          	j	3998 <backup_process+0xa4>
    39e8:	00008067          	ret

000039ec <main_bare_os>:
    39ec:	fb010113          	add	x2,x2,-80
    39f0:	04112623          	sw	x1,76(x2)
    39f4:	04812423          	sw	x8,72(x2)
    39f8:	04912223          	sw	x9,68(x2)
    39fc:	05212023          	sw	x18,64(x2)
    3a00:	03312e23          	sw	x19,60(x2)
    3a04:	03412c23          	sw	x20,56(x2)
    3a08:	03512a23          	sw	x21,52(x2)
    3a0c:	03612823          	sw	x22,48(x2)
    3a10:	03712623          	sw	x23,44(x2)
    3a14:	03812423          	sw	x24,40(x2)
    3a18:	03912223          	sw	x25,36(x2)
    3a1c:	03a12023          	sw	x26,32(x2)
    3a20:	01b12e23          	sw	x27,28(x2)
    3a24:	0001dcb7          	lui	x25,0x1d
    3a28:	00011db7          	lui	x27,0x11
    3a2c:	00011d37          	lui	x26,0x11
    3a30:	00011c37          	lui	x24,0x11
    3a34:	00011bb7          	lui	x23,0x11
    3a38:	00011b37          	lui	x22,0x11
    3a3c:	0001d937          	lui	x18,0x1d
    3a40:	00100413          	li	x8,1
    3a44:	0480006f          	j	3a8c <main_bare_os+0xa0>
    3a48:	5e8d8513          	add	x10,x27,1512 # 115e8 <__clzsi2+0x9fc>
    3a4c:	61c000ef          	jal	4068 <print>
    3a50:	05c0006f          	j	3aac <main_bare_os+0xc0>
    3a54:	00c10613          	add	x12,x2,12
    3a58:	00300593          	li	x11,3
    3a5c:	00048513          	mv	x10,x9
    3a60:	305000ef          	jal	4564 <joy_choice>
    3a64:	02850063          	beq	x10,x8,3a84 <main_bare_os+0x98>
    3a68:	ebc92783          	lw	x15,-324(x18) # 1cebc <option_osd_key>
    3a6c:	00048693          	mv	x13,x9
    3a70:	fe8782e3          	beq	x15,x8,3a54 <main_bare_os+0x68>
    3a74:	00098693          	mv	x13,x19
    3a78:	fd479ee3          	bne	x15,x20,3a54 <main_bare_os+0x68>
    3a7c:	000a8693          	mv	x13,x21
    3a80:	fd5ff06f          	j	3a54 <main_bare_os+0x68>
    3a84:	00c12783          	lw	x15,12(x2)
    3a88:	06878a63          	beq	x15,x8,3afc <main_bare_os+0x110>
    3a8c:	1c1000ef          	jal	444c <clear>
    3a90:	00a00593          	li	x11,10
    3a94:	00300513          	li	x10,3
    3a98:	4cc000ef          	jal	3f64 <cursor>
    3a9c:	eccca783          	lw	x15,-308(x25) # 1cecc <CORE_ID>
    3aa0:	fa0794e3          	bnez	x15,3a48 <main_bare_os+0x5c>
    3aa4:	5ccd0513          	add	x10,x26,1484 # 115cc <__clzsi2+0x9e0>
    3aa8:	5c0000ef          	jal	4068 <print>
    3aac:	00d00593          	li	x11,13
    3ab0:	00200513          	li	x10,2
    3ab4:	4b0000ef          	jal	3f64 <cursor>
    3ab8:	600c0513          	add	x10,x24,1536 # 11600 <__clzsi2+0xa14>
    3abc:	5ac000ef          	jal	4068 <print>
    3ac0:	01000593          	li	x11,16
    3ac4:	00200513          	li	x10,2
    3ac8:	49c000ef          	jal	3f64 <cursor>
    3acc:	610b8513          	add	x10,x23,1552 # 11610 <__clzsi2+0xa24>
    3ad0:	598000ef          	jal	4068 <print>
    3ad4:	61cb0513          	add	x10,x22,1564 # 1161c <__clzsi2+0xa30>
    3ad8:	590000ef          	jal	4068 <print>
    3adc:	12c00513          	li	x10,300
    3ae0:	241000ef          	jal	4520 <delay>
    3ae4:	00012623          	sw	x0,12(x2)
    3ae8:	00c00493          	li	x9,12
    3aec:	00200a13          	li	x20,2
    3af0:	02400993          	li	x19,36
    3af4:	08400a93          	li	x21,132
    3af8:	f71ff06f          	j	3a68 <main_bare_os+0x7c>
    3afc:	00000513          	li	x10,0
    3b00:	86dfd0ef          	jal	136c <menu_select_core>
    3b04:	f89ff06f          	j	3a8c <main_bare_os+0xa0>

00003b08 <load_pacman>:
    3b08:	ff010113          	add	x2,x2,-16
    3b0c:	00112623          	sw	x1,12(x2)
    3b10:	00011537          	lui	x10,0x11
    3b14:	62850513          	add	x10,x10,1576 # 11628 <__clzsi2+0xa3c>
    3b18:	885fc0ef          	jal	39c <status>
    3b1c:	00c12083          	lw	x1,12(x2)
    3b20:	01010113          	add	x2,x2,16
    3b24:	00008067          	ret

00003b28 <main_pacman>:
    3b28:	fb010113          	add	x2,x2,-80
    3b2c:	04112623          	sw	x1,76(x2)
    3b30:	04812423          	sw	x8,72(x2)
    3b34:	04912223          	sw	x9,68(x2)
    3b38:	05212023          	sw	x18,64(x2)
    3b3c:	03312e23          	sw	x19,60(x2)
    3b40:	03412c23          	sw	x20,56(x2)
    3b44:	03512a23          	sw	x21,52(x2)
    3b48:	03612823          	sw	x22,48(x2)
    3b4c:	03712623          	sw	x23,44(x2)
    3b50:	03812423          	sw	x24,40(x2)
    3b54:	03912223          	sw	x25,36(x2)
    3b58:	03a12023          	sw	x26,32(x2)
    3b5c:	01b12e23          	sw	x27,28(x2)
    3b60:	0001dd37          	lui	x26,0x1d
    3b64:	00011db7          	lui	x27,0x11
    3b68:	00011cb7          	lui	x25,0x11
    3b6c:	00011c37          	lui	x24,0x11
    3b70:	00011bb7          	lui	x23,0x11
    3b74:	00011b37          	lui	x22,0x11
    3b78:	0001d937          	lui	x18,0x1d
    3b7c:	0580006f          	j	3bd4 <main_pacman+0xac>
    3b80:	000117b7          	lui	x15,0x11
    3b84:	64478513          	add	x10,x15,1604 # 11644 <__clzsi2+0xa58>
    3b88:	4e0000ef          	jal	4068 <print>
    3b8c:	06c0006f          	j	3bf8 <main_pacman+0xd0>
    3b90:	00c10613          	add	x12,x2,12
    3b94:	00300593          	li	x11,3
    3b98:	00040513          	mv	x10,x8
    3b9c:	1c9000ef          	jal	4564 <joy_choice>
    3ba0:	02950063          	beq	x10,x9,3bc0 <main_pacman+0x98>
    3ba4:	ebc92783          	lw	x15,-324(x18) # 1cebc <option_osd_key>
    3ba8:	00040693          	mv	x13,x8
    3bac:	fe9782e3          	beq	x15,x9,3b90 <main_pacman+0x68>
    3bb0:	00098693          	mv	x13,x19
    3bb4:	fd479ee3          	bne	x15,x20,3b90 <main_pacman+0x68>
    3bb8:	000a8693          	mv	x13,x21
    3bbc:	fd5ff06f          	j	3b90 <main_pacman+0x68>
    3bc0:	00c12783          	lw	x15,12(x2)
    3bc4:	08079e63          	bnez	x15,3c60 <main_pacman+0x138>
    3bc8:	12c00513          	li	x10,300
    3bcc:	155000ef          	jal	4520 <delay>
    3bd0:	f39ff0ef          	jal	3b08 <load_pacman>
    3bd4:	079000ef          	jal	444c <clear>
    3bd8:	00a00593          	li	x11,10
    3bdc:	00300513          	li	x10,3
    3be0:	384000ef          	jal	3f64 <cursor>
    3be4:	eccd2703          	lw	x14,-308(x26) # 1cecc <CORE_ID>
    3be8:	00400793          	li	x15,4
    3bec:	f8f70ae3          	beq	x14,x15,3b80 <main_pacman+0x58>
    3bf0:	5e8d8513          	add	x10,x27,1512 # 115e8 <__clzsi2+0x9fc>
    3bf4:	474000ef          	jal	4068 <print>
    3bf8:	00c00593          	li	x11,12
    3bfc:	00200513          	li	x10,2
    3c00:	364000ef          	jal	3f64 <cursor>
    3c04:	664c8513          	add	x10,x25,1636 # 11664 <__clzsi2+0xa78>
    3c08:	460000ef          	jal	4068 <print>
    3c0c:	00d00593          	li	x11,13
    3c10:	00200513          	li	x10,2
    3c14:	350000ef          	jal	3f64 <cursor>
    3c18:	680c0513          	add	x10,x24,1664 # 11680 <__clzsi2+0xa94>
    3c1c:	44c000ef          	jal	4068 <print>
    3c20:	01000593          	li	x11,16
    3c24:	00200513          	li	x10,2
    3c28:	33c000ef          	jal	3f64 <cursor>
    3c2c:	610b8513          	add	x10,x23,1552 # 11610 <__clzsi2+0xa24>
    3c30:	438000ef          	jal	4068 <print>
    3c34:	61cb0513          	add	x10,x22,1564 # 1161c <__clzsi2+0xa30>
    3c38:	430000ef          	jal	4068 <print>
    3c3c:	12c00513          	li	x10,300
    3c40:	0e1000ef          	jal	4520 <delay>
    3c44:	00012623          	sw	x0,12(x2)
    3c48:	00100493          	li	x9,1
    3c4c:	00c00413          	li	x8,12
    3c50:	00200a13          	li	x20,2
    3c54:	02400993          	li	x19,36
    3c58:	08400a93          	li	x21,132
    3c5c:	f49ff06f          	j	3ba4 <main_pacman+0x7c>
    3c60:	00100713          	li	x14,1
    3c64:	f6e798e3          	bne	x15,x14,3bd4 <main_pacman+0xac>
    3c68:	00000513          	li	x10,0
    3c6c:	f00fd0ef          	jal	136c <menu_select_core>
    3c70:	f65ff06f          	j	3bd4 <main_pacman+0xac>

00003c74 <main>:
    3c74:	fb010113          	add	x2,x2,-80
    3c78:	04112623          	sw	x1,76(x2)
    3c7c:	04812423          	sw	x8,72(x2)
    3c80:	04912223          	sw	x9,68(x2)
    3c84:	05212023          	sw	x18,64(x2)
    3c88:	03312e23          	sw	x19,60(x2)
    3c8c:	03412c23          	sw	x20,56(x2)
    3c90:	03512a23          	sw	x21,52(x2)
    3c94:	03612823          	sw	x22,48(x2)
    3c98:	03712623          	sw	x23,44(x2)
    3c9c:	03812423          	sw	x24,40(x2)
    3ca0:	03912223          	sw	x25,36(x2)
    3ca4:	03a12023          	sw	x26,32(x2)
    3ca8:	01b12e23          	sw	x27,28(x2)
    3cac:	020007b7          	lui	x15,0x2000
    3cb0:	06078793          	add	x15,x15,96 # 2000060 <STACK_TOP+0x1f00060>
    3cb4:	0007a783          	lw	x15,0(x15)
    3cb8:	0001d437          	lui	x8,0x1d
    3cbc:	ecf42623          	sw	x15,-308(x8) # 1cecc <CORE_ID>
    3cc0:	00100513          	li	x10,1
    3cc4:	2b4000ef          	jal	3f78 <overlay>
    3cc8:	020007b7          	lui	x15,0x2000
    3ccc:	0bb00713          	li	x14,187
    3cd0:	00e7a823          	sw	x14,16(x15) # 2000010 <STACK_TOP+0x1f00010>
    3cd4:	020007b7          	lui	x15,0x2000
    3cd8:	1a07a023          	sw	x0,416(x15) # 20001a0 <STACK_TOP+0x1f001a0>
    3cdc:	0001d7b7          	lui	x15,0x1d
    3ce0:	eb57c703          	lbu	x14,-331(x15) # 1ceb5 <option_sys_type_is_pal>
    3ce4:	020007b7          	lui	x15,0x2000
    3ce8:	1ce7a023          	sw	x14,448(x15) # 20001c0 <STACK_TOP+0x1f001c0>
    3cec:	63c010ef          	jal	5328 <sd_init>
    3cf0:	06400513          	li	x10,100
    3cf4:	02d000ef          	jal	4520 <delay>
    3cf8:	ecc42583          	lw	x11,-308(x8)
    3cfc:	00011537          	lui	x10,0x11
    3d00:	69050513          	add	x10,x10,1680 # 11690 <__clzsi2+0xaa4>
    3d04:	7d8000ef          	jal	44dc <uart_printf>
    3d08:	0001a4b7          	lui	x9,0x1a
    3d0c:	1dc48493          	add	x9,x9,476 # 1a1dc <fs>
    3d10:	00011937          	lui	x18,0x11
    3d14:	000119b7          	lui	x19,0x11
    3d18:	0100006f          	j	3d28 <main+0xb4>
    3d1c:	00100593          	li	x11,1
    3d20:	6a098513          	add	x10,x19,1696 # 116a0 <__clzsi2+0xab4>
    3d24:	ed4fc0ef          	jal	3f8 <message>
    3d28:	0ff00413          	li	x8,255
    3d2c:	00000613          	li	x12,0
    3d30:	d8090593          	add	x11,x18,-640 # 10d80 <__clzsi2+0x194>
    3d34:	00048513          	mv	x10,x9
    3d38:	6a8060ef          	jal	a3e0 <f_mount>
    3d3c:	00050863          	beqz	x10,3d4c <main+0xd8>
    3d40:	fff40413          	add	x8,x8,-1
    3d44:	fe0414e3          	bnez	x8,3d2c <main+0xb8>
    3d48:	fd5ff06f          	j	3d1c <main+0xa8>
    3d4c:	af8fc0ef          	jal	44 <load_option>
    3d50:	00200793          	li	x15,2
    3d54:	02f50c63          	beq	x10,x15,3d8c <main+0x118>
    3d58:	0001d7b7          	lui	x15,0x1d
    3d5c:	ecc7a783          	lw	x15,-308(x15) # 1cecc <CORE_ID>
    3d60:	04078263          	beqz	x15,3da4 <main+0x130>
    3d64:	00400713          	li	x14,4
    3d68:	04e78063          	beq	x15,x14,3da8 <main+0x134>
    3d6c:	0001db37          	lui	x22,0x1d
    3d70:	00011db7          	lui	x27,0x11
    3d74:	00012bb7          	lui	x23,0x12
    3d78:	924b8b93          	add	x23,x23,-1756 # 11924 <__clzsi2+0xd38>
    3d7c:	00011d37          	lui	x26,0x11
    3d80:	00011cb7          	lui	x25,0x11
    3d84:	00011c37          	lui	x24,0x11
    3d88:	14c0006f          	j	3ed4 <main+0x260>
    3d8c:	6c0000ef          	jal	444c <clear>
    3d90:	00100593          	li	x11,1
    3d94:	00011537          	lui	x10,0x11
    3d98:	6c450513          	add	x10,x10,1732 # 116c4 <__clzsi2+0xad8>
    3d9c:	e5cfc0ef          	jal	3f8 <message>
    3da0:	fb9ff06f          	j	3d58 <main+0xe4>
    3da4:	c49ff0ef          	jal	39ec <main_bare_os>
    3da8:	d81ff0ef          	jal	3b28 <main_pacman>
    3dac:	00011537          	lui	x10,0x11
    3db0:	5cc50513          	add	x10,x10,1484 # 115cc <__clzsi2+0x9e0>
    3db4:	2b4000ef          	jal	4068 <print>
    3db8:	00c00593          	li	x11,12
    3dbc:	00200513          	li	x10,2
    3dc0:	1a4000ef          	jal	3f64 <cursor>
    3dc4:	00011537          	lui	x10,0x11
    3dc8:	66450513          	add	x10,x10,1636 # 11664 <__clzsi2+0xa78>
    3dcc:	29c000ef          	jal	4068 <print>
    3dd0:	00d00593          	li	x11,13
    3dd4:	00200513          	li	x10,2
    3dd8:	18c000ef          	jal	3f64 <cursor>
    3ddc:	00011537          	lui	x10,0x11
    3de0:	68050513          	add	x10,x10,1664 # 11680 <__clzsi2+0xa94>
    3de4:	284000ef          	jal	4068 <print>
    3de8:	00e00593          	li	x11,14
    3dec:	00200513          	li	x10,2
    3df0:	174000ef          	jal	3f64 <cursor>
    3df4:	00011537          	lui	x10,0x11
    3df8:	76050513          	add	x10,x10,1888 # 11760 <__clzsi2+0xb74>
    3dfc:	26c000ef          	jal	4068 <print>
    3e00:	01000593          	li	x11,16
    3e04:	00200513          	li	x10,2
    3e08:	15c000ef          	jal	3f64 <cursor>
    3e0c:	00011537          	lui	x10,0x11
    3e10:	61050513          	add	x10,x10,1552 # 11610 <__clzsi2+0xa24>
    3e14:	254000ef          	jal	4068 <print>
    3e18:	00011537          	lui	x10,0x11
    3e1c:	61c50513          	add	x10,x10,1564 # 1161c <__clzsi2+0xa30>
    3e20:	248000ef          	jal	4068 <print>
    3e24:	12c00513          	li	x10,300
    3e28:	6f8000ef          	jal	4520 <delay>
    3e2c:	00012423          	sw	x0,8(x2)
    3e30:	0001d937          	lui	x18,0x1d
    3e34:	00100493          	li	x9,1
    3e38:	00c00413          	li	x8,12
    3e3c:	00200a13          	li	x20,2
    3e40:	02400993          	li	x19,36
    3e44:	08400a93          	li	x21,132
    3e48:	0580006f          	j	3ea0 <main+0x22c>
    3e4c:	000117b7          	lui	x15,0x11
    3e50:	6ec78513          	add	x10,x15,1772 # 116ec <__clzsi2+0xb00>
    3e54:	214000ef          	jal	4068 <print>
    3e58:	f61ff06f          	j	3db8 <main+0x144>
    3e5c:	708c0513          	add	x10,x24,1800 # 11708 <__clzsi2+0xb1c>
    3e60:	208000ef          	jal	4068 <print>
    3e64:	f55ff06f          	j	3db8 <main+0x144>
    3e68:	724c8513          	add	x10,x25,1828 # 11724 <__clzsi2+0xb38>
    3e6c:	1fc000ef          	jal	4068 <print>
    3e70:	f49ff06f          	j	3db8 <main+0x144>
    3e74:	740d0513          	add	x10,x26,1856 # 11740 <__clzsi2+0xb54>
    3e78:	1f0000ef          	jal	4068 <print>
    3e7c:	f3dff06f          	j	3db8 <main+0x144>
    3e80:	5e8d8513          	add	x10,x27,1512 # 115e8 <__clzsi2+0x9fc>
    3e84:	1e4000ef          	jal	4068 <print>
    3e88:	f31ff06f          	j	3db8 <main+0x144>
    3e8c:	00810613          	add	x12,x2,8
    3e90:	00300593          	li	x11,3
    3e94:	00040513          	mv	x10,x8
    3e98:	6cc000ef          	jal	4564 <joy_choice>
    3e9c:	02950063          	beq	x10,x9,3ebc <main+0x248>
    3ea0:	ebc92783          	lw	x15,-324(x18) # 1cebc <option_osd_key>
    3ea4:	00040693          	mv	x13,x8
    3ea8:	fe9782e3          	beq	x15,x9,3e8c <main+0x218>
    3eac:	00098693          	mv	x13,x19
    3eb0:	fd479ee3          	bne	x15,x20,3e8c <main+0x218>
    3eb4:	000a8693          	mv	x13,x21
    3eb8:	fd5ff06f          	j	3e8c <main+0x218>
    3ebc:	00812783          	lw	x15,8(x2)
    3ec0:	04079063          	bnez	x15,3f00 <main+0x28c>
    3ec4:	12c00513          	li	x10,300
    3ec8:	658000ef          	jal	4520 <delay>
    3ecc:	00c10513          	add	x10,x2,12
    3ed0:	d58ff0ef          	jal	3428 <menu_loadrom>
    3ed4:	578000ef          	jal	444c <clear>
    3ed8:	00a00593          	li	x11,10
    3edc:	00200513          	li	x10,2
    3ee0:	084000ef          	jal	3f64 <cursor>
    3ee4:	eccb2703          	lw	x14,-308(x22) # 1cecc <CORE_ID>
    3ee8:	00400793          	li	x15,4
    3eec:	f8e7eae3          	bltu	x15,x14,3e80 <main+0x20c>
    3ef0:	00271793          	sll	x15,x14,0x2
    3ef4:	017787b3          	add	x15,x15,x23
    3ef8:	0007a783          	lw	x15,0(x15)
    3efc:	00078067          	jr	x15
    3f00:	00100713          	li	x14,1
    3f04:	02e78063          	beq	x15,x14,3f24 <main+0x2b0>
    3f08:	00200713          	li	x14,2
    3f0c:	02e78263          	beq	x15,x14,3f30 <main+0x2bc>
    3f10:	00300713          	li	x14,3
    3f14:	fce790e3          	bne	x15,x14,3ed4 <main+0x260>
    3f18:	00100513          	li	x10,1
    3f1c:	c50fd0ef          	jal	136c <menu_select_core>
    3f20:	fb5ff06f          	j	3ed4 <main+0x260>
    3f24:	00000513          	li	x10,0
    3f28:	c44fd0ef          	jal	136c <menu_select_core>
    3f2c:	fa9ff06f          	j	3ed4 <main+0x260>
    3f30:	12c00513          	li	x10,300
    3f34:	5ec000ef          	jal	4520 <delay>
    3f38:	eccb2783          	lw	x15,-308(x22)
    3f3c:	00100713          	li	x14,1
    3f40:	00e78a63          	beq	x15,x14,3f54 <main+0x2e0>
    3f44:	00200713          	li	x14,2
    3f48:	00e78a63          	beq	x15,x14,3f5c <main+0x2e8>
    3f4c:	fddfd0ef          	jal	1f28 <menu_options>
    3f50:	f85ff06f          	j	3ed4 <main+0x260>
    3f54:	addfe0ef          	jal	2a30 <menu_options_nes>
    3f58:	f7dff06f          	j	3ed4 <main+0x260>
    3f5c:	fcdfd0ef          	jal	1f28 <menu_options>
    3f60:	f75ff06f          	j	3ed4 <main+0x260>

00003f64 <cursor>:
    3f64:	0001d7b7          	lui	x15,0x1d
    3f68:	eca7ac23          	sw	x10,-296(x15) # 1ced8 <curx>
    3f6c:	0001d7b7          	lui	x15,0x1d
    3f70:	ecb7aa23          	sw	x11,-300(x15) # 1ced4 <cury>
    3f74:	00008067          	ret

00003f78 <overlay>:
    3f78:	00050e63          	beqz	x10,3f94 <overlay+0x1c>
    3f7c:	020007b7          	lui	x15,0x2000
    3f80:	01000737          	lui	x14,0x1000
    3f84:	00e7a023          	sw	x14,0(x15) # 2000000 <STACK_TOP+0x1f00000>
    3f88:	0001d7b7          	lui	x15,0x1d
    3f8c:	eca7a823          	sw	x10,-304(x15) # 1ced0 <_overlay_status>
    3f90:	00008067          	ret
    3f94:	020007b7          	lui	x15,0x2000
    3f98:	00f7a023          	sw	x15,0(x15) # 2000000 <STACK_TOP+0x1f00000>
    3f9c:	fedff06f          	j	3f88 <overlay+0x10>

00003fa0 <overlay_status>:
    3fa0:	0001d7b7          	lui	x15,0x1d
    3fa4:	ed07a503          	lw	x10,-304(x15) # 1ced0 <_overlay_status>
    3fa8:	00008067          	ret

00003fac <putchar>:
    3fac:	0001d7b7          	lui	x15,0x1d
    3fb0:	ed87a783          	lw	x15,-296(x15) # 1ced8 <curx>
    3fb4:	01f00713          	li	x14,31
    3fb8:	04f76663          	bltu	x14,x15,4004 <putchar+0x58>
    3fbc:	0001d737          	lui	x14,0x1d
    3fc0:	ed472703          	lw	x14,-300(x14) # 1ced4 <cury>
    3fc4:	01b00693          	li	x13,27
    3fc8:	02e6ee63          	bltu	x13,x14,4004 <putchar+0x58>
    3fcc:	01079793          	sll	x15,x15,0x10
    3fd0:	00871713          	sll	x14,x14,0x8
    3fd4:	00e787b3          	add	x15,x15,x14
    3fd8:	00a787b3          	add	x15,x15,x10
    3fdc:	02000737          	lui	x14,0x2000
    3fe0:	00f72023          	sw	x15,0(x14) # 2000000 <STACK_TOP+0x1f00000>
    3fe4:	fe050793          	add	x15,x10,-32
    3fe8:	05f00713          	li	x14,95
    3fec:	00f76c63          	bltu	x14,x15,4004 <putchar+0x58>
    3ff0:	0001d737          	lui	x14,0x1d
    3ff4:	ed872783          	lw	x15,-296(x14) # 1ced8 <curx>
    3ff8:	00178793          	add	x15,x15,1
    3ffc:	ecf72c23          	sw	x15,-296(x14)
    4000:	00008067          	ret
    4004:	00a00793          	li	x15,10
    4008:	00f50463          	beq	x10,x15,4010 <putchar+0x64>
    400c:	00008067          	ret
    4010:	0001d7b7          	lui	x15,0x1d
    4014:	00200713          	li	x14,2
    4018:	ece7ac23          	sw	x14,-296(x15) # 1ced8 <curx>
    401c:	0001d737          	lui	x14,0x1d
    4020:	ed472783          	lw	x15,-300(x14) # 1ced4 <cury>
    4024:	00178793          	add	x15,x15,1
    4028:	ecf72a23          	sw	x15,-300(x14)
    402c:	00008067          	ret

00004030 <_putchar>:
    4030:	ff010113          	add	x2,x2,-16
    4034:	00112623          	sw	x1,12(x2)
    4038:	00812423          	sw	x8,8(x2)
    403c:	00050413          	mv	x8,x10
    4040:	02058063          	beqz	x11,4060 <_putchar+0x30>
    4044:	020007b7          	lui	x15,0x2000
    4048:	00a7aa23          	sw	x10,20(x15) # 2000014 <STACK_TOP+0x1f00014>
    404c:	00040513          	mv	x10,x8
    4050:	00c12083          	lw	x1,12(x2)
    4054:	00812403          	lw	x8,8(x2)
    4058:	01010113          	add	x2,x2,16
    405c:	00008067          	ret
    4060:	f4dff0ef          	jal	3fac <putchar>
    4064:	fe9ff06f          	j	404c <_putchar+0x1c>

00004068 <print>:
    4068:	ff010113          	add	x2,x2,-16
    406c:	00112623          	sw	x1,12(x2)
    4070:	00812423          	sw	x8,8(x2)
    4074:	00050413          	mv	x8,x10
    4078:	00054503          	lbu	x10,0(x10)
    407c:	00050a63          	beqz	x10,4090 <print+0x28>
    4080:	00140413          	add	x8,x8,1
    4084:	f29ff0ef          	jal	3fac <putchar>
    4088:	00044503          	lbu	x10,0(x8)
    408c:	fe051ae3          	bnez	x10,4080 <print+0x18>
    4090:	00000513          	li	x10,0
    4094:	00c12083          	lw	x1,12(x2)
    4098:	00812403          	lw	x8,8(x2)
    409c:	01010113          	add	x2,x2,16
    40a0:	00008067          	ret

000040a4 <_print>:
    40a4:	00058663          	beqz	x11,40b0 <_print+0xc>
    40a8:	00000513          	li	x10,0
    40ac:	00008067          	ret
    40b0:	ff010113          	add	x2,x2,-16
    40b4:	00112623          	sw	x1,12(x2)
    40b8:	fb1ff0ef          	jal	4068 <print>
    40bc:	00000513          	li	x10,0
    40c0:	00c12083          	lw	x1,12(x2)
    40c4:	01010113          	add	x2,x2,16
    40c8:	00008067          	ret

000040cc <_print_hex_digits>:
    40cc:	fe010113          	add	x2,x2,-32
    40d0:	00112e23          	sw	x1,28(x2)
    40d4:	00812c23          	sw	x8,24(x2)
    40d8:	fff58413          	add	x8,x11,-1 # 6fffff <STACK_TOP+0x5fffff>
    40dc:	00241413          	sll	x8,x8,0x2
    40e0:	04044663          	bltz	x8,412c <_print_hex_digits+0x60>
    40e4:	00912a23          	sw	x9,20(x2)
    40e8:	01212823          	sw	x18,16(x2)
    40ec:	01312623          	sw	x19,12(x2)
    40f0:	00050493          	mv	x9,x10
    40f4:	00060913          	mv	x18,x12
    40f8:	000119b7          	lui	x19,0x11
    40fc:	76c98993          	add	x19,x19,1900 # 1176c <__clzsi2+0xb80>
    4100:	0084d7b3          	srl	x15,x9,x8
    4104:	00f7f793          	and	x15,x15,15
    4108:	00f987b3          	add	x15,x19,x15
    410c:	00090593          	mv	x11,x18
    4110:	0007c503          	lbu	x10,0(x15)
    4114:	f1dff0ef          	jal	4030 <_putchar>
    4118:	ffc40413          	add	x8,x8,-4
    411c:	fe0452e3          	bgez	x8,4100 <_print_hex_digits+0x34>
    4120:	01412483          	lw	x9,20(x2)
    4124:	01012903          	lw	x18,16(x2)
    4128:	00c12983          	lw	x19,12(x2)
    412c:	01c12083          	lw	x1,28(x2)
    4130:	01812403          	lw	x8,24(x2)
    4134:	02010113          	add	x2,x2,32
    4138:	00008067          	ret

0000413c <print_hex_digits>:
    413c:	ff010113          	add	x2,x2,-16
    4140:	00112623          	sw	x1,12(x2)
    4144:	00000613          	li	x12,0
    4148:	f85ff0ef          	jal	40cc <_print_hex_digits>
    414c:	00c12083          	lw	x1,12(x2)
    4150:	01010113          	add	x2,x2,16
    4154:	00008067          	ret

00004158 <uart_print_hex_digits>:
    4158:	ff010113          	add	x2,x2,-16
    415c:	00112623          	sw	x1,12(x2)
    4160:	00100613          	li	x12,1
    4164:	f69ff0ef          	jal	40cc <_print_hex_digits>
    4168:	00c12083          	lw	x1,12(x2)
    416c:	01010113          	add	x2,x2,16
    4170:	00008067          	ret

00004174 <_print_hex>:
    4174:	ff010113          	add	x2,x2,-16
    4178:	00112623          	sw	x1,12(x2)
    417c:	00058613          	mv	x12,x11
    4180:	00800593          	li	x11,8
    4184:	f49ff0ef          	jal	40cc <_print_hex_digits>
    4188:	00c12083          	lw	x1,12(x2)
    418c:	01010113          	add	x2,x2,16
    4190:	00008067          	ret

00004194 <print_hex>:
    4194:	ff010113          	add	x2,x2,-16
    4198:	00112623          	sw	x1,12(x2)
    419c:	00000593          	li	x11,0
    41a0:	fd5ff0ef          	jal	4174 <_print_hex>
    41a4:	00c12083          	lw	x1,12(x2)
    41a8:	01010113          	add	x2,x2,16
    41ac:	00008067          	ret

000041b0 <uart_print_hex>:
    41b0:	ff010113          	add	x2,x2,-16
    41b4:	00112623          	sw	x1,12(x2)
    41b8:	00100593          	li	x11,1
    41bc:	fb9ff0ef          	jal	4174 <_print_hex>
    41c0:	00c12083          	lw	x1,12(x2)
    41c4:	01010113          	add	x2,x2,16
    41c8:	00008067          	ret

000041cc <_print_dec>:
    41cc:	ee010113          	add	x2,x2,-288
    41d0:	10112e23          	sw	x1,284(x2)
    41d4:	10812c23          	sw	x8,280(x2)
    41d8:	10912a23          	sw	x9,276(x2)
    41dc:	11212823          	sw	x18,272(x2)
    41e0:	11312623          	sw	x19,268(x2)
    41e4:	00050413          	mv	x8,x10
    41e8:	00058913          	mv	x18,x11
    41ec:	00010493          	mv	x9,x2
    41f0:	00010993          	mv	x19,x2
    41f4:	04055063          	bgez	x10,4234 <_print_dec+0x68>
    41f8:	02d00513          	li	x10,45
    41fc:	e35ff0ef          	jal	4030 <_putchar>
    4200:	00090593          	mv	x11,x18
    4204:	40800533          	neg	x10,x8
    4208:	fc5ff0ef          	jal	41cc <_print_dec>
    420c:	04c0006f          	j	4258 <_print_dec+0x8c>
    4210:	00148493          	add	x9,x9,1
    4214:	00a00593          	li	x11,10
    4218:	00040513          	mv	x10,x8
    421c:	66c090ef          	jal	d888 <__modsi3>
    4220:	fea48fa3          	sb	x10,-1(x9)
    4224:	00a00593          	li	x11,10
    4228:	00040513          	mv	x10,x8
    422c:	5d8090ef          	jal	d804 <__divsi3>
    4230:	00050413          	mv	x8,x10
    4234:	fc041ee3          	bnez	x8,4210 <_print_dec+0x44>
    4238:	fd348ce3          	beq	x9,x19,4210 <_print_dec+0x44>
    423c:	00010413          	mv	x8,x2
    4240:	fff48493          	add	x9,x9,-1
    4244:	0004c503          	lbu	x10,0(x9)
    4248:	00090593          	mv	x11,x18
    424c:	03050513          	add	x10,x10,48
    4250:	de1ff0ef          	jal	4030 <_putchar>
    4254:	fe8496e3          	bne	x9,x8,4240 <_print_dec+0x74>
    4258:	11c12083          	lw	x1,284(x2)
    425c:	11812403          	lw	x8,280(x2)
    4260:	11412483          	lw	x9,276(x2)
    4264:	11012903          	lw	x18,272(x2)
    4268:	10c12983          	lw	x19,268(x2)
    426c:	12010113          	add	x2,x2,288
    4270:	00008067          	ret

00004274 <print_dec>:
    4274:	ff010113          	add	x2,x2,-16
    4278:	00112623          	sw	x1,12(x2)
    427c:	00000593          	li	x11,0
    4280:	f4dff0ef          	jal	41cc <_print_dec>
    4284:	00c12083          	lw	x1,12(x2)
    4288:	01010113          	add	x2,x2,16
    428c:	00008067          	ret

00004290 <uart_print_dec>:
    4290:	ff010113          	add	x2,x2,-16
    4294:	00112623          	sw	x1,12(x2)
    4298:	00100593          	li	x11,1
    429c:	f31ff0ef          	jal	41cc <_print_dec>
    42a0:	00c12083          	lw	x1,12(x2)
    42a4:	01010113          	add	x2,x2,16
    42a8:	00008067          	ret

000042ac <_printf>:
    42ac:	fe010113          	add	x2,x2,-32
    42b0:	00112e23          	sw	x1,28(x2)
    42b4:	00812c23          	sw	x8,24(x2)
    42b8:	00050413          	mv	x8,x10
    42bc:	00054503          	lbu	x10,0(x10)
    42c0:	12050a63          	beqz	x10,43f4 <_printf+0x148>
    42c4:	00912a23          	sw	x9,20(x2)
    42c8:	01212823          	sw	x18,16(x2)
    42cc:	01312623          	sw	x19,12(x2)
    42d0:	01412423          	sw	x20,8(x2)
    42d4:	01512223          	sw	x21,4(x2)
    42d8:	01612023          	sw	x22,0(x2)
    42dc:	00058913          	mv	x18,x11
    42e0:	00060993          	mv	x19,x12
    42e4:	02500a13          	li	x20,37
    42e8:	01600b13          	li	x22,22
    42ec:	00012ab7          	lui	x21,0x12
    42f0:	938a8a93          	add	x21,x21,-1736 # 11938 <__clzsi2+0xd4c>
    42f4:	0c00006f          	j	43b4 <_printf+0x108>
    42f8:	00490413          	add	x8,x18,4
    42fc:	00098593          	mv	x11,x19
    4300:	00092503          	lw	x10,0(x18)
    4304:	da1ff0ef          	jal	40a4 <_print>
    4308:	00040913          	mv	x18,x8
    430c:	09c0006f          	j	43a8 <_printf+0xfc>
    4310:	00490413          	add	x8,x18,4
    4314:	00098593          	mv	x11,x19
    4318:	00092503          	lw	x10,0(x18)
    431c:	e59ff0ef          	jal	4174 <_print_hex>
    4320:	00040913          	mv	x18,x8
    4324:	0840006f          	j	43a8 <_printf+0xfc>
    4328:	00490413          	add	x8,x18,4
    432c:	00098593          	mv	x11,x19
    4330:	00092503          	lw	x10,0(x18)
    4334:	e99ff0ef          	jal	41cc <_print_dec>
    4338:	00040913          	mv	x18,x8
    433c:	06c0006f          	j	43a8 <_printf+0xfc>
    4340:	00490413          	add	x8,x18,4
    4344:	00098593          	mv	x11,x19
    4348:	00092503          	lw	x10,0(x18)
    434c:	ce5ff0ef          	jal	4030 <_putchar>
    4350:	00040913          	mv	x18,x8
    4354:	0540006f          	j	43a8 <_printf+0xfc>
    4358:	00490413          	add	x8,x18,4
    435c:	00098613          	mv	x12,x19
    4360:	00200593          	li	x11,2
    4364:	00092503          	lw	x10,0(x18)
    4368:	d65ff0ef          	jal	40cc <_print_hex_digits>
    436c:	00040913          	mv	x18,x8
    4370:	0380006f          	j	43a8 <_printf+0xfc>
    4374:	00490413          	add	x8,x18,4
    4378:	00098613          	mv	x12,x19
    437c:	00400593          	li	x11,4
    4380:	00092503          	lw	x10,0(x18)
    4384:	d49ff0ef          	jal	40cc <_print_hex_digits>
    4388:	00040913          	mv	x18,x8
    438c:	01c0006f          	j	43a8 <_printf+0xfc>
    4390:	00098593          	mv	x11,x19
    4394:	c9dff0ef          	jal	4030 <_putchar>
    4398:	0100006f          	j	43a8 <_printf+0xfc>
    439c:	00098593          	mv	x11,x19
    43a0:	c91ff0ef          	jal	4030 <_putchar>
    43a4:	00040493          	mv	x9,x8
    43a8:	00148413          	add	x8,x9,1
    43ac:	0014c503          	lbu	x10,1(x9)
    43b0:	02050663          	beqz	x10,43dc <_printf+0x130>
    43b4:	ff4514e3          	bne	x10,x20,439c <_printf+0xf0>
    43b8:	00140493          	add	x9,x8,1
    43bc:	00144503          	lbu	x10,1(x8)
    43c0:	f9e50793          	add	x15,x10,-98
    43c4:	0ff7f713          	zext.b	x14,x15
    43c8:	fceb64e3          	bltu	x22,x14,4390 <_printf+0xe4>
    43cc:	00271793          	sll	x15,x14,0x2
    43d0:	015787b3          	add	x15,x15,x21
    43d4:	0007a783          	lw	x15,0(x15)
    43d8:	00078067          	jr	x15
    43dc:	01412483          	lw	x9,20(x2)
    43e0:	01012903          	lw	x18,16(x2)
    43e4:	00c12983          	lw	x19,12(x2)
    43e8:	00812a03          	lw	x20,8(x2)
    43ec:	00412a83          	lw	x21,4(x2)
    43f0:	00012b03          	lw	x22,0(x2)
    43f4:	00000513          	li	x10,0
    43f8:	01c12083          	lw	x1,28(x2)
    43fc:	01812403          	lw	x8,24(x2)
    4400:	02010113          	add	x2,x2,32
    4404:	00008067          	ret

00004408 <printf>:
    4408:	fc010113          	add	x2,x2,-64
    440c:	00112e23          	sw	x1,28(x2)
    4410:	02b12223          	sw	x11,36(x2)
    4414:	02c12423          	sw	x12,40(x2)
    4418:	02d12623          	sw	x13,44(x2)
    441c:	02e12823          	sw	x14,48(x2)
    4420:	02f12a23          	sw	x15,52(x2)
    4424:	03012c23          	sw	x16,56(x2)
    4428:	03112e23          	sw	x17,60(x2)
    442c:	02410593          	add	x11,x2,36
    4430:	00b12623          	sw	x11,12(x2)
    4434:	00000613          	li	x12,0
    4438:	e75ff0ef          	jal	42ac <_printf>
    443c:	00000513          	li	x10,0
    4440:	01c12083          	lw	x1,28(x2)
    4444:	04010113          	add	x2,x2,64
    4448:	00008067          	ret

0000444c <clear>:
    444c:	fe010113          	add	x2,x2,-32
    4450:	00112e23          	sw	x1,28(x2)
    4454:	00812c23          	sw	x8,24(x2)
    4458:	00912a23          	sw	x9,20(x2)
    445c:	01212823          	sw	x18,16(x2)
    4460:	01312623          	sw	x19,12(x2)
    4464:	01412423          	sw	x20,8(x2)
    4468:	00000493          	li	x9,0
    446c:	0001da37          	lui	x20,0x1d
    4470:	0001d9b7          	lui	x19,0x1d
    4474:	01c00913          	li	x18,28
    4478:	ec0a2c23          	sw	x0,-296(x20) # 1ced8 <curx>
    447c:	ec99aa23          	sw	x9,-300(x19) # 1ced4 <cury>
    4480:	02000413          	li	x8,32
    4484:	02000513          	li	x10,32
    4488:	b25ff0ef          	jal	3fac <putchar>
    448c:	fff40413          	add	x8,x8,-1
    4490:	fe041ae3          	bnez	x8,4484 <clear+0x38>
    4494:	00148493          	add	x9,x9,1
    4498:	ff2490e3          	bne	x9,x18,4478 <clear+0x2c>
    449c:	01c12083          	lw	x1,28(x2)
    44a0:	01812403          	lw	x8,24(x2)
    44a4:	01412483          	lw	x9,20(x2)
    44a8:	01012903          	lw	x18,16(x2)
    44ac:	00c12983          	lw	x19,12(x2)
    44b0:	00812a03          	lw	x20,8(x2)
    44b4:	02010113          	add	x2,x2,32
    44b8:	00008067          	ret

000044bc <uart_init>:
    44bc:	020007b7          	lui	x15,0x2000
    44c0:	00a7a823          	sw	x10,16(x15) # 2000010 <STACK_TOP+0x1f00010>
    44c4:	00008067          	ret

000044c8 <uart_putchar>:
    44c8:	020007b7          	lui	x15,0x2000
    44cc:	00a7aa23          	sw	x10,20(x15) # 2000014 <STACK_TOP+0x1f00014>
    44d0:	00008067          	ret

000044d4 <uart_print>:
    44d4:	00000513          	li	x10,0
    44d8:	00008067          	ret

000044dc <uart_printf>:
    44dc:	fc010113          	add	x2,x2,-64
    44e0:	00112e23          	sw	x1,28(x2)
    44e4:	02b12223          	sw	x11,36(x2)
    44e8:	02c12423          	sw	x12,40(x2)
    44ec:	02d12623          	sw	x13,44(x2)
    44f0:	02e12823          	sw	x14,48(x2)
    44f4:	02f12a23          	sw	x15,52(x2)
    44f8:	03012c23          	sw	x16,56(x2)
    44fc:	03112e23          	sw	x17,60(x2)
    4500:	02410593          	add	x11,x2,36
    4504:	00b12623          	sw	x11,12(x2)
    4508:	00100613          	li	x12,1
    450c:	da1ff0ef          	jal	42ac <_printf>
    4510:	00000513          	li	x10,0
    4514:	01c12083          	lw	x1,28(x2)
    4518:	04010113          	add	x2,x2,64
    451c:	00008067          	ret

00004520 <delay>:
    4520:	020007b7          	lui	x15,0x2000
    4524:	0507a683          	lw	x13,80(x15) # 2000050 <STACK_TOP+0x1f00050>
    4528:	05078793          	add	x15,x15,80
    452c:	00078713          	mv	x14,x15
    4530:	00072783          	lw	x15,0(x14)
    4534:	40d787b3          	sub	x15,x15,x13
    4538:	fea7ece3          	bltu	x15,x10,4530 <delay+0x10>
    453c:	00008067          	ret

00004540 <joy_get>:
    4540:	020007b7          	lui	x15,0x2000
    4544:	04078793          	add	x15,x15,64 # 2000040 <STACK_TOP+0x1f00040>
    4548:	0007a783          	lw	x15,0(x15)
    454c:	01079713          	sll	x14,x15,0x10
    4550:	01075713          	srl	x14,x14,0x10
    4554:	00e52023          	sw	x14,0(x10)
    4558:	0107d793          	srl	x15,x15,0x10
    455c:	00f5a023          	sw	x15,0(x11)
    4560:	00008067          	ret

00004564 <joy_choice>:
    4564:	fd010113          	add	x2,x2,-48
    4568:	02112623          	sw	x1,44(x2)
    456c:	02812423          	sw	x8,40(x2)
    4570:	02912223          	sw	x9,36(x2)
    4574:	03212023          	sw	x18,32(x2)
    4578:	01312e23          	sw	x19,28(x2)
    457c:	01412c23          	sw	x20,24(x2)
    4580:	01512a23          	sw	x21,20(x2)
    4584:	00050a13          	mv	x20,x10
    4588:	00058913          	mv	x18,x11
    458c:	00060413          	mv	x8,x12
    4590:	00068493          	mv	x9,x13
    4594:	00062783          	lw	x15,0(x12)
    4598:	0007c463          	bltz	x15,45a0 <joy_choice+0x3c>
    459c:	00b7c463          	blt	x15,x11,45a4 <joy_choice+0x40>
    45a0:	00042023          	sw	x0,0(x8)
    45a4:	00042a83          	lw	x21,0(x8)
    45a8:	00810593          	add	x11,x2,8
    45ac:	00c10513          	add	x10,x2,12
    45b0:	f91ff0ef          	jal	4540 <joy_get>
    45b4:	00c12983          	lw	x19,12(x2)
    45b8:	0a998c63          	beq	x19,x9,4670 <joy_choice+0x10c>
    45bc:	00812783          	lw	x15,8(x2)
    45c0:	0a978863          	beq	x15,x9,4670 <joy_choice+0x10c>
    45c4:	b30ff0ef          	jal	38f4 <backup_process>
    45c8:	0001d7b7          	lui	x15,0x1d
    45cc:	ed07a483          	lw	x9,-304(x15) # 1ced0 <_overlay_status>
    45d0:	06048c63          	beqz	x9,4648 <joy_choice+0xe4>
    45d4:	00812783          	lw	x15,8(x2)
    45d8:	00f9e733          	or	x14,x19,x15
    45dc:	01077693          	and	x13,x14,16
    45e0:	00068a63          	beqz	x13,45f4 <joy_choice+0x90>
    45e4:	00042683          	lw	x13,0(x8)
    45e8:	00d05663          	blez	x13,45f4 <joy_choice+0x90>
    45ec:	fff68693          	add	x13,x13,-1
    45f0:	00d42023          	sw	x13,0(x8)
    45f4:	02077693          	and	x13,x14,32
    45f8:	00068c63          	beqz	x13,4610 <joy_choice+0xac>
    45fc:	00042683          	lw	x13,0(x8)
    4600:	fff90913          	add	x18,x18,-1
    4604:	0126d663          	bge	x13,x18,4610 <joy_choice+0xac>
    4608:	00168693          	add	x13,x13,1
    460c:	00d42023          	sw	x13,0(x8)
    4610:	0029f993          	and	x19,x19,2
    4614:	00400493          	li	x9,4
    4618:	02099863          	bnez	x19,4648 <joy_choice+0xe4>
    461c:	0027f793          	and	x15,x15,2
    4620:	02079463          	bnez	x15,4648 <joy_choice+0xe4>
    4624:	04077793          	and	x15,x14,64
    4628:	00300493          	li	x9,3
    462c:	00079e63          	bnez	x15,4648 <joy_choice+0xe4>
    4630:	08077793          	and	x15,x14,128
    4634:	00200493          	li	x9,2
    4638:	00079863          	bnez	x15,4648 <joy_choice+0xe4>
    463c:	10177493          	and	x9,x14,257
    4640:	04048663          	beqz	x9,468c <joy_choice+0x128>
    4644:	00100493          	li	x9,1
    4648:	00048513          	mv	x10,x9
    464c:	02c12083          	lw	x1,44(x2)
    4650:	02812403          	lw	x8,40(x2)
    4654:	02412483          	lw	x9,36(x2)
    4658:	02012903          	lw	x18,32(x2)
    465c:	01c12983          	lw	x19,28(x2)
    4660:	01812a03          	lw	x20,24(x2)
    4664:	01412a83          	lw	x21,20(x2)
    4668:	03010113          	add	x2,x2,48
    466c:	00008067          	ret
    4670:	0001d7b7          	lui	x15,0x1d
    4674:	ed07a503          	lw	x10,-304(x15) # 1ced0 <_overlay_status>
    4678:	00153513          	seqz	x10,x10
    467c:	8fdff0ef          	jal	3f78 <overlay>
    4680:	12c00513          	li	x10,300
    4684:	e9dff0ef          	jal	4520 <delay>
    4688:	f3dff06f          	j	45c4 <joy_choice+0x60>
    468c:	00042783          	lw	x15,0(x8)
    4690:	00fa07b3          	add	x15,x20,x15
    4694:	0001d737          	lui	x14,0x1d
    4698:	ec072c23          	sw	x0,-296(x14) # 1ced8 <curx>
    469c:	0001d737          	lui	x14,0x1d
    46a0:	ecf72a23          	sw	x15,-300(x14) # 1ced4 <cury>
    46a4:	00011537          	lui	x10,0x11
    46a8:	78050513          	add	x10,x10,1920 # 11780 <__clzsi2+0xb94>
    46ac:	9bdff0ef          	jal	4068 <print>
    46b0:	00042783          	lw	x15,0(x8)
    46b4:	f9578ae3          	beq	x15,x21,4648 <joy_choice+0xe4>
    46b8:	0001d7b7          	lui	x15,0x1d
    46bc:	ec07ac23          	sw	x0,-296(x15) # 1ced8 <curx>
    46c0:	014a8ab3          	add	x21,x21,x20
    46c4:	0001d7b7          	lui	x15,0x1d
    46c8:	ed57aa23          	sw	x21,-300(x15) # 1ced4 <cury>
    46cc:	00012537          	lui	x10,0x12
    46d0:	82c50513          	add	x10,x10,-2004 # 1182c <__clzsi2+0xc40>
    46d4:	995ff0ef          	jal	4068 <print>
    46d8:	06400513          	li	x10,100
    46dc:	e45ff0ef          	jal	4520 <delay>
    46e0:	f69ff06f          	j	4648 <joy_choice+0xe4>

000046e4 <snes_ctrl>:
    46e4:	020007b7          	lui	x15,0x2000
    46e8:	02a7a823          	sw	x10,48(x15) # 2000030 <STACK_TOP+0x1f00030>
    46ec:	00008067          	ret

000046f0 <snes_data>:
    46f0:	020007b7          	lui	x15,0x2000
    46f4:	02a7aa23          	sw	x10,52(x15) # 2000034 <STACK_TOP+0x1f00034>
    46f8:	00008067          	ret

000046fc <memcpy>:
    46fc:	00a5e733          	or	x14,x11,x10
    4700:	00377713          	and	x14,x14,3
    4704:	00050793          	mv	x15,x10
    4708:	02070263          	beqz	x14,472c <memcpy+0x30>
    470c:	00c786b3          	add	x13,x15,x12
    4710:	06060263          	beqz	x12,4774 <memcpy+0x78>
    4714:	00158593          	add	x11,x11,1
    4718:	00178793          	add	x15,x15,1
    471c:	fff5c703          	lbu	x14,-1(x11)
    4720:	fee78fa3          	sb	x14,-1(x15)
    4724:	fef698e3          	bne	x13,x15,4714 <memcpy+0x18>
    4728:	00008067          	ret
    472c:	00300793          	li	x15,3
    4730:	02c7fe63          	bgeu	x15,x12,476c <memcpy+0x70>
    4734:	ffc60893          	add	x17,x12,-4
    4738:	ffc8f893          	and	x17,x17,-4
    473c:	00488893          	add	x17,x17,4
    4740:	011507b3          	add	x15,x10,x17
    4744:	00058693          	mv	x13,x11
    4748:	00050713          	mv	x14,x10
    474c:	00468693          	add	x13,x13,4
    4750:	00470713          	add	x14,x14,4
    4754:	ffc6a803          	lw	x16,-4(x13)
    4758:	ff072e23          	sw	x16,-4(x14)
    475c:	fef718e3          	bne	x14,x15,474c <memcpy+0x50>
    4760:	011585b3          	add	x11,x11,x17
    4764:	00367613          	and	x12,x12,3
    4768:	fa5ff06f          	j	470c <memcpy+0x10>
    476c:	00050793          	mv	x15,x10
    4770:	f9dff06f          	j	470c <memcpy+0x10>
    4774:	00008067          	ret

00004778 <memset>:
    4778:	00060c63          	beqz	x12,4790 <memset+0x18>
    477c:	00c50633          	add	x12,x10,x12
    4780:	00050793          	mv	x15,x10
    4784:	00b78023          	sb	x11,0(x15)
    4788:	00178793          	add	x15,x15,1
    478c:	fef61ce3          	bne	x12,x15,4784 <memset+0xc>
    4790:	00008067          	ret

00004794 <memcmp>:
    4794:	02060c63          	beqz	x12,47cc <memcmp+0x38>
    4798:	00c50633          	add	x12,x10,x12
    479c:	00054703          	lbu	x14,0(x10)
    47a0:	0005c783          	lbu	x15,0(x11)
    47a4:	00f71c63          	bne	x14,x15,47bc <memcmp+0x28>
    47a8:	00150513          	add	x10,x10,1
    47ac:	00158593          	add	x11,x11,1
    47b0:	fea616e3          	bne	x12,x10,479c <memcmp+0x8>
    47b4:	00000513          	li	x10,0
    47b8:	00008067          	ret
    47bc:	00100513          	li	x10,1
    47c0:	00f77863          	bgeu	x14,x15,47d0 <memcmp+0x3c>
    47c4:	fff00513          	li	x10,-1
    47c8:	00008067          	ret
    47cc:	00000513          	li	x10,0
    47d0:	00008067          	ret

000047d4 <strcmp>:
    47d4:	00054783          	lbu	x15,0(x10)
    47d8:	00078e63          	beqz	x15,47f4 <strcmp+0x20>
    47dc:	0005c703          	lbu	x14,0(x11)
    47e0:	00f71a63          	bne	x14,x15,47f4 <strcmp+0x20>
    47e4:	00150513          	add	x10,x10,1
    47e8:	00158593          	add	x11,x11,1
    47ec:	00054783          	lbu	x15,0(x10)
    47f0:	fe0796e3          	bnez	x15,47dc <strcmp+0x8>
    47f4:	0005c503          	lbu	x10,0(x11)
    47f8:	40a78533          	sub	x10,x15,x10
    47fc:	00008067          	ret

00004800 <strcasecmp>:
    4800:	00054783          	lbu	x15,0(x10)
    4804:	01900613          	li	x12,25
    4808:	02079263          	bnez	x15,482c <strcasecmp+0x2c>
    480c:	0005c503          	lbu	x10,0(x11)
    4810:	40a78533          	sub	x10,x15,x10
    4814:	00008067          	ret
    4818:	fed71ae3          	bne	x14,x13,480c <strcasecmp+0xc>
    481c:	00150513          	add	x10,x10,1
    4820:	00158593          	add	x11,x11,1
    4824:	00054783          	lbu	x15,0(x10)
    4828:	fe0782e3          	beqz	x15,480c <strcasecmp+0xc>
    482c:	00078693          	mv	x13,x15
    4830:	fbf78713          	add	x14,x15,-65
    4834:	00e66463          	bltu	x12,x14,483c <strcasecmp+0x3c>
    4838:	02078693          	add	x13,x15,32
    483c:	0005c703          	lbu	x14,0(x11)
    4840:	fbf70813          	add	x16,x14,-65
    4844:	fd066ae3          	bltu	x12,x16,4818 <strcasecmp+0x18>
    4848:	02070713          	add	x14,x14,32
    484c:	fcdff06f          	j	4818 <strcasecmp+0x18>

00004850 <strstr>:
    4850:	0005c803          	lbu	x16,0(x11)
    4854:	00080863          	beqz	x16,4864 <strstr+0x14>
    4858:	00054783          	lbu	x15,0(x10)
    485c:	00079c63          	bnez	x15,4874 <strstr+0x24>
    4860:	00000513          	li	x10,0
    4864:	00008067          	ret
    4868:	00150513          	add	x10,x10,1
    486c:	00054783          	lbu	x15,0(x10)
    4870:	02078663          	beqz	x15,489c <strstr+0x4c>
    4874:	fef81ae3          	bne	x16,x15,4868 <strstr+0x18>
    4878:	00058793          	mv	x15,x11
    487c:	00050693          	mv	x13,x10
    4880:	0007c703          	lbu	x14,0(x15)
    4884:	fe0700e3          	beqz	x14,4864 <strstr+0x14>
    4888:	00168693          	add	x13,x13,1
    488c:	00178793          	add	x15,x15,1
    4890:	fff6c603          	lbu	x12,-1(x13)
    4894:	fee606e3          	beq	x12,x14,4880 <strstr+0x30>
    4898:	fd1ff06f          	j	4868 <strstr+0x18>
    489c:	00000513          	li	x10,0
    48a0:	00008067          	ret

000048a4 <strcasestr>:
    48a4:	0005c703          	lbu	x14,0(x11)
    48a8:	08070e63          	beqz	x14,4944 <strcasestr+0xa0>
    48ac:	00054783          	lbu	x15,0(x10)
    48b0:	08078863          	beqz	x15,4940 <strcasestr+0x9c>
    48b4:	fbf70693          	add	x13,x14,-65
    48b8:	01a6b693          	sltiu	x13,x13,26
    48bc:	00070e13          	mv	x28,x14
    48c0:	00068463          	beqz	x13,48c8 <strcasestr+0x24>
    48c4:	02070e13          	add	x28,x14,32
    48c8:	01900893          	li	x17,25
    48cc:	0140006f          	j	48e0 <strcasestr+0x3c>
    48d0:	02ee0263          	beq	x28,x14,48f4 <strcasestr+0x50>
    48d4:	00150513          	add	x10,x10,1
    48d8:	00054783          	lbu	x15,0(x10)
    48dc:	04078e63          	beqz	x15,4938 <strcasestr+0x94>
    48e0:	00078713          	mv	x14,x15
    48e4:	fbf78693          	add	x13,x15,-65
    48e8:	fed8e4e3          	bltu	x17,x13,48d0 <strcasestr+0x2c>
    48ec:	02078713          	add	x14,x15,32
    48f0:	fe1ff06f          	j	48d0 <strcasestr+0x2c>
    48f4:	00058693          	mv	x13,x11
    48f8:	00050613          	mv	x12,x10
    48fc:	0080006f          	j	4904 <strcasestr+0x60>
    4900:	fce81ae3          	bne	x16,x14,48d4 <strcasestr+0x30>
    4904:	0006c783          	lbu	x15,0(x13)
    4908:	02078e63          	beqz	x15,4944 <strcasestr+0xa0>
    490c:	00160613          	add	x12,x12,1
    4910:	fff64703          	lbu	x14,-1(x12)
    4914:	fbf70813          	add	x16,x14,-65
    4918:	0108e463          	bltu	x17,x16,4920 <strcasestr+0x7c>
    491c:	02070713          	add	x14,x14,32
    4920:	00168693          	add	x13,x13,1
    4924:	00078813          	mv	x16,x15
    4928:	fbf78313          	add	x6,x15,-65
    492c:	fc68eae3          	bltu	x17,x6,4900 <strcasestr+0x5c>
    4930:	02078813          	add	x16,x15,32
    4934:	fcdff06f          	j	4900 <strcasestr+0x5c>
    4938:	00000513          	li	x10,0
    493c:	00008067          	ret
    4940:	00000513          	li	x10,0
    4944:	00008067          	ret

00004948 <strcat>:
    4948:	00054783          	lbu	x15,0(x10)
    494c:	02078663          	beqz	x15,4978 <strcat+0x30>
    4950:	00050793          	mv	x15,x10
    4954:	00178793          	add	x15,x15,1
    4958:	0007c703          	lbu	x14,0(x15)
    495c:	fe071ce3          	bnez	x14,4954 <strcat+0xc>
    4960:	00158593          	add	x11,x11,1
    4964:	00178793          	add	x15,x15,1
    4968:	fff5c703          	lbu	x14,-1(x11)
    496c:	fee78fa3          	sb	x14,-1(x15)
    4970:	fe0718e3          	bnez	x14,4960 <strcat+0x18>
    4974:	00008067          	ret
    4978:	00050793          	mv	x15,x10
    497c:	fe5ff06f          	j	4960 <strcat+0x18>

00004980 <strncat>:
    4980:	00054783          	lbu	x15,0(x10)
    4984:	06078063          	beqz	x15,49e4 <strncat+0x64>
    4988:	00000713          	li	x14,0
    498c:	00170713          	add	x14,x14,1
    4990:	00e507b3          	add	x15,x10,x14
    4994:	0007c783          	lbu	x15,0(x15)
    4998:	fe079ae3          	bnez	x15,498c <strncat+0xc>
    499c:	0005c803          	lbu	x16,0(x11)
    49a0:	04080663          	beqz	x16,49ec <strncat+0x6c>
    49a4:	04060863          	beqz	x12,49f4 <strncat+0x74>
    49a8:	00060893          	mv	x17,x12
    49ac:	00000793          	li	x15,0
    49b0:	00e786b3          	add	x13,x15,x14
    49b4:	00d506b3          	add	x13,x10,x13
    49b8:	01068023          	sb	x16,0(x13)
    49bc:	00178793          	add	x15,x15,1
    49c0:	00f586b3          	add	x13,x11,x15
    49c4:	0006c803          	lbu	x16,0(x13)
    49c8:	00080663          	beqz	x16,49d4 <strncat+0x54>
    49cc:	ff1792e3          	bne	x15,x17,49b0 <strncat+0x30>
    49d0:	00060793          	mv	x15,x12
    49d4:	00f507b3          	add	x15,x10,x15
    49d8:	00e787b3          	add	x15,x15,x14
    49dc:	00078023          	sb	x0,0(x15)
    49e0:	00008067          	ret
    49e4:	00000713          	li	x14,0
    49e8:	fb5ff06f          	j	499c <strncat+0x1c>
    49ec:	00000793          	li	x15,0
    49f0:	fe5ff06f          	j	49d4 <strncat+0x54>
    49f4:	00000793          	li	x15,0
    49f8:	fddff06f          	j	49d4 <strncat+0x54>

000049fc <strcpy>:
    49fc:	00050793          	mv	x15,x10
    4a00:	00158593          	add	x11,x11,1
    4a04:	00178793          	add	x15,x15,1
    4a08:	fff5c703          	lbu	x14,-1(x11)
    4a0c:	fee78fa3          	sb	x14,-1(x15)
    4a10:	fe0718e3          	bnez	x14,4a00 <strcpy+0x4>
    4a14:	00008067          	ret

00004a18 <strncpy>:
    4a18:	00c50633          	add	x12,x10,x12
    4a1c:	00050793          	mv	x15,x10
    4a20:	00c78c63          	beq	x15,x12,4a38 <strncpy+0x20>
    4a24:	00158593          	add	x11,x11,1
    4a28:	00178793          	add	x15,x15,1
    4a2c:	fff5c703          	lbu	x14,-1(x11)
    4a30:	fee78fa3          	sb	x14,-1(x15)
    4a34:	fe0716e3          	bnez	x14,4a20 <strncpy+0x8>
    4a38:	00008067          	ret

00004a3c <strchr>:
    4a3c:	00054783          	lbu	x15,0(x10)
    4a40:	00078e63          	beqz	x15,4a5c <strchr+0x20>
    4a44:	00b78e63          	beq	x15,x11,4a60 <strchr+0x24>
    4a48:	00150513          	add	x10,x10,1
    4a4c:	00054783          	lbu	x15,0(x10)
    4a50:	fe079ae3          	bnez	x15,4a44 <strchr+0x8>
    4a54:	00000513          	li	x10,0
    4a58:	00008067          	ret
    4a5c:	00000513          	li	x10,0
    4a60:	00008067          	ret

00004a64 <strrchr>:
    4a64:	00050793          	mv	x15,x10
    4a68:	00000513          	li	x10,0
    4a6c:	00c0006f          	j	4a78 <strrchr+0x14>
    4a70:	00178793          	add	x15,x15,1
    4a74:	00070a63          	beqz	x14,4a88 <strrchr+0x24>
    4a78:	0007c703          	lbu	x14,0(x15)
    4a7c:	feb71ae3          	bne	x14,x11,4a70 <strrchr+0xc>
    4a80:	00078513          	mv	x10,x15
    4a84:	fedff06f          	j	4a70 <strrchr+0xc>
    4a88:	00008067          	ret

00004a8c <strlen>:
    4a8c:	00050713          	mv	x14,x10
    4a90:	00054783          	lbu	x15,0(x10)
    4a94:	00078e63          	beqz	x15,4ab0 <strlen+0x24>
    4a98:	00000513          	li	x10,0
    4a9c:	00150513          	add	x10,x10,1
    4aa0:	00a707b3          	add	x15,x14,x10
    4aa4:	0007c783          	lbu	x15,0(x15)
    4aa8:	fe079ae3          	bnez	x15,4a9c <strlen+0x10>
    4aac:	00008067          	ret
    4ab0:	00000513          	li	x10,0
    4ab4:	00008067          	ret

00004ab8 <isspace>:
    4ab8:	ff750713          	add	x14,x10,-9
    4abc:	00400793          	li	x15,4
    4ac0:	00e7f863          	bgeu	x15,x14,4ad0 <isspace+0x18>
    4ac4:	fe050513          	add	x10,x10,-32
    4ac8:	00153513          	seqz	x10,x10
    4acc:	00008067          	ret
    4ad0:	00100513          	li	x10,1
    4ad4:	00008067          	ret

00004ad8 <trimwhitespace>:
    4ad8:	ff010113          	add	x2,x2,-16
    4adc:	00112623          	sw	x1,12(x2)
    4ae0:	00812423          	sw	x8,8(x2)
    4ae4:	00912223          	sw	x9,4(x2)
    4ae8:	00050413          	mv	x8,x10
    4aec:	0080006f          	j	4af4 <trimwhitespace+0x1c>
    4af0:	00140413          	add	x8,x8,1
    4af4:	00044483          	lbu	x9,0(x8)
    4af8:	00048513          	mv	x10,x9
    4afc:	fbdff0ef          	jal	4ab8 <isspace>
    4b00:	fe0518e3          	bnez	x10,4af0 <trimwhitespace+0x18>
    4b04:	00049e63          	bnez	x9,4b20 <trimwhitespace+0x48>
    4b08:	00040513          	mv	x10,x8
    4b0c:	00c12083          	lw	x1,12(x2)
    4b10:	00812403          	lw	x8,8(x2)
    4b14:	00412483          	lw	x9,4(x2)
    4b18:	01010113          	add	x2,x2,16
    4b1c:	00008067          	ret
    4b20:	00040513          	mv	x10,x8
    4b24:	f69ff0ef          	jal	4a8c <strlen>
    4b28:	fff50493          	add	x9,x10,-1
    4b2c:	009404b3          	add	x9,x8,x9
    4b30:	00947c63          	bgeu	x8,x9,4b48 <trimwhitespace+0x70>
    4b34:	0004c503          	lbu	x10,0(x9)
    4b38:	f81ff0ef          	jal	4ab8 <isspace>
    4b3c:	00050663          	beqz	x10,4b48 <trimwhitespace+0x70>
    4b40:	fff48493          	add	x9,x9,-1
    4b44:	fe9418e3          	bne	x8,x9,4b34 <trimwhitespace+0x5c>
    4b48:	000480a3          	sb	x0,1(x9)
    4b4c:	fbdff06f          	j	4b08 <trimwhitespace+0x30>

00004b50 <atoi>:
    4b50:	00050613          	mv	x12,x10
    4b54:	00054703          	lbu	x14,0(x10)
    4b58:	02000793          	li	x15,32
    4b5c:	0cf71463          	bne	x14,x15,4c24 <atoi+0xd4>
    4b60:	00000793          	li	x15,0
    4b64:	02000693          	li	x13,32
    4b68:	00178793          	add	x15,x15,1
    4b6c:	00f60733          	add	x14,x12,x15
    4b70:	00074703          	lbu	x14,0(x14)
    4b74:	fed70ae3          	beq	x14,x13,4b68 <atoi+0x18>
    4b78:	02d00693          	li	x13,45
    4b7c:	0cd70a63          	beq	x14,x13,4c50 <atoi+0x100>
    4b80:	02b00693          	li	x13,43
    4b84:	0ed70c63          	beq	x14,x13,4c7c <atoi+0x12c>
    4b88:	00f60733          	add	x14,x12,x15
    4b8c:	00074703          	lbu	x14,0(x14)
    4b90:	fd070693          	add	x13,x14,-48
    4b94:	0ff6f693          	zext.b	x13,x13
    4b98:	00900593          	li	x11,9
    4b9c:	00100313          	li	x6,1
    4ba0:	0ad5e463          	bltu	x11,x13,4c48 <atoi+0xf8>
    4ba4:	00000513          	li	x10,0
    4ba8:	00900893          	li	x17,9
    4bac:	0cccd5b7          	lui	x11,0xcccd
    4bb0:	ccc58593          	add	x11,x11,-820 # ccccccc <STACK_TOP+0xcbccccc>
    4bb4:	00251693          	sll	x13,x10,0x2
    4bb8:	00a686b3          	add	x13,x13,x10
    4bbc:	00169693          	sll	x13,x13,0x1
    4bc0:	00078813          	mv	x16,x15
    4bc4:	00178793          	add	x15,x15,1
    4bc8:	fd070713          	add	x14,x14,-48
    4bcc:	00d70533          	add	x10,x14,x13
    4bd0:	00f60733          	add	x14,x12,x15
    4bd4:	00074703          	lbu	x14,0(x14)
    4bd8:	fd070693          	add	x13,x14,-48
    4bdc:	0ff6f693          	zext.b	x13,x13
    4be0:	02d8ec63          	bltu	x17,x13,4c18 <atoi+0xc8>
    4be4:	04a5c463          	blt	x11,x10,4c2c <atoi+0xdc>
    4be8:	fcb516e3          	bne	x10,x11,4bb4 <atoi+0x64>
    4bec:	03700793          	li	x15,55
    4bf0:	02e7ee63          	bltu	x15,x14,4c2c <atoi+0xdc>
    4bf4:	80000537          	lui	x10,0x80000
    4bf8:	fc850513          	add	x10,x10,-56 # 7fffffc8 <STACK_TOP+0x7fefffc8>
    4bfc:	00a70533          	add	x10,x14,x10
    4c00:	01060833          	add	x16,x12,x16
    4c04:	00284783          	lbu	x15,2(x16)
    4c08:	fd078793          	add	x15,x15,-48
    4c0c:	0ff7f793          	zext.b	x15,x15
    4c10:	00900713          	li	x14,9
    4c14:	00f77c63          	bgeu	x14,x15,4c2c <atoi+0xdc>
    4c18:	fff00793          	li	x15,-1
    4c1c:	04f30c63          	beq	x6,x15,4c74 <atoi+0x124>
    4c20:	00008067          	ret
    4c24:	00000793          	li	x15,0
    4c28:	f51ff06f          	j	4b78 <atoi+0x28>
    4c2c:	00100793          	li	x15,1
    4c30:	00f31863          	bne	x6,x15,4c40 <atoi+0xf0>
    4c34:	80000537          	lui	x10,0x80000
    4c38:	fff50513          	add	x10,x10,-1 # 7fffffff <STACK_TOP+0x7fefffff>
    4c3c:	00008067          	ret
    4c40:	80000537          	lui	x10,0x80000
    4c44:	00008067          	ret
    4c48:	00000513          	li	x10,0
    4c4c:	00008067          	ret
    4c50:	00178793          	add	x15,x15,1
    4c54:	00f60733          	add	x14,x12,x15
    4c58:	00074703          	lbu	x14,0(x14)
    4c5c:	fd070693          	add	x13,x14,-48
    4c60:	0ff6f693          	zext.b	x13,x13
    4c64:	00900593          	li	x11,9
    4c68:	fff00313          	li	x6,-1
    4c6c:	00000513          	li	x10,0
    4c70:	f2d5fae3          	bgeu	x11,x13,4ba4 <atoi+0x54>
    4c74:	40a00533          	neg	x10,x10
    4c78:	00008067          	ret
    4c7c:	00178793          	add	x15,x15,1
    4c80:	00f60733          	add	x14,x12,x15
    4c84:	00074703          	lbu	x14,0(x14)
    4c88:	fd070693          	add	x13,x14,-48
    4c8c:	0ff6f693          	zext.b	x13,x13
    4c90:	00900593          	li	x11,9
    4c94:	00100313          	li	x6,1
    4c98:	f0d5f6e3          	bgeu	x11,x13,4ba4 <atoi+0x54>
    4c9c:	00000513          	li	x10,0
    4ca0:	00008067          	ret

00004ca4 <flash_send>:
    4ca4:	020007b7          	lui	x15,0x2000
    4ca8:	06a7a823          	sw	x10,112(x15) # 2000070 <STACK_TOP+0x1f00070>
    4cac:	0707a503          	lw	x10,112(x15)
    4cb0:	0ff57513          	zext.b	x10,x10
    4cb4:	00008067          	ret

00004cb8 <flash_send_word>:
    4cb8:	020007b7          	lui	x15,0x2000
    4cbc:	06a7aa23          	sw	x10,116(x15) # 2000074 <STACK_TOP+0x1f00074>
    4cc0:	0747a503          	lw	x10,116(x15)
    4cc4:	00008067          	ret

00004cc8 <flash_receive>:
    4cc8:	020007b7          	lui	x15,0x2000
    4ccc:	0ff00713          	li	x14,255
    4cd0:	06e7a823          	sw	x14,112(x15) # 2000070 <STACK_TOP+0x1f00070>
    4cd4:	0707a503          	lw	x10,112(x15)
    4cd8:	0ff57513          	zext.b	x10,x10
    4cdc:	00008067          	ret

00004ce0 <flash_receive_word>:
    4ce0:	020007b7          	lui	x15,0x2000
    4ce4:	fff00713          	li	x14,-1
    4ce8:	06e7aa23          	sw	x14,116(x15) # 2000074 <STACK_TOP+0x1f00074>
    4cec:	0747a503          	lw	x10,116(x15)
    4cf0:	00008067          	ret

00004cf4 <flash_sendrecv>:
    4cf4:	020007b7          	lui	x15,0x2000
    4cf8:	06a7a823          	sw	x10,112(x15) # 2000070 <STACK_TOP+0x1f00070>
    4cfc:	0707a703          	lw	x14,112(x15)
    4d00:	0ff00713          	li	x14,255
    4d04:	06e7a823          	sw	x14,112(x15)
    4d08:	0707a503          	lw	x10,112(x15)
    4d0c:	0ff57513          	zext.b	x10,x10
    4d10:	00008067          	ret

00004d14 <flash_readblock>:
    4d14:	00357793          	and	x15,x10,3
    4d18:	00000713          	li	x14,0
    4d1c:	04079663          	bnez	x15,4d68 <flash_readblock+0x54>
    4d20:	00300793          	li	x15,3
    4d24:	06b7da63          	bge	x15,x11,4d98 <flash_readblock+0x84>
    4d28:	ffc58613          	add	x12,x11,-4
    4d2c:	00265613          	srl	x12,x12,0x2
    4d30:	00160693          	add	x13,x12,1
    4d34:	00269693          	sll	x13,x13,0x2
    4d38:	00d506b3          	add	x13,x10,x13
    4d3c:	020007b7          	lui	x15,0x2000
    4d40:	07478793          	add	x15,x15,116 # 2000074 <STACK_TOP+0x1f00074>
    4d44:	fff00813          	li	x16,-1
    4d48:	0107a023          	sw	x16,0(x15)
    4d4c:	0007a703          	lw	x14,0(x15)
    4d50:	00e52023          	sw	x14,0(x10) # 80000000 <STACK_TOP+0x7ff00000>
    4d54:	00450513          	add	x10,x10,4
    4d58:	fed518e3          	bne	x10,x13,4d48 <flash_readblock+0x34>
    4d5c:	00160713          	add	x14,x12,1
    4d60:	00271713          	sll	x14,x14,0x2
    4d64:	00068513          	mv	x10,x13
    4d68:	40e586b3          	sub	x13,x11,x14
    4d6c:	00d506b3          	add	x13,x10,x13
    4d70:	020007b7          	lui	x15,0x2000
    4d74:	07078793          	add	x15,x15,112 # 2000070 <STACK_TOP+0x1f00070>
    4d78:	0ff00613          	li	x12,255
    4d7c:	02b75263          	bge	x14,x11,4da0 <flash_readblock+0x8c>
    4d80:	00150513          	add	x10,x10,1
    4d84:	00c7a023          	sw	x12,0(x15)
    4d88:	0007a703          	lw	x14,0(x15)
    4d8c:	fee50fa3          	sb	x14,-1(x10)
    4d90:	fed518e3          	bne	x10,x13,4d80 <flash_readblock+0x6c>
    4d94:	00008067          	ret
    4d98:	00000713          	li	x14,0
    4d9c:	fcdff06f          	j	4d68 <flash_readblock+0x54>
    4da0:	00008067          	ret

00004da4 <spiflash_read>:
    4da4:	ff010113          	add	x2,x2,-16
    4da8:	00112623          	sw	x1,12(x2)
    4dac:	00812423          	sw	x8,8(x2)
    4db0:	00050713          	mv	x14,x10
    4db4:	00058513          	mv	x10,x11
    4db8:	02000437          	lui	x8,0x2000
    4dbc:	06042c23          	sw	x0,120(x8) # 2000078 <STACK_TOP+0x1f00078>
    4dc0:	020007b7          	lui	x15,0x2000
    4dc4:	00300693          	li	x13,3
    4dc8:	06d7a823          	sw	x13,112(x15) # 2000070 <STACK_TOP+0x1f00070>
    4dcc:	0707a683          	lw	x13,112(x15)
    4dd0:	01075693          	srl	x13,x14,0x10
    4dd4:	0ff6f693          	zext.b	x13,x13
    4dd8:	06d7a823          	sw	x13,112(x15)
    4ddc:	0707a683          	lw	x13,112(x15)
    4de0:	00875693          	srl	x13,x14,0x8
    4de4:	0ff6f693          	zext.b	x13,x13
    4de8:	06d7a823          	sw	x13,112(x15)
    4dec:	0707a683          	lw	x13,112(x15)
    4df0:	0ff77713          	zext.b	x14,x14
    4df4:	06e7a823          	sw	x14,112(x15)
    4df8:	07078793          	add	x15,x15,112
    4dfc:	0007a783          	lw	x15,0(x15)
    4e00:	00060593          	mv	x11,x12
    4e04:	f11ff0ef          	jal	4d14 <flash_readblock>
    4e08:	00100793          	li	x15,1
    4e0c:	06f42c23          	sw	x15,120(x8)
    4e10:	00c12083          	lw	x1,12(x2)
    4e14:	00812403          	lw	x8,8(x2)
    4e18:	01010113          	add	x2,x2,16
    4e1c:	00008067          	ret

00004e20 <spiflash_write_enable>:
    4e20:	020007b7          	lui	x15,0x2000
    4e24:	0607ac23          	sw	x0,120(x15) # 2000078 <STACK_TOP+0x1f00078>
    4e28:	02000737          	lui	x14,0x2000
    4e2c:	00600693          	li	x13,6
    4e30:	06d72823          	sw	x13,112(x14) # 2000070 <STACK_TOP+0x1f00070>
    4e34:	07070713          	add	x14,x14,112
    4e38:	00072703          	lw	x14,0(x14)
    4e3c:	00100713          	li	x14,1
    4e40:	06e7ac23          	sw	x14,120(x15)
    4e44:	00008067          	ret

00004e48 <spiflash_write_disable>:
    4e48:	020007b7          	lui	x15,0x2000
    4e4c:	0607ac23          	sw	x0,120(x15) # 2000078 <STACK_TOP+0x1f00078>
    4e50:	02000737          	lui	x14,0x2000
    4e54:	00400693          	li	x13,4
    4e58:	06d72823          	sw	x13,112(x14) # 2000070 <STACK_TOP+0x1f00070>
    4e5c:	07070713          	add	x14,x14,112
    4e60:	00072703          	lw	x14,0(x14)
    4e64:	00100713          	li	x14,1
    4e68:	06e7ac23          	sw	x14,120(x15)
    4e6c:	00008067          	ret

00004e70 <spiflash_sector_erase>:
    4e70:	ff010113          	add	x2,x2,-16
    4e74:	00112623          	sw	x1,12(x2)
    4e78:	00812423          	sw	x8,8(x2)
    4e7c:	00050413          	mv	x8,x10
    4e80:	fa1ff0ef          	jal	4e20 <spiflash_write_enable>
    4e84:	02000737          	lui	x14,0x2000
    4e88:	06072c23          	sw	x0,120(x14) # 2000078 <STACK_TOP+0x1f00078>
    4e8c:	00845793          	srl	x15,x8,0x8
    4e90:	000106b7          	lui	x13,0x10
    4e94:	f0068693          	add	x13,x13,-256 # ff00 <__muldf3+0x53c>
    4e98:	00d7f7b3          	and	x15,x15,x13
    4e9c:	00841693          	sll	x13,x8,0x8
    4ea0:	00ff0637          	lui	x12,0xff0
    4ea4:	00c6f6b3          	and	x13,x13,x12
    4ea8:	00d7e7b3          	or	x15,x15,x13
    4eac:	01841413          	sll	x8,x8,0x18
    4eb0:	0087e7b3          	or	x15,x15,x8
    4eb4:	0207e793          	or	x15,x15,32
    4eb8:	020006b7          	lui	x13,0x2000
    4ebc:	06f6aa23          	sw	x15,116(x13) # 2000074 <STACK_TOP+0x1f00074>
    4ec0:	0746a783          	lw	x15,116(x13)
    4ec4:	00100793          	li	x15,1
    4ec8:	06f72c23          	sw	x15,120(x14)
    4ecc:	00c12083          	lw	x1,12(x2)
    4ed0:	00812403          	lw	x8,8(x2)
    4ed4:	01010113          	add	x2,x2,16
    4ed8:	00008067          	ret

00004edc <spiflash_page_program>:
    4edc:	ff010113          	add	x2,x2,-16
    4ee0:	00112623          	sw	x1,12(x2)
    4ee4:	00812423          	sw	x8,8(x2)
    4ee8:	00912223          	sw	x9,4(x2)
    4eec:	00050493          	mv	x9,x10
    4ef0:	00058413          	mv	x8,x11
    4ef4:	f2dff0ef          	jal	4e20 <spiflash_write_enable>
    4ef8:	020007b7          	lui	x15,0x2000
    4efc:	0607ac23          	sw	x0,120(x15) # 2000078 <STACK_TOP+0x1f00078>
    4f00:	0084d793          	srl	x15,x9,0x8
    4f04:	00010737          	lui	x14,0x10
    4f08:	f0070713          	add	x14,x14,-256 # ff00 <__muldf3+0x53c>
    4f0c:	00e7f7b3          	and	x15,x15,x14
    4f10:	00849713          	sll	x14,x9,0x8
    4f14:	00ff06b7          	lui	x13,0xff0
    4f18:	00d77733          	and	x14,x14,x13
    4f1c:	00e7e7b3          	or	x15,x15,x14
    4f20:	01849493          	sll	x9,x9,0x18
    4f24:	0097e7b3          	or	x15,x15,x9
    4f28:	0027e793          	or	x15,x15,2
    4f2c:	02000737          	lui	x14,0x2000
    4f30:	06f72a23          	sw	x15,116(x14) # 2000074 <STACK_TOP+0x1f00074>
    4f34:	07472783          	lw	x15,116(x14)
    4f38:	00040793          	mv	x15,x8
    4f3c:	10040593          	add	x11,x8,256
    4f40:	02000737          	lui	x14,0x2000
    4f44:	07470713          	add	x14,x14,116 # 2000074 <STACK_TOP+0x1f00074>
    4f48:	0007a683          	lw	x13,0(x15)
    4f4c:	00d72023          	sw	x13,0(x14)
    4f50:	00072683          	lw	x13,0(x14)
    4f54:	00478793          	add	x15,x15,4
    4f58:	feb798e3          	bne	x15,x11,4f48 <spiflash_page_program+0x6c>
    4f5c:	020007b7          	lui	x15,0x2000
    4f60:	00100713          	li	x14,1
    4f64:	06e7ac23          	sw	x14,120(x15) # 2000078 <STACK_TOP+0x1f00078>
    4f68:	00c12083          	lw	x1,12(x2)
    4f6c:	00812403          	lw	x8,8(x2)
    4f70:	00412483          	lw	x9,4(x2)
    4f74:	01010113          	add	x2,x2,16
    4f78:	00008067          	ret

00004f7c <spiflash_read_status1>:
    4f7c:	02000737          	lui	x14,0x2000
    4f80:	06072c23          	sw	x0,120(x14) # 2000078 <STACK_TOP+0x1f00078>
    4f84:	020007b7          	lui	x15,0x2000
    4f88:	00500693          	li	x13,5
    4f8c:	06d7a823          	sw	x13,112(x15) # 2000070 <STACK_TOP+0x1f00070>
    4f90:	0707a683          	lw	x13,112(x15)
    4f94:	0ff00693          	li	x13,255
    4f98:	06d7a823          	sw	x13,112(x15)
    4f9c:	0707a503          	lw	x10,112(x15)
    4fa0:	00100793          	li	x15,1
    4fa4:	06f72c23          	sw	x15,120(x14)
    4fa8:	0ff57513          	zext.b	x10,x10
    4fac:	00008067          	ret

00004fb0 <spiflash_ready>:
    4fb0:	ff010113          	add	x2,x2,-16
    4fb4:	00112623          	sw	x1,12(x2)
    4fb8:	00812423          	sw	x8,8(x2)
    4fbc:	00912223          	sw	x9,4(x2)
    4fc0:	01212023          	sw	x18,0(x2)
    4fc4:	020007b7          	lui	x15,0x2000
    4fc8:	0507a903          	lw	x18,80(x15) # 2000050 <STACK_TOP+0x1f00050>
    4fcc:	05078793          	add	x15,x15,80
    4fd0:	00078413          	mv	x8,x15
    4fd4:	3e800493          	li	x9,1000
    4fd8:	fa5ff0ef          	jal	4f7c <spiflash_read_status1>
    4fdc:	00157513          	and	x10,x10,1
    4fe0:	00050e63          	beqz	x10,4ffc <spiflash_ready+0x4c>
    4fe4:	00042783          	lw	x15,0(x8)
    4fe8:	412787b3          	sub	x15,x15,x18
    4fec:	fef4f6e3          	bgeu	x9,x15,4fd8 <spiflash_ready+0x28>
    4ff0:	00011537          	lui	x10,0x11
    4ff4:	78450513          	add	x10,x10,1924 # 11784 <__clzsi2+0xb98>
    4ff8:	ce4ff0ef          	jal	44dc <uart_printf>
    4ffc:	00c12083          	lw	x1,12(x2)
    5000:	00812403          	lw	x8,8(x2)
    5004:	00412483          	lw	x9,4(x2)
    5008:	00012903          	lw	x18,0(x2)
    500c:	01010113          	add	x2,x2,16
    5010:	00008067          	ret

00005014 <spi_send>:
    5014:	020007b7          	lui	x15,0x2000
    5018:	02a7a023          	sw	x10,32(x15) # 2000020 <STACK_TOP+0x1f00020>
    501c:	0207a503          	lw	x10,32(x15)
    5020:	0ff57513          	zext.b	x10,x10
    5024:	00008067          	ret

00005028 <spi_send_word>:
    5028:	020007b7          	lui	x15,0x2000
    502c:	02a7a223          	sw	x10,36(x15) # 2000024 <STACK_TOP+0x1f00024>
    5030:	0247a503          	lw	x10,36(x15)
    5034:	00008067          	ret

00005038 <spi_receive>:
    5038:	020007b7          	lui	x15,0x2000
    503c:	0ff00713          	li	x14,255
    5040:	02e7a023          	sw	x14,32(x15) # 2000020 <STACK_TOP+0x1f00020>
    5044:	0207a503          	lw	x10,32(x15)
    5048:	0ff57513          	zext.b	x10,x10
    504c:	00008067          	ret

00005050 <spi_receive_word>:
    5050:	020007b7          	lui	x15,0x2000
    5054:	fff00713          	li	x14,-1
    5058:	02e7a223          	sw	x14,36(x15) # 2000024 <STACK_TOP+0x1f00024>
    505c:	0247a503          	lw	x10,36(x15)
    5060:	00008067          	ret

00005064 <spi_sendrecv>:
    5064:	ff010113          	add	x2,x2,-16
    5068:	00112623          	sw	x1,12(x2)
    506c:	020007b7          	lui	x15,0x2000
    5070:	02a7a023          	sw	x10,32(x15) # 2000020 <STACK_TOP+0x1f00020>
    5074:	02078793          	add	x15,x15,32
    5078:	0007a783          	lw	x15,0(x15)
    507c:	fbdff0ef          	jal	5038 <spi_receive>
    5080:	00c12083          	lw	x1,12(x2)
    5084:	01010113          	add	x2,x2,16
    5088:	00008067          	ret

0000508c <spi_readblock>:
    508c:	ff010113          	add	x2,x2,-16
    5090:	00112623          	sw	x1,12(x2)
    5094:	00812423          	sw	x8,8(x2)
    5098:	00912223          	sw	x9,4(x2)
    509c:	00050413          	mv	x8,x10
    50a0:	00357793          	and	x15,x10,3
    50a4:	04078063          	beqz	x15,50e4 <spi_readblock+0x58>
    50a8:	00000793          	li	x15,0
    50ac:	40f584b3          	sub	x9,x11,x15
    50b0:	009404b3          	add	x9,x8,x9
    50b4:	00b7da63          	bge	x15,x11,50c8 <spi_readblock+0x3c>
    50b8:	00140413          	add	x8,x8,1
    50bc:	f7dff0ef          	jal	5038 <spi_receive>
    50c0:	fea40fa3          	sb	x10,-1(x8)
    50c4:	fe941ae3          	bne	x8,x9,50b8 <spi_readblock+0x2c>
    50c8:	00c12083          	lw	x1,12(x2)
    50cc:	00812403          	lw	x8,8(x2)
    50d0:	00412483          	lw	x9,4(x2)
    50d4:	01010113          	add	x2,x2,16
    50d8:	00008067          	ret
    50dc:	00000793          	li	x15,0
    50e0:	fcdff06f          	j	50ac <spi_readblock+0x20>
    50e4:	00300793          	li	x15,3
    50e8:	feb7dae3          	bge	x15,x11,50dc <spi_readblock+0x50>
    50ec:	ffc58613          	add	x12,x11,-4
    50f0:	00265613          	srl	x12,x12,0x2
    50f4:	00160693          	add	x13,x12,1 # ff0001 <STACK_TOP+0xef0001>
    50f8:	00269693          	sll	x13,x13,0x2
    50fc:	00d506b3          	add	x13,x10,x13
    5100:	020007b7          	lui	x15,0x2000
    5104:	02478793          	add	x15,x15,36 # 2000024 <STACK_TOP+0x1f00024>
    5108:	fff00513          	li	x10,-1
    510c:	00a7a023          	sw	x10,0(x15)
    5110:	0007a703          	lw	x14,0(x15)
    5114:	00e42023          	sw	x14,0(x8)
    5118:	00440413          	add	x8,x8,4
    511c:	fed418e3          	bne	x8,x13,510c <spi_readblock+0x80>
    5120:	00160793          	add	x15,x12,1
    5124:	00279793          	sll	x15,x15,0x2
    5128:	00068413          	mv	x8,x13
    512c:	f81ff06f          	j	50ac <spi_readblock+0x20>

00005130 <spi_writeblock>:
    5130:	00357793          	and	x15,x10,3
    5134:	00000713          	li	x14,0
    5138:	04079463          	bnez	x15,5180 <spi_writeblock+0x50>
    513c:	00300793          	li	x15,3
    5140:	06b7d663          	bge	x15,x11,51ac <spi_writeblock+0x7c>
    5144:	ffc58613          	add	x12,x11,-4
    5148:	00265613          	srl	x12,x12,0x2
    514c:	00160693          	add	x13,x12,1
    5150:	00269693          	sll	x13,x13,0x2
    5154:	00d506b3          	add	x13,x10,x13
    5158:	020007b7          	lui	x15,0x2000
    515c:	02478793          	add	x15,x15,36 # 2000024 <STACK_TOP+0x1f00024>
    5160:	00052703          	lw	x14,0(x10)
    5164:	00e7a023          	sw	x14,0(x15)
    5168:	0007a703          	lw	x14,0(x15)
    516c:	00450513          	add	x10,x10,4
    5170:	fed518e3          	bne	x10,x13,5160 <spi_writeblock+0x30>
    5174:	00160713          	add	x14,x12,1
    5178:	00271713          	sll	x14,x14,0x2
    517c:	00068513          	mv	x10,x13
    5180:	40e586b3          	sub	x13,x11,x14
    5184:	00d506b3          	add	x13,x10,x13
    5188:	020007b7          	lui	x15,0x2000
    518c:	02078793          	add	x15,x15,32 # 2000020 <STACK_TOP+0x1f00020>
    5190:	02b75263          	bge	x14,x11,51b4 <spi_writeblock+0x84>
    5194:	00150513          	add	x10,x10,1
    5198:	fff54703          	lbu	x14,-1(x10)
    519c:	00e7a023          	sw	x14,0(x15)
    51a0:	0007a703          	lw	x14,0(x15)
    51a4:	fed518e3          	bne	x10,x13,5194 <spi_writeblock+0x64>
    51a8:	00008067          	ret
    51ac:	00000713          	li	x14,0
    51b0:	fd1ff06f          	j	5180 <spi_writeblock+0x50>
    51b4:	00008067          	ret

000051b8 <sd_send_command>:
    51b8:	fe010113          	add	x2,x2,-32
    51bc:	00112e23          	sw	x1,28(x2)
    51c0:	00812c23          	sw	x8,24(x2)
    51c4:	00912a23          	sw	x9,20(x2)
    51c8:	01212823          	sw	x18,16(x2)
    51cc:	01312623          	sw	x19,12(x2)
    51d0:	00050993          	mv	x19,x10
    51d4:	0001d7b7          	lui	x15,0x1d
    51d8:	ee07a783          	lw	x15,-288(x15) # 1cee0 <sdhc_card>
    51dc:	02079663          	bnez	x15,5208 <sd_send_command+0x50>
    51e0:	fef50713          	add	x14,x10,-17
    51e4:	0ff77713          	zext.b	x14,x14
    51e8:	01000793          	li	x15,16
    51ec:	00e7ee63          	bltu	x15,x14,5208 <sd_send_command+0x50>
    51f0:	000187b7          	lui	x15,0x18
    51f4:	08178793          	add	x15,x15,129 # 18081 <__clz_tab+0x5f85>
    51f8:	00e7d7b3          	srl	x15,x15,x14
    51fc:	0017f793          	and	x15,x15,1
    5200:	00078463          	beqz	x15,5208 <sd_send_command+0x50>
    5204:	00959593          	sll	x11,x11,0x9
    5208:	0409e713          	or	x14,x19,64
    520c:	020007b7          	lui	x15,0x2000
    5210:	02e7a023          	sw	x14,32(x15) # 2000020 <STACK_TOP+0x1f00020>
    5214:	0207a703          	lw	x14,32(x15)
    5218:	0185d713          	srl	x14,x11,0x18
    521c:	02e7a023          	sw	x14,32(x15)
    5220:	0207a703          	lw	x14,32(x15)
    5224:	0105d713          	srl	x14,x11,0x10
    5228:	0ff77713          	zext.b	x14,x14
    522c:	02e7a023          	sw	x14,32(x15)
    5230:	0207a703          	lw	x14,32(x15)
    5234:	0085d713          	srl	x14,x11,0x8
    5238:	0ff77713          	zext.b	x14,x14
    523c:	02e7a023          	sw	x14,32(x15)
    5240:	0207a703          	lw	x14,32(x15)
    5244:	0ff5f593          	zext.b	x11,x11
    5248:	02b7a023          	sw	x11,32(x15)
    524c:	02078793          	add	x15,x15,32
    5250:	0007a783          	lw	x15,0(x15)
    5254:	00800793          	li	x15,8
    5258:	09500713          	li	x14,149
    525c:	02f98e63          	beq	x19,x15,5298 <sd_send_command+0xe0>
    5260:	020007b7          	lui	x15,0x2000
    5264:	02e7a023          	sw	x14,32(x15) # 2000020 <STACK_TOP+0x1f00020>
    5268:	02078793          	add	x15,x15,32
    526c:	0007a783          	lw	x15,0(x15)
    5270:	1f600493          	li	x9,502
    5274:	0ff00913          	li	x18,255
    5278:	dc1ff0ef          	jal	5038 <spi_receive>
    527c:	00050413          	mv	x8,x10
    5280:	03251063          	bne	x10,x18,52a0 <sd_send_command+0xe8>
    5284:	fff48493          	add	x9,x9,-1
    5288:	fe0498e3          	bnez	x9,5278 <sd_send_command+0xc0>
    528c:	03a00793          	li	x15,58
    5290:	00f99c63          	bne	x19,x15,52a8 <sd_send_command+0xf0>
    5294:	01c0006f          	j	52b0 <sd_send_command+0xf8>
    5298:	08700713          	li	x14,135
    529c:	fc5ff06f          	j	5260 <sd_send_command+0xa8>
    52a0:	03a00793          	li	x15,58
    52a4:	04f98063          	beq	x19,x15,52e4 <sd_send_command+0x12c>
    52a8:	00800793          	li	x15,8
    52ac:	06f98063          	beq	x19,x15,530c <sd_send_command+0x154>
    52b0:	020007b7          	lui	x15,0x2000
    52b4:	0ff00713          	li	x14,255
    52b8:	02e7a023          	sw	x14,32(x15) # 2000020 <STACK_TOP+0x1f00020>
    52bc:	02078793          	add	x15,x15,32
    52c0:	0007a783          	lw	x15,0(x15)
    52c4:	00040513          	mv	x10,x8
    52c8:	01c12083          	lw	x1,28(x2)
    52cc:	01812403          	lw	x8,24(x2)
    52d0:	01412483          	lw	x9,20(x2)
    52d4:	01012903          	lw	x18,16(x2)
    52d8:	00c12983          	lw	x19,12(x2)
    52dc:	02010113          	add	x2,x2,32
    52e0:	00008067          	ret
    52e4:	fc0516e3          	bnez	x10,52b0 <sd_send_command+0xf8>
    52e8:	d51ff0ef          	jal	5038 <spi_receive>
    52ec:	00655793          	srl	x15,x10,0x6
    52f0:	0017f793          	and	x15,x15,1
    52f4:	0001d737          	lui	x14,0x1d
    52f8:	eef72023          	sw	x15,-288(x14) # 1cee0 <sdhc_card>
    52fc:	d3dff0ef          	jal	5038 <spi_receive>
    5300:	d39ff0ef          	jal	5038 <spi_receive>
    5304:	d35ff0ef          	jal	5038 <spi_receive>
    5308:	fa9ff06f          	j	52b0 <sd_send_command+0xf8>
    530c:	00100793          	li	x15,1
    5310:	faf410e3          	bne	x8,x15,52b0 <sd_send_command+0xf8>
    5314:	d25ff0ef          	jal	5038 <spi_receive>
    5318:	d21ff0ef          	jal	5038 <spi_receive>
    531c:	d1dff0ef          	jal	5038 <spi_receive>
    5320:	d19ff0ef          	jal	5038 <spi_receive>
    5324:	f8dff06f          	j	52b0 <sd_send_command+0xf8>

00005328 <sd_init>:
    5328:	ff010113          	add	x2,x2,-16
    532c:	00112623          	sw	x1,12(x2)
    5330:	00812423          	sw	x8,8(x2)
    5334:	00912223          	sw	x9,4(x2)
    5338:	01212023          	sw	x18,0(x2)
    533c:	00a00793          	li	x15,10
    5340:	02000737          	lui	x14,0x2000
    5344:	02070713          	add	x14,x14,32 # 2000020 <STACK_TOP+0x1f00020>
    5348:	0ff00693          	li	x13,255
    534c:	00d72023          	sw	x13,0(x14)
    5350:	00072603          	lw	x12,0(x14)
    5354:	fff78793          	add	x15,x15,-1
    5358:	fe079ae3          	bnez	x15,534c <sd_init+0x24>
    535c:	00a00413          	li	x8,10
    5360:	00100913          	li	x18,1
    5364:	00000593          	li	x11,0
    5368:	00000513          	li	x10,0
    536c:	e4dff0ef          	jal	51b8 <sd_send_command>
    5370:	00050493          	mv	x9,x10
    5374:	fff40413          	add	x8,x8,-1
    5378:	0c040063          	beqz	x8,5438 <sd_init+0x110>
    537c:	ff2514e3          	bne	x10,x18,5364 <sd_init+0x3c>
    5380:	020007b7          	lui	x15,0x2000
    5384:	0ff00713          	li	x14,255
    5388:	02e7a023          	sw	x14,32(x15) # 2000020 <STACK_TOP+0x1f00020>
    538c:	0207a683          	lw	x13,32(x15)
    5390:	02e7a023          	sw	x14,32(x15)
    5394:	02078793          	add	x15,x15,32
    5398:	0007a783          	lw	x15,0(x15)
    539c:	0001d7b7          	lui	x15,0x1d
    53a0:	00100713          	li	x14,1
    53a4:	ece7ae23          	sw	x14,-292(x15) # 1cedc <flag>
    53a8:	00a00413          	li	x8,10
    53ac:	00100913          	li	x18,1
    53b0:	1aa00593          	li	x11,426
    53b4:	00800513          	li	x10,8
    53b8:	e01ff0ef          	jal	51b8 <sd_send_command>
    53bc:	fff40413          	add	x8,x8,-1
    53c0:	00040663          	beqz	x8,53cc <sd_init+0xa4>
    53c4:	ff2516e3          	bne	x10,x18,53b0 <sd_init+0x88>
    53c8:	00200493          	li	x9,2
    53cc:	00000413          	li	x8,0
    53d0:	08200913          	li	x18,130
    53d4:	00000593          	li	x11,0
    53d8:	03700513          	li	x10,55
    53dc:	dddff0ef          	jal	51b8 <sd_send_command>
    53e0:	400005b7          	lui	x11,0x40000
    53e4:	02900513          	li	x10,41
    53e8:	dd1ff0ef          	jal	51b8 <sd_send_command>
    53ec:	00140413          	add	x8,x8,1
    53f0:	07240863          	beq	x8,x18,5460 <sd_init+0x138>
    53f4:	fe0510e3          	bnez	x10,53d4 <sd_init+0xac>
    53f8:	00040593          	mv	x11,x8
    53fc:	00011537          	lui	x10,0x11
    5400:	7d450513          	add	x10,x10,2004 # 117d4 <__clzsi2+0xbe8>
    5404:	8d8ff0ef          	jal	44dc <uart_printf>
    5408:	00200793          	li	x15,2
    540c:	06f48663          	beq	x9,x15,5478 <sd_init+0x150>
    5410:	0001d7b7          	lui	x15,0x1d
    5414:	ee07a023          	sw	x0,-288(x15) # 1cee0 <sdhc_card>
    5418:	00048613          	mv	x12,x9
    541c:	0001d7b7          	lui	x15,0x1d
    5420:	ee07a583          	lw	x11,-288(x15) # 1cee0 <sdhc_card>
    5424:	00011537          	lui	x10,0x11
    5428:	7f850513          	add	x10,x10,2040 # 117f8 <__clzsi2+0xc0c>
    542c:	8b0ff0ef          	jal	44dc <uart_printf>
    5430:	00000513          	li	x10,0
    5434:	0140006f          	j	5448 <sd_init+0x120>
    5438:	00011537          	lui	x10,0x11
    543c:	79c50513          	add	x10,x10,1948 # 1179c <__clzsi2+0xbb0>
    5440:	89cff0ef          	jal	44dc <uart_printf>
    5444:	fff00513          	li	x10,-1
    5448:	00c12083          	lw	x1,12(x2)
    544c:	00812403          	lw	x8,8(x2)
    5450:	00412483          	lw	x9,4(x2)
    5454:	00012903          	lw	x18,0(x2)
    5458:	01010113          	add	x2,x2,16
    545c:	00008067          	ret
    5460:	00050593          	mv	x11,x10
    5464:	00011537          	lui	x10,0x11
    5468:	7b450513          	add	x10,x10,1972 # 117b4 <__clzsi2+0xbc8>
    546c:	870ff0ef          	jal	44dc <uart_printf>
    5470:	ffe00513          	li	x10,-2
    5474:	fd5ff06f          	j	5448 <sd_init+0x120>
    5478:	00a00413          	li	x8,10
    547c:	00000593          	li	x11,0
    5480:	03a00513          	li	x10,58
    5484:	d35ff0ef          	jal	51b8 <sd_send_command>
    5488:	fff40413          	add	x8,x8,-1
    548c:	f80406e3          	beqz	x8,5418 <sd_init+0xf0>
    5490:	fe0516e3          	bnez	x10,547c <sd_init+0x154>
    5494:	f85ff06f          	j	5418 <sd_init+0xf0>

00005498 <debug_print_buf>:
    5498:	ff010113          	add	x2,x2,-16
    549c:	00112623          	sw	x1,12(x2)
    54a0:	00812423          	sw	x8,8(x2)
    54a4:	00912223          	sw	x9,4(x2)
    54a8:	00050413          	mv	x8,x10
    54ac:	00200593          	li	x11,2
    54b0:	00054503          	lbu	x10,0(x10)
    54b4:	ca5fe0ef          	jal	4158 <uart_print_hex_digits>
    54b8:	000124b7          	lui	x9,0x12
    54bc:	82c48513          	add	x10,x9,-2004 # 1182c <__clzsi2+0xc40>
    54c0:	814ff0ef          	jal	44d4 <uart_print>
    54c4:	00200593          	li	x11,2
    54c8:	00144503          	lbu	x10,1(x8)
    54cc:	c8dfe0ef          	jal	4158 <uart_print_hex_digits>
    54d0:	00012537          	lui	x10,0x12
    54d4:	82850513          	add	x10,x10,-2008 # 11828 <__clzsi2+0xc3c>
    54d8:	ffdfe0ef          	jal	44d4 <uart_print>
    54dc:	00200593          	li	x11,2
    54e0:	1fe44503          	lbu	x10,510(x8)
    54e4:	c75fe0ef          	jal	4158 <uart_print_hex_digits>
    54e8:	82c48513          	add	x10,x9,-2004
    54ec:	fe9fe0ef          	jal	44d4 <uart_print>
    54f0:	00200593          	li	x11,2
    54f4:	1ff44503          	lbu	x10,511(x8)
    54f8:	c61fe0ef          	jal	4158 <uart_print_hex_digits>
    54fc:	00011537          	lui	x10,0x11
    5500:	cf450513          	add	x10,x10,-780 # 10cf4 <__clzsi2+0x108>
    5504:	fd1fe0ef          	jal	44d4 <uart_print>
    5508:	00c12083          	lw	x1,12(x2)
    550c:	00812403          	lw	x8,8(x2)
    5510:	00412483          	lw	x9,4(x2)
    5514:	01010113          	add	x2,x2,16
    5518:	00008067          	ret

0000551c <sd_readsector>:
    551c:	08060a63          	beqz	x12,55b0 <sd_readsector+0x94>
    5520:	fe010113          	add	x2,x2,-32
    5524:	00112e23          	sw	x1,28(x2)
    5528:	00812c23          	sw	x8,24(x2)
    552c:	00912a23          	sw	x9,20(x2)
    5530:	01212823          	sw	x18,16(x2)
    5534:	01312623          	sw	x19,12(x2)
    5538:	01412423          	sw	x20,8(x2)
    553c:	01512223          	sw	x21,4(x2)
    5540:	00050993          	mv	x19,x10
    5544:	00058a93          	mv	x21,x11
    5548:	00a60a33          	add	x20,x12,x10
    554c:	00000413          	li	x8,0
    5550:	0fe00913          	li	x18,254
    5554:	000014b7          	lui	x9,0x1
    5558:	38848493          	add	x9,x9,904 # 1388 <menu_select_core+0x1c>
    555c:	00098593          	mv	x11,x19
    5560:	01100513          	li	x10,17
    5564:	c55ff0ef          	jal	51b8 <sd_send_command>
    5568:	04051863          	bnez	x10,55b8 <sd_readsector+0x9c>
    556c:	acdff0ef          	jal	5038 <spi_receive>
    5570:	01250863          	beq	x10,x18,5580 <sd_readsector+0x64>
    5574:	0484c663          	blt	x9,x8,55c0 <sd_readsector+0xa4>
    5578:	00140413          	add	x8,x8,1
    557c:	ff1ff06f          	j	556c <sd_readsector+0x50>
    5580:	00198993          	add	x19,x19,1
    5584:	20000593          	li	x11,512
    5588:	000a8513          	mv	x10,x21
    558c:	b01ff0ef          	jal	508c <spi_readblock>
    5590:	200a8a93          	add	x21,x21,512
    5594:	aa5ff0ef          	jal	5038 <spi_receive>
    5598:	aa1ff0ef          	jal	5038 <spi_receive>
    559c:	0ff00513          	li	x10,255
    55a0:	ac5ff0ef          	jal	5064 <spi_sendrecv>
    55a4:	fb3a1ce3          	bne	x20,x19,555c <sd_readsector+0x40>
    55a8:	00100513          	li	x10,1
    55ac:	0180006f          	j	55c4 <sd_readsector+0xa8>
    55b0:	00000513          	li	x10,0
    55b4:	00008067          	ret
    55b8:	00000513          	li	x10,0
    55bc:	0080006f          	j	55c4 <sd_readsector+0xa8>
    55c0:	00000513          	li	x10,0
    55c4:	01c12083          	lw	x1,28(x2)
    55c8:	01812403          	lw	x8,24(x2)
    55cc:	01412483          	lw	x9,20(x2)
    55d0:	01012903          	lw	x18,16(x2)
    55d4:	00c12983          	lw	x19,12(x2)
    55d8:	00812a03          	lw	x20,8(x2)
    55dc:	00412a83          	lw	x21,4(x2)
    55e0:	02010113          	add	x2,x2,32
    55e4:	00008067          	ret

000055e8 <sd_writesector>:
    55e8:	fd010113          	add	x2,x2,-48
    55ec:	02112623          	sw	x1,44(x2)
    55f0:	01512a23          	sw	x21,20(x2)
    55f4:	01612823          	sw	x22,16(x2)
    55f8:	01712623          	sw	x23,12(x2)
    55fc:	00050a93          	mv	x21,x10
    5600:	00058b13          	mv	x22,x11
    5604:	00060b93          	mv	x23,x12
    5608:	00050593          	mv	x11,x10
    560c:	00012537          	lui	x10,0x12
    5610:	83050513          	add	x10,x10,-2000 # 11830 <__clzsi2+0xc44>
    5614:	ec9fe0ef          	jal	44dc <uart_printf>
    5618:	1c0b8e63          	beqz	x23,57f4 <sd_writesector+0x20c>
    561c:	02812423          	sw	x8,40(x2)
    5620:	02912223          	sw	x9,36(x2)
    5624:	03212023          	sw	x18,32(x2)
    5628:	01412c23          	sw	x20,24(x2)
    562c:	01812423          	sw	x24,8(x2)
    5630:	01912223          	sw	x25,4(x2)
    5634:	017a8bb3          	add	x23,x21,x23
    5638:	00000413          	li	x8,0
    563c:	02000a37          	lui	x20,0x2000
    5640:	020a0a13          	add	x20,x20,32 # 2000020 <STACK_TOP+0x1f00020>
    5644:	0fe00c93          	li	x25,254
    5648:	0ff00493          	li	x9,255
    564c:	00500c13          	li	x24,5
    5650:	00001937          	lui	x18,0x1
    5654:	38990913          	add	x18,x18,905 # 1389 <menu_select_core+0x1d>
    5658:	000a8593          	mv	x11,x21
    565c:	01800513          	li	x10,24
    5660:	b59ff0ef          	jal	51b8 <sd_send_command>
    5664:	06051663          	bnez	x10,56d0 <sd_writesector+0xe8>
    5668:	019a2023          	sw	x25,0(x20)
    566c:	000a2783          	lw	x15,0(x20)
    5670:	20000593          	li	x11,512
    5674:	000b0513          	mv	x10,x22
    5678:	ab9ff0ef          	jal	5130 <spi_writeblock>
    567c:	200b0b13          	add	x22,x22,512
    5680:	009a2023          	sw	x9,0(x20)
    5684:	000a2783          	lw	x15,0(x20)
    5688:	009a2023          	sw	x9,0(x20)
    568c:	000a2783          	lw	x15,0(x20)
    5690:	00048513          	mv	x10,x9
    5694:	9a5ff0ef          	jal	5038 <spi_receive>
    5698:	01f57793          	and	x15,x10,31
    569c:	07878463          	beq	x15,x24,5704 <sd_writesector+0x11c>
    56a0:	00050593          	mv	x11,x10
    56a4:	00012537          	lui	x10,0x12
    56a8:	86c50513          	add	x10,x10,-1940 # 1186c <__clzsi2+0xc80>
    56ac:	e31fe0ef          	jal	44dc <uart_printf>
    56b0:	00000513          	li	x10,0
    56b4:	02812403          	lw	x8,40(x2)
    56b8:	02412483          	lw	x9,36(x2)
    56bc:	02012903          	lw	x18,32(x2)
    56c0:	01812a03          	lw	x20,24(x2)
    56c4:	00812c03          	lw	x24,8(x2)
    56c8:	00412c83          	lw	x25,4(x2)
    56cc:	0700006f          	j	573c <sd_writesector+0x154>
    56d0:	00050593          	mv	x11,x10
    56d4:	00012537          	lui	x10,0x12
    56d8:	84850513          	add	x10,x10,-1976 # 11848 <__clzsi2+0xc5c>
    56dc:	e01fe0ef          	jal	44dc <uart_printf>
    56e0:	00000513          	li	x10,0
    56e4:	02812403          	lw	x8,40(x2)
    56e8:	02412483          	lw	x9,36(x2)
    56ec:	02012903          	lw	x18,32(x2)
    56f0:	01812a03          	lw	x20,24(x2)
    56f4:	00812c03          	lw	x24,8(x2)
    56f8:	00412c83          	lw	x25,4(x2)
    56fc:	0400006f          	j	573c <sd_writesector+0x154>
    5700:	00140413          	add	x8,x8,1
    5704:	00048513          	mv	x10,x9
    5708:	95dff0ef          	jal	5064 <spi_sendrecv>
    570c:	04051463          	bnez	x10,5754 <sd_writesector+0x16c>
    5710:	ff2418e3          	bne	x8,x18,5700 <sd_writesector+0x118>
    5714:	00012537          	lui	x10,0x12
    5718:	89050513          	add	x10,x10,-1904 # 11890 <__clzsi2+0xca4>
    571c:	dc1fe0ef          	jal	44dc <uart_printf>
    5720:	00000513          	li	x10,0
    5724:	02812403          	lw	x8,40(x2)
    5728:	02412483          	lw	x9,36(x2)
    572c:	02012903          	lw	x18,32(x2)
    5730:	01812a03          	lw	x20,24(x2)
    5734:	00812c03          	lw	x24,8(x2)
    5738:	00412c83          	lw	x25,4(x2)
    573c:	02c12083          	lw	x1,44(x2)
    5740:	01412a83          	lw	x21,20(x2)
    5744:	01012b03          	lw	x22,16(x2)
    5748:	00c12b83          	lw	x23,12(x2)
    574c:	03010113          	add	x2,x2,48
    5750:	00008067          	ret
    5754:	01312e23          	sw	x19,28(x2)
    5758:	020007b7          	lui	x15,0x2000
    575c:	0ff00713          	li	x14,255
    5760:	02e7a023          	sw	x14,32(x15) # 2000020 <STACK_TOP+0x1f00020>
    5764:	02078793          	add	x15,x15,32
    5768:	0007a783          	lw	x15,0(x15)
    576c:	00000413          	li	x8,0
    5770:	000019b7          	lui	x19,0x1
    5774:	38998993          	add	x19,x19,905 # 1389 <menu_select_core+0x1d>
    5778:	00048513          	mv	x10,x9
    577c:	8e9ff0ef          	jal	5064 <spi_sendrecv>
    5780:	04051063          	bnez	x10,57c0 <sd_writesector+0x1d8>
    5784:	01340663          	beq	x8,x19,5790 <sd_writesector+0x1a8>
    5788:	00140413          	add	x8,x8,1
    578c:	fedff06f          	j	5778 <sd_writesector+0x190>
    5790:	00012537          	lui	x10,0x12
    5794:	89050513          	add	x10,x10,-1904 # 11890 <__clzsi2+0xca4>
    5798:	d45fe0ef          	jal	44dc <uart_printf>
    579c:	00000513          	li	x10,0
    57a0:	02812403          	lw	x8,40(x2)
    57a4:	02412483          	lw	x9,36(x2)
    57a8:	02012903          	lw	x18,32(x2)
    57ac:	01c12983          	lw	x19,28(x2)
    57b0:	01812a03          	lw	x20,24(x2)
    57b4:	00812c03          	lw	x24,8(x2)
    57b8:	00412c83          	lw	x25,4(x2)
    57bc:	f81ff06f          	j	573c <sd_writesector+0x154>
    57c0:	001a8a93          	add	x21,x21,1
    57c4:	017a8663          	beq	x21,x23,57d0 <sd_writesector+0x1e8>
    57c8:	01c12983          	lw	x19,28(x2)
    57cc:	e8dff06f          	j	5658 <sd_writesector+0x70>
    57d0:	00100513          	li	x10,1
    57d4:	02812403          	lw	x8,40(x2)
    57d8:	02412483          	lw	x9,36(x2)
    57dc:	02012903          	lw	x18,32(x2)
    57e0:	01c12983          	lw	x19,28(x2)
    57e4:	01812a03          	lw	x20,24(x2)
    57e8:	00812c03          	lw	x24,8(x2)
    57ec:	00412c83          	lw	x25,4(x2)
    57f0:	f4dff06f          	j	573c <sd_writesector+0x154>
    57f4:	00100513          	li	x10,1
    57f8:	f45ff06f          	j	573c <sd_writesector+0x154>

000057fc <disk_status>:
    57fc:	00051a63          	bnez	x10,5810 <disk_status+0x14>
    5800:	0001d7b7          	lui	x15,0x1d
    5804:	ee47a503          	lw	x10,-284(x15) # 1cee4 <sd_initialized>
    5808:	00153513          	seqz	x10,x10
    580c:	00008067          	ret
    5810:	00100513          	li	x10,1
    5814:	00008067          	ret

00005818 <disk_initialize>:
    5818:	00050663          	beqz	x10,5824 <disk_initialize+0xc>
    581c:	00100513          	li	x10,1
    5820:	00008067          	ret
    5824:	ff010113          	add	x2,x2,-16
    5828:	00112623          	sw	x1,12(x2)
    582c:	00812423          	sw	x8,8(x2)
    5830:	00050413          	mv	x8,x10
    5834:	af5ff0ef          	jal	5328 <sd_init>
    5838:	02051263          	bnez	x10,585c <disk_initialize+0x44>
    583c:	0001d7b7          	lui	x15,0x1d
    5840:	00100713          	li	x14,1
    5844:	eee7a223          	sw	x14,-284(x15) # 1cee4 <sd_initialized>
    5848:	00040513          	mv	x10,x8
    584c:	00c12083          	lw	x1,12(x2)
    5850:	00812403          	lw	x8,8(x2)
    5854:	01010113          	add	x2,x2,16
    5858:	00008067          	ret
    585c:	00012537          	lui	x10,0x12
    5860:	8ac50513          	add	x10,x10,-1876 # 118ac <__clzsi2+0xcc0>
    5864:	805fe0ef          	jal	4068 <print>
    5868:	0001d7b7          	lui	x15,0x1d
    586c:	ee07a223          	sw	x0,-284(x15) # 1cee4 <sd_initialized>
    5870:	00100513          	li	x10,1
    5874:	fd9ff06f          	j	584c <disk_initialize+0x34>

00005878 <disk_read>:
    5878:	02051e63          	bnez	x10,58b4 <disk_read+0x3c>
    587c:	00060793          	mv	x15,x12
    5880:	0001d737          	lui	x14,0x1d
    5884:	ee472703          	lw	x14,-284(x14) # 1cee4 <sd_initialized>
    5888:	00300513          	li	x10,3
    588c:	02070863          	beqz	x14,58bc <disk_read+0x44>
    5890:	ff010113          	add	x2,x2,-16
    5894:	00112623          	sw	x1,12(x2)
    5898:	00068613          	mv	x12,x13
    589c:	00078513          	mv	x10,x15
    58a0:	c7dff0ef          	jal	551c <sd_readsector>
    58a4:	00153513          	seqz	x10,x10
    58a8:	00c12083          	lw	x1,12(x2)
    58ac:	01010113          	add	x2,x2,16
    58b0:	00008067          	ret
    58b4:	00400513          	li	x10,4
    58b8:	00008067          	ret
    58bc:	00008067          	ret

000058c0 <disk_write>:
    58c0:	02051e63          	bnez	x10,58fc <disk_write+0x3c>
    58c4:	00060793          	mv	x15,x12
    58c8:	0001d737          	lui	x14,0x1d
    58cc:	ee472703          	lw	x14,-284(x14) # 1cee4 <sd_initialized>
    58d0:	00300513          	li	x10,3
    58d4:	02070863          	beqz	x14,5904 <disk_write+0x44>
    58d8:	ff010113          	add	x2,x2,-16
    58dc:	00112623          	sw	x1,12(x2)
    58e0:	00068613          	mv	x12,x13
    58e4:	00078513          	mv	x10,x15
    58e8:	d01ff0ef          	jal	55e8 <sd_writesector>
    58ec:	00153513          	seqz	x10,x10
    58f0:	00c12083          	lw	x1,12(x2)
    58f4:	01010113          	add	x2,x2,16
    58f8:	00008067          	ret
    58fc:	00400513          	li	x10,4
    5900:	00008067          	ret
    5904:	00008067          	ret

00005908 <disk_ioctl>:
    5908:	00051c63          	bnez	x10,5920 <disk_ioctl+0x18>
    590c:	00200793          	li	x15,2
    5910:	00f58c63          	beq	x11,x15,5928 <disk_ioctl+0x20>
    5914:	ffd58593          	add	x11,x11,-3 # 3ffffffd <STACK_TOP+0x3feffffd>
    5918:	0015b513          	seqz	x10,x11
    591c:	00008067          	ret
    5920:	00400513          	li	x10,4
    5924:	00008067          	ret
    5928:	20000513          	li	x10,512
    592c:	00008067          	ret

00005930 <ld_dword>:
    5930:	00354783          	lbu	x15,3(x10)
    5934:	00879793          	sll	x15,x15,0x8
    5938:	00254703          	lbu	x14,2(x10)
    593c:	00f76733          	or	x14,x14,x15
    5940:	00871713          	sll	x14,x14,0x8
    5944:	00154783          	lbu	x15,1(x10)
    5948:	00e7e7b3          	or	x15,x15,x14
    594c:	00879793          	sll	x15,x15,0x8
    5950:	00054503          	lbu	x10,0(x10)
    5954:	00f56533          	or	x10,x10,x15
    5958:	00008067          	ret

0000595c <ld_qword>:
    595c:	00754783          	lbu	x15,7(x10)
    5960:	00879793          	sll	x15,x15,0x8
    5964:	00654703          	lbu	x14,6(x10)
    5968:	00f76733          	or	x14,x14,x15
    596c:	00871713          	sll	x14,x14,0x8
    5970:	00554783          	lbu	x15,5(x10)
    5974:	00e7e7b3          	or	x15,x15,x14
    5978:	00879793          	sll	x15,x15,0x8
    597c:	00454683          	lbu	x13,4(x10)
    5980:	00f6e6b3          	or	x13,x13,x15
    5984:	0187d793          	srl	x15,x15,0x18
    5988:	00869693          	sll	x13,x13,0x8
    598c:	00354703          	lbu	x14,3(x10)
    5990:	00d76733          	or	x14,x14,x13
    5994:	0186d693          	srl	x13,x13,0x18
    5998:	00879793          	sll	x15,x15,0x8
    599c:	00f6e7b3          	or	x15,x13,x15
    59a0:	00871713          	sll	x14,x14,0x8
    59a4:	00254583          	lbu	x11,2(x10)
    59a8:	00e5e5b3          	or	x11,x11,x14
    59ac:	01875713          	srl	x14,x14,0x18
    59b0:	00879793          	sll	x15,x15,0x8
    59b4:	00f767b3          	or	x15,x14,x15
    59b8:	00859593          	sll	x11,x11,0x8
    59bc:	00154703          	lbu	x14,1(x10)
    59c0:	00b76733          	or	x14,x14,x11
    59c4:	0185d593          	srl	x11,x11,0x18
    59c8:	00879793          	sll	x15,x15,0x8
    59cc:	00871713          	sll	x14,x14,0x8
    59d0:	00054503          	lbu	x10,0(x10)
    59d4:	00e56533          	or	x10,x10,x14
    59d8:	00f5e5b3          	or	x11,x11,x15
    59dc:	00008067          	ret

000059e0 <st_qword>:
    59e0:	00b50023          	sb	x11,0(x10)
    59e4:	0085d793          	srl	x15,x11,0x8
    59e8:	00f500a3          	sb	x15,1(x10)
    59ec:	0105d793          	srl	x15,x11,0x10
    59f0:	00f50123          	sb	x15,2(x10)
    59f4:	0185d593          	srl	x11,x11,0x18
    59f8:	00b501a3          	sb	x11,3(x10)
    59fc:	00c50223          	sb	x12,4(x10)
    5a00:	00865793          	srl	x15,x12,0x8
    5a04:	00f502a3          	sb	x15,5(x10)
    5a08:	01065793          	srl	x15,x12,0x10
    5a0c:	00f50323          	sb	x15,6(x10)
    5a10:	01865613          	srl	x12,x12,0x18
    5a14:	00c503a3          	sb	x12,7(x10)
    5a18:	00008067          	ret

00005a1c <clst2sect>:
    5a1c:	ffe58593          	add	x11,x11,-2
    5a20:	01c52783          	lw	x15,28(x10)
    5a24:	ffe78793          	add	x15,x15,-2
    5a28:	02f5fa63          	bgeu	x11,x15,5a5c <clst2sect+0x40>
    5a2c:	ff010113          	add	x2,x2,-16
    5a30:	00112623          	sw	x1,12(x2)
    5a34:	00812423          	sw	x8,8(x2)
    5a38:	00050413          	mv	x8,x10
    5a3c:	00a55503          	lhu	x10,10(x10)
    5a40:	5a1070ef          	jal	d7e0 <__mulsi3>
    5a44:	03042783          	lw	x15,48(x8)
    5a48:	00f50533          	add	x10,x10,x15
    5a4c:	00c12083          	lw	x1,12(x2)
    5a50:	00812403          	lw	x8,8(x2)
    5a54:	01010113          	add	x2,x2,16
    5a58:	00008067          	ret
    5a5c:	00000513          	li	x10,0
    5a60:	00008067          	ret

00005a64 <sum_sfn>:
    5a64:	00050713          	mv	x14,x10
    5a68:	00b50613          	add	x12,x10,11
    5a6c:	00000513          	li	x10,0
    5a70:	00155793          	srl	x15,x10,0x1
    5a74:	00751513          	sll	x10,x10,0x7
    5a78:	00a7e7b3          	or	x15,x15,x10
    5a7c:	00170713          	add	x14,x14,1
    5a80:	fff74683          	lbu	x13,-1(x14)
    5a84:	00d787b3          	add	x15,x15,x13
    5a88:	0ff7f513          	zext.b	x10,x15
    5a8c:	fec712e3          	bne	x14,x12,5a70 <sum_sfn+0xc>
    5a90:	00008067          	ret

00005a94 <xdir_sum>:
    5a94:	00050593          	mv	x11,x10
    5a98:	00154603          	lbu	x12,1(x10)
    5a9c:	00160613          	add	x12,x12,1
    5aa0:	00561613          	sll	x12,x12,0x5
    5aa4:	00000513          	li	x10,0
    5aa8:	00000793          	li	x15,0
    5aac:	00200813          	li	x16,2
    5ab0:	0080006f          	j	5ab8 <xdir_sum+0x24>
    5ab4:	00400793          	li	x15,4
    5ab8:	ff078ee3          	beq	x15,x16,5ab4 <xdir_sum+0x20>
    5abc:	00155713          	srl	x14,x10,0x1
    5ac0:	00f51513          	sll	x10,x10,0xf
    5ac4:	00a76733          	or	x14,x14,x10
    5ac8:	00f586b3          	add	x13,x11,x15
    5acc:	0006c683          	lbu	x13,0(x13) # ff0000 <STACK_TOP+0xef0000>
    5ad0:	00d70733          	add	x14,x14,x13
    5ad4:	01071513          	sll	x10,x14,0x10
    5ad8:	01055513          	srl	x10,x10,0x10
    5adc:	00178793          	add	x15,x15,1
    5ae0:	fcc7ece3          	bltu	x15,x12,5ab8 <xdir_sum+0x24>
    5ae4:	00008067          	ret

00005ae8 <init_alloc_info>:
    5ae8:	ff010113          	add	x2,x2,-16
    5aec:	00112623          	sw	x1,12(x2)
    5af0:	00812423          	sw	x8,8(x2)
    5af4:	00912223          	sw	x9,4(x2)
    5af8:	00050493          	mv	x9,x10
    5afc:	00058413          	mv	x8,x11
    5b00:	01052503          	lw	x10,16(x10)
    5b04:	03450513          	add	x10,x10,52
    5b08:	e29ff0ef          	jal	5930 <ld_dword>
    5b0c:	00a42423          	sw	x10,8(x8)
    5b10:	0104a503          	lw	x10,16(x9)
    5b14:	03850513          	add	x10,x10,56
    5b18:	e45ff0ef          	jal	595c <ld_qword>
    5b1c:	00a42823          	sw	x10,16(x8)
    5b20:	00b42a23          	sw	x11,20(x8)
    5b24:	0104a783          	lw	x15,16(x9)
    5b28:	0217c783          	lbu	x15,33(x15)
    5b2c:	0027f793          	and	x15,x15,2
    5b30:	00f403a3          	sb	x15,7(x8)
    5b34:	00042e23          	sw	x0,28(x8)
    5b38:	00c12083          	lw	x1,12(x2)
    5b3c:	00812403          	lw	x8,8(x2)
    5b40:	00412483          	lw	x9,4(x2)
    5b44:	01010113          	add	x2,x2,16
    5b48:	00008067          	ret

00005b4c <get_ldnumber>:
    5b4c:	00050593          	mv	x11,x10
    5b50:	00052503          	lw	x10,0(x10)
    5b54:	06050063          	beqz	x10,5bb4 <get_ldnumber+0x68>
    5b58:	00050793          	mv	x15,x10
    5b5c:	01f00693          	li	x13,31
    5b60:	03a00613          	li	x12,58
    5b64:	00178793          	add	x15,x15,1
    5b68:	fff7c703          	lbu	x14,-1(x15)
    5b6c:	04e6f863          	bgeu	x13,x14,5bbc <get_ldnumber+0x70>
    5b70:	fec71ae3          	bne	x14,x12,5b64 <get_ldnumber+0x18>
    5b74:	00054683          	lbu	x13,0(x10)
    5b78:	fd068713          	add	x14,x13,-48
    5b7c:	0ff77713          	zext.b	x14,x14
    5b80:	00900613          	li	x12,9
    5b84:	00e67663          	bgeu	x12,x14,5b90 <get_ldnumber+0x44>
    5b88:	fff00513          	li	x10,-1
    5b8c:	00008067          	ret
    5b90:	00250713          	add	x14,x10,2
    5b94:	fff00513          	li	x10,-1
    5b98:	fee79ae3          	bne	x15,x14,5b8c <get_ldnumber+0x40>
    5b9c:	fd068513          	add	x10,x13,-48
    5ba0:	00a05663          	blez	x10,5bac <get_ldnumber+0x60>
    5ba4:	fff00513          	li	x10,-1
    5ba8:	00008067          	ret
    5bac:	00f5a023          	sw	x15,0(x11)
    5bb0:	00008067          	ret
    5bb4:	fff00513          	li	x10,-1
    5bb8:	00008067          	ret
    5bbc:	00000513          	li	x10,0
    5bc0:	00008067          	ret

00005bc4 <ilog10>:
    5bc4:	fd010113          	add	x2,x2,-48
    5bc8:	02112623          	sw	x1,44(x2)
    5bcc:	02812423          	sw	x8,40(x2)
    5bd0:	02912223          	sw	x9,36(x2)
    5bd4:	03212023          	sw	x18,32(x2)
    5bd8:	01312e23          	sw	x19,28(x2)
    5bdc:	01412c23          	sw	x20,24(x2)
    5be0:	01512a23          	sw	x21,20(x2)
    5be4:	01612823          	sw	x22,16(x2)
    5be8:	01712623          	sw	x23,12(x2)
    5bec:	01812423          	sw	x24,8(x2)
    5bf0:	01912223          	sw	x25,4(x2)
    5bf4:	01a12023          	sw	x26,0(x2)
    5bf8:	00050c13          	mv	x24,x10
    5bfc:	00058c93          	mv	x25,x11
    5c00:	000127b7          	lui	x15,0x12
    5c04:	ed07a603          	lw	x12,-304(x15) # 11ed0 <nes_bsram_size+0x8>
    5c08:	ed47a683          	lw	x13,-300(x15)
    5c0c:	3b1090ef          	jal	f7bc <__gedf2>
    5c10:	0a054463          	bltz	x10,5cb8 <ilog10+0xf4>
    5c14:	00000d13          	li	x26,0
    5c18:	00012737          	lui	x14,0x12
    5c1c:	ed872903          	lw	x18,-296(x14) # 11ed8 <nes_bsram_size+0x10>
    5c20:	edc72983          	lw	x19,-292(x14)
    5c24:	000127b7          	lui	x15,0x12
    5c28:	ed07ab03          	lw	x22,-304(x15) # 11ed0 <nes_bsram_size+0x8>
    5c2c:	ed47ab83          	lw	x23,-300(x15)
    5c30:	00090a13          	mv	x20,x18
    5c34:	00098a93          	mv	x21,x19
    5c38:	000b0413          	mv	x8,x22
    5c3c:	000b8493          	mv	x9,x23
    5c40:	03c0006f          	j	5c7c <ilog10+0xb8>
    5c44:	000b0613          	mv	x12,x22
    5c48:	000b8693          	mv	x13,x23
    5c4c:	000c0513          	mv	x10,x24
    5c50:	000c8593          	mv	x11,x25
    5c54:	230090ef          	jal	ee84 <__divdf3>
    5c58:	00050c13          	mv	x24,x10
    5c5c:	00058c93          	mv	x25,x11
    5c60:	001d0d13          	add	x26,x26,1
    5c64:	00040613          	mv	x12,x8
    5c68:	00048693          	mv	x13,x9
    5c6c:	000c0513          	mv	x10,x24
    5c70:	000c8593          	mv	x11,x25
    5c74:	349090ef          	jal	f7bc <__gedf2>
    5c78:	10054663          	bltz	x10,5d84 <ilog10+0x1c0>
    5c7c:	00090613          	mv	x12,x18
    5c80:	00098693          	mv	x13,x19
    5c84:	000c0513          	mv	x10,x24
    5c88:	000c8593          	mv	x11,x25
    5c8c:	331090ef          	jal	f7bc <__gedf2>
    5c90:	fa054ae3          	bltz	x10,5c44 <ilog10+0x80>
    5c94:	000a0613          	mv	x12,x20
    5c98:	000a8693          	mv	x13,x21
    5c9c:	000c0513          	mv	x10,x24
    5ca0:	000c8593          	mv	x11,x25
    5ca4:	1e0090ef          	jal	ee84 <__divdf3>
    5ca8:	00050c13          	mv	x24,x10
    5cac:	00058c93          	mv	x25,x11
    5cb0:	005d0d13          	add	x26,x26,5
    5cb4:	fb1ff06f          	j	5c64 <ilog10+0xa0>
    5cb8:	000127b7          	lui	x15,0x12
    5cbc:	ee07a603          	lw	x12,-288(x15) # 11ee0 <nes_bsram_size+0x18>
    5cc0:	ee47a683          	lw	x13,-284(x15)
    5cc4:	000c0513          	mv	x10,x24
    5cc8:	000c8593          	mv	x11,x25
    5ccc:	3f1090ef          	jal	f8bc <__ledf2>
    5cd0:	00000d13          	li	x26,0
    5cd4:	0a055663          	bgez	x10,5d80 <ilog10+0x1bc>
    5cd8:	000127b7          	lui	x15,0x12
    5cdc:	ee87a903          	lw	x18,-280(x15) # 11ee8 <nes_bsram_size+0x20>
    5ce0:	eec7a983          	lw	x19,-276(x15)
    5ce4:	000127b7          	lui	x15,0x12
    5ce8:	ed07aa03          	lw	x20,-304(x15) # 11ed0 <nes_bsram_size+0x8>
    5cec:	ed47aa83          	lw	x21,-300(x15)
    5cf0:	000127b7          	lui	x15,0x12
    5cf4:	ed87ab03          	lw	x22,-296(x15) # 11ed8 <nes_bsram_size+0x10>
    5cf8:	edc7ab83          	lw	x23,-292(x15)
    5cfc:	000127b7          	lui	x15,0x12
    5d00:	ee07a403          	lw	x8,-288(x15) # 11ee0 <nes_bsram_size+0x18>
    5d04:	ee47a483          	lw	x9,-284(x15)
    5d08:	03c0006f          	j	5d44 <ilog10+0x180>
    5d0c:	000a0613          	mv	x12,x20
    5d10:	000a8693          	mv	x13,x21
    5d14:	000c0513          	mv	x10,x24
    5d18:	000c8593          	mv	x11,x25
    5d1c:	4a9090ef          	jal	f9c4 <__muldf3>
    5d20:	00050c13          	mv	x24,x10
    5d24:	00058c93          	mv	x25,x11
    5d28:	fffd0d13          	add	x26,x26,-1
    5d2c:	00040613          	mv	x12,x8
    5d30:	00048693          	mv	x13,x9
    5d34:	000c0513          	mv	x10,x24
    5d38:	000c8593          	mv	x11,x25
    5d3c:	381090ef          	jal	f8bc <__ledf2>
    5d40:	04055263          	bgez	x10,5d84 <ilog10+0x1c0>
    5d44:	00090613          	mv	x12,x18
    5d48:	00098693          	mv	x13,x19
    5d4c:	000c0513          	mv	x10,x24
    5d50:	000c8593          	mv	x11,x25
    5d54:	369090ef          	jal	f8bc <__ledf2>
    5d58:	fa055ae3          	bgez	x10,5d0c <ilog10+0x148>
    5d5c:	000b0613          	mv	x12,x22
    5d60:	000b8693          	mv	x13,x23
    5d64:	000c0513          	mv	x10,x24
    5d68:	000c8593          	mv	x11,x25
    5d6c:	459090ef          	jal	f9c4 <__muldf3>
    5d70:	00050c13          	mv	x24,x10
    5d74:	00058c93          	mv	x25,x11
    5d78:	ffbd0d13          	add	x26,x26,-5
    5d7c:	fb1ff06f          	j	5d2c <ilog10+0x168>
    5d80:	00000d13          	li	x26,0
    5d84:	000d0513          	mv	x10,x26
    5d88:	02c12083          	lw	x1,44(x2)
    5d8c:	02812403          	lw	x8,40(x2)
    5d90:	02412483          	lw	x9,36(x2)
    5d94:	02012903          	lw	x18,32(x2)
    5d98:	01c12983          	lw	x19,28(x2)
    5d9c:	01812a03          	lw	x20,24(x2)
    5da0:	01412a83          	lw	x21,20(x2)
    5da4:	01012b03          	lw	x22,16(x2)
    5da8:	00c12b83          	lw	x23,12(x2)
    5dac:	00812c03          	lw	x24,8(x2)
    5db0:	00412c83          	lw	x25,4(x2)
    5db4:	00012d03          	lw	x26,0(x2)
    5db8:	03010113          	add	x2,x2,48
    5dbc:	00008067          	ret

00005dc0 <i10x>:
    5dc0:	fe010113          	add	x2,x2,-32
    5dc4:	00112e23          	sw	x1,28(x2)
    5dc8:	00812c23          	sw	x8,24(x2)
    5dcc:	00912a23          	sw	x9,20(x2)
    5dd0:	01212823          	sw	x18,16(x2)
    5dd4:	01312623          	sw	x19,12(x2)
    5dd8:	01412423          	sw	x20,8(x2)
    5ddc:	01512223          	sw	x21,4(x2)
    5de0:	00050413          	mv	x8,x10
    5de4:	04a05e63          	blez	x10,5e40 <i10x+0x80>
    5de8:	000127b7          	lui	x15,0x12
    5dec:	ee07a503          	lw	x10,-288(x15) # 11ee0 <nes_bsram_size+0x18>
    5df0:	ee47a583          	lw	x11,-284(x15)
    5df4:	00400493          	li	x9,4
    5df8:	000127b7          	lui	x15,0x12
    5dfc:	ed07aa03          	lw	x20,-304(x15) # 11ed0 <nes_bsram_size+0x8>
    5e00:	ed47aa83          	lw	x21,-300(x15)
    5e04:	000127b7          	lui	x15,0x12
    5e08:	ed87a903          	lw	x18,-296(x15) # 11ed8 <nes_bsram_size+0x10>
    5e0c:	edc7a983          	lw	x19,-292(x15)
    5e10:	0180006f          	j	5e28 <i10x+0x68>
    5e14:	000a0613          	mv	x12,x20
    5e18:	000a8693          	mv	x13,x21
    5e1c:	3a9090ef          	jal	f9c4 <__muldf3>
    5e20:	fff40413          	add	x8,x8,-1
    5e24:	08805263          	blez	x8,5ea8 <i10x+0xe8>
    5e28:	fe84d6e3          	bge	x9,x8,5e14 <i10x+0x54>
    5e2c:	00090613          	mv	x12,x18
    5e30:	00098693          	mv	x13,x19
    5e34:	391090ef          	jal	f9c4 <__muldf3>
    5e38:	ffb40413          	add	x8,x8,-5
    5e3c:	fe9ff06f          	j	5e24 <i10x+0x64>
    5e40:	04055e63          	bgez	x10,5e9c <i10x+0xdc>
    5e44:	000127b7          	lui	x15,0x12
    5e48:	ee07a503          	lw	x10,-288(x15) # 11ee0 <nes_bsram_size+0x18>
    5e4c:	ee47a583          	lw	x11,-284(x15)
    5e50:	ffc00493          	li	x9,-4
    5e54:	000127b7          	lui	x15,0x12
    5e58:	ed07aa03          	lw	x20,-304(x15) # 11ed0 <nes_bsram_size+0x8>
    5e5c:	ed47aa83          	lw	x21,-300(x15)
    5e60:	000127b7          	lui	x15,0x12
    5e64:	ed87a903          	lw	x18,-296(x15) # 11ed8 <nes_bsram_size+0x10>
    5e68:	edc7a983          	lw	x19,-292(x15)
    5e6c:	0180006f          	j	5e84 <i10x+0xc4>
    5e70:	000a0613          	mv	x12,x20
    5e74:	000a8693          	mv	x13,x21
    5e78:	00c090ef          	jal	ee84 <__divdf3>
    5e7c:	00140413          	add	x8,x8,1
    5e80:	02045463          	bgez	x8,5ea8 <i10x+0xe8>
    5e84:	fe9456e3          	bge	x8,x9,5e70 <i10x+0xb0>
    5e88:	00090613          	mv	x12,x18
    5e8c:	00098693          	mv	x13,x19
    5e90:	7f5080ef          	jal	ee84 <__divdf3>
    5e94:	00540413          	add	x8,x8,5
    5e98:	fe9ff06f          	j	5e80 <i10x+0xc0>
    5e9c:	000127b7          	lui	x15,0x12
    5ea0:	ee07a503          	lw	x10,-288(x15) # 11ee0 <nes_bsram_size+0x18>
    5ea4:	ee47a583          	lw	x11,-284(x15)
    5ea8:	01c12083          	lw	x1,28(x2)
    5eac:	01812403          	lw	x8,24(x2)
    5eb0:	01412483          	lw	x9,20(x2)
    5eb4:	01012903          	lw	x18,16(x2)
    5eb8:	00c12983          	lw	x19,12(x2)
    5ebc:	00812a03          	lw	x20,8(x2)
    5ec0:	00412a83          	lw	x21,4(x2)
    5ec4:	02010113          	add	x2,x2,32
    5ec8:	00008067          	ret

00005ecc <validate>:
    5ecc:	ff010113          	add	x2,x2,-16
    5ed0:	00112623          	sw	x1,12(x2)
    5ed4:	00812423          	sw	x8,8(x2)
    5ed8:	00912223          	sw	x9,4(x2)
    5edc:	00050413          	mv	x8,x10
    5ee0:	00058493          	mv	x9,x11
    5ee4:	04050c63          	beqz	x10,5f3c <validate+0x70>
    5ee8:	00052783          	lw	x15,0(x10)
    5eec:	04078c63          	beqz	x15,5f44 <validate+0x78>
    5ef0:	0007c703          	lbu	x14,0(x15)
    5ef4:	04070e63          	beqz	x14,5f50 <validate+0x84>
    5ef8:	00455683          	lhu	x13,4(x10)
    5efc:	0067d703          	lhu	x14,6(x15)
    5f00:	02e68263          	beq	x13,x14,5f24 <validate+0x58>
    5f04:	00900513          	li	x10,9
    5f08:	00000413          	li	x8,0
    5f0c:	0084a023          	sw	x8,0(x9)
    5f10:	00c12083          	lw	x1,12(x2)
    5f14:	00812403          	lw	x8,8(x2)
    5f18:	00412483          	lw	x9,4(x2)
    5f1c:	01010113          	add	x2,x2,16
    5f20:	00008067          	ret
    5f24:	0017c503          	lbu	x10,1(x15)
    5f28:	8d5ff0ef          	jal	57fc <disk_status>
    5f2c:	00157513          	and	x10,x10,1
    5f30:	02051663          	bnez	x10,5f5c <validate+0x90>
    5f34:	00042403          	lw	x8,0(x8)
    5f38:	fd5ff06f          	j	5f0c <validate+0x40>
    5f3c:	00900513          	li	x10,9
    5f40:	fcdff06f          	j	5f0c <validate+0x40>
    5f44:	00078413          	mv	x8,x15
    5f48:	00900513          	li	x10,9
    5f4c:	fc1ff06f          	j	5f0c <validate+0x40>
    5f50:	00900513          	li	x10,9
    5f54:	00000413          	li	x8,0
    5f58:	fb5ff06f          	j	5f0c <validate+0x40>
    5f5c:	00900513          	li	x10,9
    5f60:	00000413          	li	x8,0
    5f64:	fa9ff06f          	j	5f0c <validate+0x40>

00005f68 <sync_window>:
    5f68:	ff010113          	add	x2,x2,-16
    5f6c:	00112623          	sw	x1,12(x2)
    5f70:	00912223          	sw	x9,4(x2)
    5f74:	00454783          	lbu	x15,4(x10)
    5f78:	00000493          	li	x9,0
    5f7c:	00079c63          	bnez	x15,5f94 <sync_window+0x2c>
    5f80:	00048513          	mv	x10,x9
    5f84:	00c12083          	lw	x1,12(x2)
    5f88:	00412483          	lw	x9,4(x2)
    5f8c:	01010113          	add	x2,x2,16
    5f90:	00008067          	ret
    5f94:	00812423          	sw	x8,8(x2)
    5f98:	01212023          	sw	x18,0(x2)
    5f9c:	00050413          	mv	x8,x10
    5fa0:	03c50913          	add	x18,x10,60
    5fa4:	00100693          	li	x13,1
    5fa8:	03852603          	lw	x12,56(x10)
    5fac:	00090593          	mv	x11,x18
    5fb0:	00154503          	lbu	x10,1(x10)
    5fb4:	90dff0ef          	jal	58c0 <disk_write>
    5fb8:	00050493          	mv	x9,x10
    5fbc:	04051a63          	bnez	x10,6010 <sync_window+0xa8>
    5fc0:	00040223          	sb	x0,4(x8)
    5fc4:	03842603          	lw	x12,56(x8)
    5fc8:	02042703          	lw	x14,32(x8)
    5fcc:	02842783          	lw	x15,40(x8)
    5fd0:	40f607b3          	sub	x15,x12,x15
    5fd4:	04e7f663          	bgeu	x15,x14,6020 <sync_window+0xb8>
    5fd8:	00344683          	lbu	x13,3(x8)
    5fdc:	00200793          	li	x15,2
    5fe0:	00f68863          	beq	x13,x15,5ff0 <sync_window+0x88>
    5fe4:	00812403          	lw	x8,8(x2)
    5fe8:	00012903          	lw	x18,0(x2)
    5fec:	f95ff06f          	j	5f80 <sync_window+0x18>
    5ff0:	00100693          	li	x13,1
    5ff4:	00e60633          	add	x12,x12,x14
    5ff8:	00090593          	mv	x11,x18
    5ffc:	00144503          	lbu	x10,1(x8)
    6000:	8c1ff0ef          	jal	58c0 <disk_write>
    6004:	00812403          	lw	x8,8(x2)
    6008:	00012903          	lw	x18,0(x2)
    600c:	f75ff06f          	j	5f80 <sync_window+0x18>
    6010:	00100493          	li	x9,1
    6014:	00812403          	lw	x8,8(x2)
    6018:	00012903          	lw	x18,0(x2)
    601c:	f65ff06f          	j	5f80 <sync_window+0x18>
    6020:	00812403          	lw	x8,8(x2)
    6024:	00012903          	lw	x18,0(x2)
    6028:	f59ff06f          	j	5f80 <sync_window+0x18>

0000602c <move_window>:
    602c:	03852783          	lw	x15,56(x10)
    6030:	00b79663          	bne	x15,x11,603c <move_window+0x10>
    6034:	00000513          	li	x10,0
    6038:	00008067          	ret
    603c:	ff010113          	add	x2,x2,-16
    6040:	00112623          	sw	x1,12(x2)
    6044:	00812423          	sw	x8,8(x2)
    6048:	00912223          	sw	x9,4(x2)
    604c:	00050413          	mv	x8,x10
    6050:	00058493          	mv	x9,x11
    6054:	f15ff0ef          	jal	5f68 <sync_window>
    6058:	00050c63          	beqz	x10,6070 <move_window+0x44>
    605c:	00c12083          	lw	x1,12(x2)
    6060:	00812403          	lw	x8,8(x2)
    6064:	00412483          	lw	x9,4(x2)
    6068:	01010113          	add	x2,x2,16
    606c:	00008067          	ret
    6070:	00100693          	li	x13,1
    6074:	00048613          	mv	x12,x9
    6078:	03c40593          	add	x11,x8,60
    607c:	00144503          	lbu	x10,1(x8)
    6080:	ff8ff0ef          	jal	5878 <disk_read>
    6084:	00050663          	beqz	x10,6090 <move_window+0x64>
    6088:	00100513          	li	x10,1
    608c:	fff00493          	li	x9,-1
    6090:	02942c23          	sw	x9,56(x8)
    6094:	fc9ff06f          	j	605c <move_window+0x30>

00006098 <change_bitmap>:
    6098:	fd010113          	add	x2,x2,-48
    609c:	02112623          	sw	x1,44(x2)
    60a0:	02812423          	sw	x8,40(x2)
    60a4:	02912223          	sw	x9,36(x2)
    60a8:	03212023          	sw	x18,32(x2)
    60ac:	01312e23          	sw	x19,28(x2)
    60b0:	01412c23          	sw	x20,24(x2)
    60b4:	01512a23          	sw	x21,20(x2)
    60b8:	01612823          	sw	x22,16(x2)
    60bc:	01712623          	sw	x23,12(x2)
    60c0:	00050913          	mv	x18,x10
    60c4:	00060b93          	mv	x23,x12
    60c8:	00068a13          	mv	x20,x13
    60cc:	ffe58793          	add	x15,x11,-2
    60d0:	00c7d593          	srl	x11,x15,0xc
    60d4:	03452703          	lw	x14,52(x10)
    60d8:	00e585b3          	add	x11,x11,x14
    60dc:	0037d493          	srl	x9,x15,0x3
    60e0:	1ff4f493          	and	x9,x9,511
    60e4:	0077f793          	and	x15,x15,7
    60e8:	00100413          	li	x8,1
    60ec:	00f41433          	sll	x8,x8,x15
    60f0:	0ff47413          	zext.b	x8,x8
    60f4:	00100993          	li	x19,1
    60f8:	1ff00a93          	li	x21,511
    60fc:	00158b13          	add	x22,x11,1
    6100:	00090513          	mv	x10,x18
    6104:	f29ff0ef          	jal	602c <move_window>
    6108:	00050693          	mv	x13,x10
    610c:	08051663          	bnez	x10,6198 <change_bitmap+0x100>
    6110:	009907b3          	add	x15,x18,x9
    6114:	03c7c783          	lbu	x15,60(x15)
    6118:	00f47733          	and	x14,x8,x15
    611c:	00e03733          	snez	x14,x14
    6120:	08ea0063          	beq	x20,x14,61a0 <change_bitmap+0x108>
    6124:	00990733          	add	x14,x18,x9
    6128:	00f447b3          	xor	x15,x8,x15
    612c:	02f70e23          	sb	x15,60(x14)
    6130:	01390223          	sb	x19,4(x18)
    6134:	fffb8513          	add	x10,x23,-1
    6138:	02051c63          	bnez	x10,6170 <change_bitmap+0xd8>
    613c:	0700006f          	j	61ac <change_bitmap+0x114>
    6140:	00098413          	mv	x8,x19
    6144:	009907b3          	add	x15,x18,x9
    6148:	03c7c783          	lbu	x15,60(x15)
    614c:	0087f733          	and	x14,x15,x8
    6150:	00e03733          	snez	x14,x14
    6154:	05470a63          	beq	x14,x20,61a8 <change_bitmap+0x110>
    6158:	00990733          	add	x14,x18,x9
    615c:	0087c7b3          	xor	x15,x15,x8
    6160:	02f70e23          	sb	x15,60(x14)
    6164:	01390223          	sb	x19,4(x18)
    6168:	fff50513          	add	x10,x10,-1
    616c:	04050063          	beqz	x10,61ac <change_bitmap+0x114>
    6170:	00141413          	sll	x8,x8,0x1
    6174:	0ff47413          	zext.b	x8,x8
    6178:	fc0416e3          	bnez	x8,6144 <change_bitmap+0xac>
    617c:	00148493          	add	x9,x9,1
    6180:	00098413          	mv	x8,x19
    6184:	fa9afee3          	bgeu	x21,x9,6140 <change_bitmap+0xa8>
    6188:	000b0593          	mv	x11,x22
    618c:	00068493          	mv	x9,x13
    6190:	00050b93          	mv	x23,x10
    6194:	f69ff06f          	j	60fc <change_bitmap+0x64>
    6198:	00100513          	li	x10,1
    619c:	0100006f          	j	61ac <change_bitmap+0x114>
    61a0:	00200513          	li	x10,2
    61a4:	0080006f          	j	61ac <change_bitmap+0x114>
    61a8:	00200513          	li	x10,2
    61ac:	02c12083          	lw	x1,44(x2)
    61b0:	02812403          	lw	x8,40(x2)
    61b4:	02412483          	lw	x9,36(x2)
    61b8:	02012903          	lw	x18,32(x2)
    61bc:	01c12983          	lw	x19,28(x2)
    61c0:	01812a03          	lw	x20,24(x2)
    61c4:	01412a83          	lw	x21,20(x2)
    61c8:	01012b03          	lw	x22,16(x2)
    61cc:	00c12b83          	lw	x23,12(x2)
    61d0:	03010113          	add	x2,x2,48
    61d4:	00008067          	ret

000061d8 <dir_clear>:
    61d8:	fe010113          	add	x2,x2,-32
    61dc:	00112e23          	sw	x1,28(x2)
    61e0:	00912a23          	sw	x9,20(x2)
    61e4:	01212823          	sw	x18,16(x2)
    61e8:	00050493          	mv	x9,x10
    61ec:	00058913          	mv	x18,x11
    61f0:	d79ff0ef          	jal	5f68 <sync_window>
    61f4:	00050e63          	beqz	x10,6210 <dir_clear+0x38>
    61f8:	00100513          	li	x10,1
    61fc:	01c12083          	lw	x1,28(x2)
    6200:	01412483          	lw	x9,20(x2)
    6204:	01012903          	lw	x18,16(x2)
    6208:	02010113          	add	x2,x2,32
    620c:	00008067          	ret
    6210:	00812c23          	sw	x8,24(x2)
    6214:	01312623          	sw	x19,12(x2)
    6218:	00050413          	mv	x8,x10
    621c:	00090593          	mv	x11,x18
    6220:	00048513          	mv	x10,x9
    6224:	ff8ff0ef          	jal	5a1c <clst2sect>
    6228:	00050913          	mv	x18,x10
    622c:	02a4ac23          	sw	x10,56(x9)
    6230:	03c48993          	add	x19,x9,60
    6234:	20000613          	li	x12,512
    6238:	00000593          	li	x11,0
    623c:	00098513          	mv	x10,x19
    6240:	d38fe0ef          	jal	4778 <memset>
    6244:	00a4d783          	lhu	x15,10(x9)
    6248:	02078463          	beqz	x15,6270 <dir_clear+0x98>
    624c:	00100693          	li	x13,1
    6250:	00890633          	add	x12,x18,x8
    6254:	00098593          	mv	x11,x19
    6258:	0014c503          	lbu	x10,1(x9)
    625c:	e64ff0ef          	jal	58c0 <disk_write>
    6260:	00051863          	bnez	x10,6270 <dir_clear+0x98>
    6264:	00140413          	add	x8,x8,1
    6268:	00a4d783          	lhu	x15,10(x9)
    626c:	fef460e3          	bltu	x8,x15,624c <dir_clear+0x74>
    6270:	00a4d503          	lhu	x10,10(x9)
    6274:	40850533          	sub	x10,x10,x8
    6278:	00a03533          	snez	x10,x10
    627c:	01812403          	lw	x8,24(x2)
    6280:	00c12983          	lw	x19,12(x2)
    6284:	f79ff06f          	j	61fc <dir_clear+0x24>

00006288 <put_utf>:
    6288:	ff010113          	add	x2,x2,-16
    628c:	00112623          	sw	x1,12(x2)
    6290:	00812423          	sw	x8,8(x2)
    6294:	00912223          	sw	x9,4(x2)
    6298:	00058493          	mv	x9,x11
    629c:	00060413          	mv	x8,x12
    62a0:	1b500593          	li	x11,437
    62a4:	364070ef          	jal	d608 <ff_uni2oem>
    62a8:	00050793          	mv	x15,x10
    62ac:	0ff00713          	li	x14,255
    62b0:	02a77c63          	bgeu	x14,x10,62e8 <put_utf+0x60>
    62b4:	00100713          	li	x14,1
    62b8:	00000513          	li	x10,0
    62bc:	00876c63          	bltu	x14,x8,62d4 <put_utf+0x4c>
    62c0:	00c12083          	lw	x1,12(x2)
    62c4:	00812403          	lw	x8,8(x2)
    62c8:	00412483          	lw	x9,4(x2)
    62cc:	01010113          	add	x2,x2,16
    62d0:	00008067          	ret
    62d4:	0087d713          	srl	x14,x15,0x8
    62d8:	00e48023          	sb	x14,0(x9)
    62dc:	00f480a3          	sb	x15,1(x9)
    62e0:	00200513          	li	x10,2
    62e4:	fddff06f          	j	62c0 <put_utf+0x38>
    62e8:	00000513          	li	x10,0
    62ec:	fc078ae3          	beqz	x15,62c0 <put_utf+0x38>
    62f0:	00040513          	mv	x10,x8
    62f4:	fc0406e3          	beqz	x8,62c0 <put_utf+0x38>
    62f8:	00f48023          	sb	x15,0(x9)
    62fc:	00100513          	li	x10,1
    6300:	fc1ff06f          	j	62c0 <put_utf+0x38>

00006304 <xname_sum>:
    6304:	ff010113          	add	x2,x2,-16
    6308:	00112623          	sw	x1,12(x2)
    630c:	00812423          	sw	x8,8(x2)
    6310:	00912223          	sw	x9,4(x2)
    6314:	00250493          	add	x9,x10,2
    6318:	00055503          	lhu	x10,0(x10)
    631c:	06050c63          	beqz	x10,6394 <xname_sum+0x90>
    6320:	00000413          	li	x8,0
    6324:	38c070ef          	jal	d6b0 <ff_wtoupper>
    6328:	01051713          	sll	x14,x10,0x10
    632c:	01075713          	srl	x14,x14,0x10
    6330:	00145793          	srl	x15,x8,0x1
    6334:	00f41413          	sll	x8,x8,0xf
    6338:	0087e7b3          	or	x15,x15,x8
    633c:	01079793          	sll	x15,x15,0x10
    6340:	0107d793          	srl	x15,x15,0x10
    6344:	0ff57513          	zext.b	x10,x10
    6348:	00a787b3          	add	x15,x15,x10
    634c:	01079413          	sll	x8,x15,0x10
    6350:	01045413          	srl	x8,x8,0x10
    6354:	00145413          	srl	x8,x8,0x1
    6358:	00f79793          	sll	x15,x15,0xf
    635c:	00f46433          	or	x8,x8,x15
    6360:	00875713          	srl	x14,x14,0x8
    6364:	00e40433          	add	x8,x8,x14
    6368:	01041413          	sll	x8,x8,0x10
    636c:	01045413          	srl	x8,x8,0x10
    6370:	00248493          	add	x9,x9,2
    6374:	ffe4d503          	lhu	x10,-2(x9)
    6378:	fa0516e3          	bnez	x10,6324 <xname_sum+0x20>
    637c:	00040513          	mv	x10,x8
    6380:	00c12083          	lw	x1,12(x2)
    6384:	00812403          	lw	x8,8(x2)
    6388:	00412483          	lw	x9,4(x2)
    638c:	01010113          	add	x2,x2,16
    6390:	00008067          	ret
    6394:	00050413          	mv	x8,x10
    6398:	fe5ff06f          	j	637c <xname_sum+0x78>

0000639c <sync_fs>:
    639c:	ff010113          	add	x2,x2,-16
    63a0:	00112623          	sw	x1,12(x2)
    63a4:	00812423          	sw	x8,8(x2)
    63a8:	00050413          	mv	x8,x10
    63ac:	bbdff0ef          	jal	5f68 <sync_window>
    63b0:	02051263          	bnez	x10,63d4 <sync_fs+0x38>
    63b4:	00044703          	lbu	x14,0(x8)
    63b8:	00300793          	li	x15,3
    63bc:	02f70463          	beq	x14,x15,63e4 <sync_fs+0x48>
    63c0:	00000613          	li	x12,0
    63c4:	00000593          	li	x11,0
    63c8:	00144503          	lbu	x10,1(x8)
    63cc:	d3cff0ef          	jal	5908 <disk_ioctl>
    63d0:	00a03533          	snez	x10,x10
    63d4:	00c12083          	lw	x1,12(x2)
    63d8:	00812403          	lw	x8,8(x2)
    63dc:	01010113          	add	x2,x2,16
    63e0:	00008067          	ret
    63e4:	00544703          	lbu	x14,5(x8)
    63e8:	00100793          	li	x15,1
    63ec:	fcf71ae3          	bne	x14,x15,63c0 <sync_fs+0x24>
    63f0:	00912223          	sw	x9,4(x2)
    63f4:	03c40493          	add	x9,x8,60
    63f8:	20000613          	li	x12,512
    63fc:	00000593          	li	x11,0
    6400:	00048513          	mv	x10,x9
    6404:	b74fe0ef          	jal	4778 <memset>
    6408:	05500793          	li	x15,85
    640c:	22f40d23          	sb	x15,570(x8)
    6410:	faa00793          	li	x15,-86
    6414:	22f40da3          	sb	x15,571(x8)
    6418:	05200793          	li	x15,82
    641c:	02f40e23          	sb	x15,60(x8)
    6420:	02f40ea3          	sb	x15,61(x8)
    6424:	06100793          	li	x15,97
    6428:	02f40f23          	sb	x15,62(x8)
    642c:	04100713          	li	x14,65
    6430:	02e40fa3          	sb	x14,63(x8)
    6434:	07200693          	li	x13,114
    6438:	22d40023          	sb	x13,544(x8)
    643c:	22d400a3          	sb	x13,545(x8)
    6440:	22e40123          	sb	x14,546(x8)
    6444:	22f401a3          	sb	x15,547(x8)
    6448:	01842783          	lw	x15,24(x8)
    644c:	22f40223          	sb	x15,548(x8)
    6450:	0087d713          	srl	x14,x15,0x8
    6454:	22e402a3          	sb	x14,549(x8)
    6458:	0107d713          	srl	x14,x15,0x10
    645c:	22e40323          	sb	x14,550(x8)
    6460:	0187d793          	srl	x15,x15,0x18
    6464:	22f403a3          	sb	x15,551(x8)
    6468:	01442783          	lw	x15,20(x8)
    646c:	22f40423          	sb	x15,552(x8)
    6470:	0087d713          	srl	x14,x15,0x8
    6474:	22e404a3          	sb	x14,553(x8)
    6478:	0107d713          	srl	x14,x15,0x10
    647c:	22e40523          	sb	x14,554(x8)
    6480:	0187d793          	srl	x15,x15,0x18
    6484:	22f405a3          	sb	x15,555(x8)
    6488:	02442603          	lw	x12,36(x8)
    648c:	00160613          	add	x12,x12,1
    6490:	02c42c23          	sw	x12,56(x8)
    6494:	00100693          	li	x13,1
    6498:	00048593          	mv	x11,x9
    649c:	00144503          	lbu	x10,1(x8)
    64a0:	c20ff0ef          	jal	58c0 <disk_write>
    64a4:	000402a3          	sb	x0,5(x8)
    64a8:	00412483          	lw	x9,4(x2)
    64ac:	f15ff06f          	j	63c0 <sync_fs+0x24>

000064b0 <put_fat>:
    64b0:	fe010113          	add	x2,x2,-32
    64b4:	00112e23          	sw	x1,28(x2)
    64b8:	01312623          	sw	x19,12(x2)
    64bc:	00100793          	li	x15,1
    64c0:	00200993          	li	x19,2
    64c4:	2ab7f463          	bgeu	x15,x11,676c <put_fat+0x2bc>
    64c8:	00812c23          	sw	x8,24(x2)
    64cc:	00912a23          	sw	x9,20(x2)
    64d0:	01212823          	sw	x18,16(x2)
    64d4:	00050493          	mv	x9,x10
    64d8:	00058413          	mv	x8,x11
    64dc:	00060913          	mv	x18,x12
    64e0:	01c52783          	lw	x15,28(x10)
    64e4:	00200993          	li	x19,2
    64e8:	26f5fc63          	bgeu	x11,x15,6760 <put_fat+0x2b0>
    64ec:	00054783          	lbu	x15,0(x10)
    64f0:	00200713          	li	x14,2
    64f4:	1ce78463          	beq	x15,x14,66bc <put_fat+0x20c>
    64f8:	0cf76663          	bltu	x14,x15,65c4 <put_fat+0x114>
    64fc:	00100713          	li	x14,1
    6500:	0ae79a63          	bne	x15,x14,65b4 <put_fat+0x104>
    6504:	01412423          	sw	x20,8(x2)
    6508:	0015da13          	srl	x20,x11,0x1
    650c:	00ba0a33          	add	x20,x20,x11
    6510:	009a5593          	srl	x11,x20,0x9
    6514:	02852783          	lw	x15,40(x10)
    6518:	00f585b3          	add	x11,x11,x15
    651c:	b11ff0ef          	jal	602c <move_window>
    6520:	00050993          	mv	x19,x10
    6524:	24051e63          	bnez	x10,6780 <put_fat+0x2d0>
    6528:	01512223          	sw	x21,4(x2)
    652c:	01612023          	sw	x22,0(x2)
    6530:	03c48a93          	add	x21,x9,60
    6534:	001a0b13          	add	x22,x20,1
    6538:	1ffa7a13          	and	x20,x20,511
    653c:	014a8a33          	add	x20,x21,x20
    6540:	00147413          	and	x8,x8,1
    6544:	12040a63          	beqz	x8,6678 <put_fat+0x1c8>
    6548:	000a4783          	lbu	x15,0(x20)
    654c:	00f7f793          	and	x15,x15,15
    6550:	00491713          	sll	x14,x18,0x4
    6554:	00e7e7b3          	or	x15,x15,x14
    6558:	00fa0023          	sb	x15,0(x20)
    655c:	00100793          	li	x15,1
    6560:	00f48223          	sb	x15,4(x9)
    6564:	009b5593          	srl	x11,x22,0x9
    6568:	0284a783          	lw	x15,40(x9)
    656c:	00f585b3          	add	x11,x11,x15
    6570:	00048513          	mv	x10,x9
    6574:	ab9ff0ef          	jal	602c <move_window>
    6578:	1a051463          	bnez	x10,6720 <put_fat+0x270>
    657c:	1ffb7b13          	and	x22,x22,511
    6580:	016a8ab3          	add	x21,x21,x22
    6584:	00495793          	srl	x15,x18,0x4
    6588:	0ff7f793          	zext.b	x15,x15
    658c:	00fa8023          	sb	x15,0(x21)
    6590:	00100793          	li	x15,1
    6594:	00f48223          	sb	x15,4(x9)
    6598:	01812403          	lw	x8,24(x2)
    659c:	01412483          	lw	x9,20(x2)
    65a0:	01012903          	lw	x18,16(x2)
    65a4:	00812a03          	lw	x20,8(x2)
    65a8:	00412a83          	lw	x21,4(x2)
    65ac:	00012b03          	lw	x22,0(x2)
    65b0:	1bc0006f          	j	676c <put_fat+0x2bc>
    65b4:	01812403          	lw	x8,24(x2)
    65b8:	01412483          	lw	x9,20(x2)
    65bc:	01012903          	lw	x18,16(x2)
    65c0:	1ac0006f          	j	676c <put_fat+0x2bc>
    65c4:	ffd78793          	add	x15,x15,-3
    65c8:	0ff7f793          	zext.b	x15,x15
    65cc:	00100713          	li	x14,1
    65d0:	00200993          	li	x19,2
    65d4:	08f76a63          	bltu	x14,x15,6668 <put_fat+0x1b8>
    65d8:	0075d593          	srl	x11,x11,0x7
    65dc:	02852783          	lw	x15,40(x10)
    65e0:	00f585b3          	add	x11,x11,x15
    65e4:	a49ff0ef          	jal	602c <move_window>
    65e8:	00050993          	mv	x19,x10
    65ec:	1a051463          	bnez	x10,6794 <put_fat+0x2e4>
    65f0:	0004c703          	lbu	x14,0(x9)
    65f4:	00400793          	li	x15,4
    65f8:	02f70663          	beq	x14,x15,6624 <put_fat+0x174>
    65fc:	00491913          	sll	x18,x18,0x4
    6600:	00495913          	srl	x18,x18,0x4
    6604:	03c48513          	add	x10,x9,60
    6608:	00241793          	sll	x15,x8,0x2
    660c:	1fc7f793          	and	x15,x15,508
    6610:	00f50533          	add	x10,x10,x15
    6614:	b1cff0ef          	jal	5930 <ld_dword>
    6618:	f00007b7          	lui	x15,0xf0000
    661c:	00f57533          	and	x10,x10,x15
    6620:	01256933          	or	x18,x10,x18
    6624:	03c48793          	add	x15,x9,60
    6628:	00241413          	sll	x8,x8,0x2
    662c:	1fc47413          	and	x8,x8,508
    6630:	008787b3          	add	x15,x15,x8
    6634:	01278023          	sb	x18,0(x15) # f0000000 <STACK_TOP+0xeff00000>
    6638:	00895713          	srl	x14,x18,0x8
    663c:	00e780a3          	sb	x14,1(x15)
    6640:	01095713          	srl	x14,x18,0x10
    6644:	00e78123          	sb	x14,2(x15)
    6648:	01895613          	srl	x12,x18,0x18
    664c:	00c781a3          	sb	x12,3(x15)
    6650:	00100793          	li	x15,1
    6654:	00f48223          	sb	x15,4(x9)
    6658:	01812403          	lw	x8,24(x2)
    665c:	01412483          	lw	x9,20(x2)
    6660:	01012903          	lw	x18,16(x2)
    6664:	1080006f          	j	676c <put_fat+0x2bc>
    6668:	01812403          	lw	x8,24(x2)
    666c:	01412483          	lw	x9,20(x2)
    6670:	01012903          	lw	x18,16(x2)
    6674:	0f80006f          	j	676c <put_fat+0x2bc>
    6678:	012a0023          	sb	x18,0(x20)
    667c:	00100793          	li	x15,1
    6680:	00f48223          	sb	x15,4(x9)
    6684:	009b5593          	srl	x11,x22,0x9
    6688:	0284a783          	lw	x15,40(x9)
    668c:	00f585b3          	add	x11,x11,x15
    6690:	00048513          	mv	x10,x9
    6694:	999ff0ef          	jal	602c <move_window>
    6698:	0a051463          	bnez	x10,6740 <put_fat+0x290>
    669c:	1ffb7b13          	and	x22,x22,511
    66a0:	016a8ab3          	add	x21,x21,x22
    66a4:	00895793          	srl	x15,x18,0x8
    66a8:	00f7f793          	and	x15,x15,15
    66ac:	000ac703          	lbu	x14,0(x21)
    66b0:	ff077713          	and	x14,x14,-16
    66b4:	00e7e7b3          	or	x15,x15,x14
    66b8:	ed5ff06f          	j	658c <put_fat+0xdc>
    66bc:	0085d593          	srl	x11,x11,0x8
    66c0:	02852783          	lw	x15,40(x10)
    66c4:	00f585b3          	add	x11,x11,x15
    66c8:	965ff0ef          	jal	602c <move_window>
    66cc:	00050993          	mv	x19,x10
    66d0:	00050a63          	beqz	x10,66e4 <put_fat+0x234>
    66d4:	01812403          	lw	x8,24(x2)
    66d8:	01412483          	lw	x9,20(x2)
    66dc:	01012903          	lw	x18,16(x2)
    66e0:	08c0006f          	j	676c <put_fat+0x2bc>
    66e4:	03c48793          	add	x15,x9,60
    66e8:	00141413          	sll	x8,x8,0x1
    66ec:	1fe47413          	and	x8,x8,510
    66f0:	008787b3          	add	x15,x15,x8
    66f4:	01278023          	sb	x18,0(x15)
    66f8:	01091613          	sll	x12,x18,0x10
    66fc:	01065613          	srl	x12,x12,0x10
    6700:	00865613          	srl	x12,x12,0x8
    6704:	00c780a3          	sb	x12,1(x15)
    6708:	00100793          	li	x15,1
    670c:	00f48223          	sb	x15,4(x9)
    6710:	01812403          	lw	x8,24(x2)
    6714:	01412483          	lw	x9,20(x2)
    6718:	01012903          	lw	x18,16(x2)
    671c:	0500006f          	j	676c <put_fat+0x2bc>
    6720:	00050993          	mv	x19,x10
    6724:	01812403          	lw	x8,24(x2)
    6728:	01412483          	lw	x9,20(x2)
    672c:	01012903          	lw	x18,16(x2)
    6730:	00812a03          	lw	x20,8(x2)
    6734:	00412a83          	lw	x21,4(x2)
    6738:	00012b03          	lw	x22,0(x2)
    673c:	0300006f          	j	676c <put_fat+0x2bc>
    6740:	00050993          	mv	x19,x10
    6744:	01812403          	lw	x8,24(x2)
    6748:	01412483          	lw	x9,20(x2)
    674c:	01012903          	lw	x18,16(x2)
    6750:	00812a03          	lw	x20,8(x2)
    6754:	00412a83          	lw	x21,4(x2)
    6758:	00012b03          	lw	x22,0(x2)
    675c:	0100006f          	j	676c <put_fat+0x2bc>
    6760:	01812403          	lw	x8,24(x2)
    6764:	01412483          	lw	x9,20(x2)
    6768:	01012903          	lw	x18,16(x2)
    676c:	00098513          	mv	x10,x19
    6770:	01c12083          	lw	x1,28(x2)
    6774:	00c12983          	lw	x19,12(x2)
    6778:	02010113          	add	x2,x2,32
    677c:	00008067          	ret
    6780:	01812403          	lw	x8,24(x2)
    6784:	01412483          	lw	x9,20(x2)
    6788:	01012903          	lw	x18,16(x2)
    678c:	00812a03          	lw	x20,8(x2)
    6790:	fddff06f          	j	676c <put_fat+0x2bc>
    6794:	01812403          	lw	x8,24(x2)
    6798:	01412483          	lw	x9,20(x2)
    679c:	01012903          	lw	x18,16(x2)
    67a0:	fcdff06f          	j	676c <put_fat+0x2bc>

000067a4 <fill_last_frag>:
    67a4:	01c52783          	lw	x15,28(x10)
    67a8:	08078463          	beqz	x15,6830 <fill_last_frag+0x8c>
    67ac:	fe010113          	add	x2,x2,-32
    67b0:	00112e23          	sw	x1,28(x2)
    67b4:	00812c23          	sw	x8,24(x2)
    67b8:	00912a23          	sw	x9,20(x2)
    67bc:	01212823          	sw	x18,16(x2)
    67c0:	01312623          	sw	x19,12(x2)
    67c4:	00050413          	mv	x8,x10
    67c8:	00058493          	mv	x9,x11
    67cc:	00060913          	mv	x18,x12
    67d0:	00100993          	li	x19,1
    67d4:	0200006f          	j	67f4 <fill_last_frag+0x50>
    67d8:	cd9ff0ef          	jal	64b0 <put_fat>
    67dc:	00050793          	mv	x15,x10
    67e0:	02051863          	bnez	x10,6810 <fill_last_frag+0x6c>
    67e4:	01c42783          	lw	x15,28(x8)
    67e8:	fff78793          	add	x15,x15,-1
    67ec:	00f42e23          	sw	x15,28(x8)
    67f0:	02078063          	beqz	x15,6810 <fill_last_frag+0x6c>
    67f4:	00042503          	lw	x10,0(x8)
    67f8:	40f48733          	sub	x14,x9,x15
    67fc:	00170593          	add	x11,x14,1
    6800:	00090613          	mv	x12,x18
    6804:	fcf9fae3          	bgeu	x19,x15,67d8 <fill_last_frag+0x34>
    6808:	00270613          	add	x12,x14,2
    680c:	fcdff06f          	j	67d8 <fill_last_frag+0x34>
    6810:	00078513          	mv	x10,x15
    6814:	01c12083          	lw	x1,28(x2)
    6818:	01812403          	lw	x8,24(x2)
    681c:	01412483          	lw	x9,20(x2)
    6820:	01012903          	lw	x18,16(x2)
    6824:	00c12983          	lw	x19,12(x2)
    6828:	02010113          	add	x2,x2,32
    682c:	00008067          	ret
    6830:	00078513          	mv	x10,x15
    6834:	00008067          	ret

00006838 <fill_first_frag>:
    6838:	00754703          	lbu	x14,7(x10)
    683c:	00300793          	li	x15,3
    6840:	00f70663          	beq	x14,x15,684c <fill_first_frag+0x14>
    6844:	00000513          	li	x10,0
    6848:	00008067          	ret
    684c:	ff010113          	add	x2,x2,-16
    6850:	00112623          	sw	x1,12(x2)
    6854:	00812423          	sw	x8,8(x2)
    6858:	00912223          	sw	x9,4(x2)
    685c:	01212023          	sw	x18,0(x2)
    6860:	00050493          	mv	x9,x10
    6864:	00852403          	lw	x8,8(x10)
    6868:	01852903          	lw	x18,24(x10)
    686c:	02090263          	beqz	x18,6890 <fill_first_frag+0x58>
    6870:	01240933          	add	x18,x8,x18
    6874:	00040593          	mv	x11,x8
    6878:	00140413          	add	x8,x8,1
    687c:	00040613          	mv	x12,x8
    6880:	0004a503          	lw	x10,0(x9)
    6884:	c2dff0ef          	jal	64b0 <put_fat>
    6888:	00051863          	bnez	x10,6898 <fill_first_frag+0x60>
    688c:	ff2414e3          	bne	x8,x18,6874 <fill_first_frag+0x3c>
    6890:	000483a3          	sb	x0,7(x9)
    6894:	00000513          	li	x10,0
    6898:	00c12083          	lw	x1,12(x2)
    689c:	00812403          	lw	x8,8(x2)
    68a0:	00412483          	lw	x9,4(x2)
    68a4:	00012903          	lw	x18,0(x2)
    68a8:	01010113          	add	x2,x2,16
    68ac:	00008067          	ret

000068b0 <st_clust>:
    68b0:	00c58d23          	sb	x12,26(x11)
    68b4:	01061793          	sll	x15,x12,0x10
    68b8:	0107d793          	srl	x15,x15,0x10
    68bc:	0087d793          	srl	x15,x15,0x8
    68c0:	00f58da3          	sb	x15,27(x11)
    68c4:	00054703          	lbu	x14,0(x10)
    68c8:	00300793          	li	x15,3
    68cc:	00f70463          	beq	x14,x15,68d4 <st_clust+0x24>
    68d0:	00008067          	ret
    68d4:	01065613          	srl	x12,x12,0x10
    68d8:	00c58a23          	sb	x12,20(x11)
    68dc:	00865613          	srl	x12,x12,0x8
    68e0:	00c58aa3          	sb	x12,21(x11)
    68e4:	00008067          	ret

000068e8 <get_fileinfo>:
    68e8:	fd010113          	add	x2,x2,-48
    68ec:	02112623          	sw	x1,44(x2)
    68f0:	01512a23          	sw	x21,20(x2)
    68f4:	00052a83          	lw	x21,0(x10)
    68f8:	00058d23          	sb	x0,26(x11)
    68fc:	03852783          	lw	x15,56(x10)
    6900:	40078c63          	beqz	x15,6d18 <get_fileinfo+0x430>
    6904:	02812423          	sw	x8,40(x2)
    6908:	02912223          	sw	x9,36(x2)
    690c:	00050493          	mv	x9,x10
    6910:	00058413          	mv	x8,x11
    6914:	000ac703          	lbu	x14,0(x21)
    6918:	00400793          	li	x15,4
    691c:	04f70e63          	beq	x14,x15,6978 <get_fileinfo+0x90>
    6920:	04c52703          	lw	x14,76(x10)
    6924:	fff00793          	li	x15,-1
    6928:	2cf70463          	beq	x14,x15,6bf0 <get_fileinfo+0x308>
    692c:	03212023          	sw	x18,32(x2)
    6930:	00caa783          	lw	x15,12(x21)
    6934:	0007d783          	lhu	x15,0(x15)
    6938:	2c078c63          	beqz	x15,6c10 <get_fileinfo+0x328>
    693c:	01312e23          	sw	x19,28(x2)
    6940:	01412c23          	sw	x20,24(x2)
    6944:	01612823          	sw	x22,16(x2)
    6948:	01712623          	sw	x23,12(x2)
    694c:	01812423          	sw	x24,8(x2)
    6950:	01912223          	sw	x25,4(x2)
    6954:	00200a13          	li	x20,2
    6958:	00000993          	li	x19,0
    695c:	00000913          	li	x18,0
    6960:	0ff00b93          	li	x23,255
    6964:	00000c13          	li	x24,0
    6968:	00003b37          	lui	x22,0x3
    696c:	800b0b13          	add	x22,x22,-2048 # 2800 <gen_crc16+0x58>
    6970:	7ff00c93          	li	x25,2047
    6974:	22c0006f          	j	6ba0 <get_fileinfo+0x2b8>
    6978:	03212023          	sw	x18,32(x2)
    697c:	010aa783          	lw	x15,16(x21)
    6980:	0237c703          	lbu	x14,35(x15)
    6984:	06070063          	beqz	x14,69e4 <get_fileinfo+0xfc>
    6988:	01312e23          	sw	x19,28(x2)
    698c:	01412c23          	sw	x20,24(x2)
    6990:	01612823          	sw	x22,16(x2)
    6994:	01712623          	sw	x23,12(x2)
    6998:	01812423          	sw	x24,8(x2)
    699c:	01912223          	sw	x25,4(x2)
    69a0:	00000993          	li	x19,0
    69a4:	00000513          	li	x10,0
    69a8:	00000913          	li	x18,0
    69ac:	04000493          	li	x9,64
    69b0:	0ff00b93          	li	x23,255
    69b4:	00000c13          	li	x24,0
    69b8:	00003b37          	lui	x22,0x3
    69bc:	800b0b13          	add	x22,x22,-2048 # 2800 <gen_crc16+0x58>
    69c0:	7ff00c93          	li	x25,2047
    69c4:	25f00a13          	li	x20,607
    69c8:	0dc0006f          	j	6aa4 <get_fileinfo+0x1bc>
    69cc:	01c12983          	lw	x19,28(x2)
    69d0:	01812a03          	lw	x20,24(x2)
    69d4:	01012b03          	lw	x22,16(x2)
    69d8:	00c12b83          	lw	x23,12(x2)
    69dc:	00812c03          	lw	x24,8(x2)
    69e0:	00412c83          	lw	x25,4(x2)
    69e4:	03f00793          	li	x15,63
    69e8:	00f40d23          	sb	x15,26(x8)
    69ec:	00100913          	li	x18,1
    69f0:	01240933          	add	x18,x8,x18
    69f4:	00090d23          	sb	x0,26(x18)
    69f8:	000406a3          	sb	x0,13(x8)
    69fc:	010aa783          	lw	x15,16(x21)
    6a00:	0047c783          	lbu	x15,4(x15)
    6a04:	0377f713          	and	x14,x15,55
    6a08:	00e40623          	sb	x14,12(x8)
    6a0c:	0107f793          	and	x15,x15,16
    6a10:	00000513          	li	x10,0
    6a14:	00000593          	li	x11,0
    6a18:	00079863          	bnez	x15,6a28 <get_fileinfo+0x140>
    6a1c:	010aa503          	lw	x10,16(x21)
    6a20:	03850513          	add	x10,x10,56
    6a24:	f39fe0ef          	jal	595c <ld_qword>
    6a28:	00a42023          	sw	x10,0(x8)
    6a2c:	00b42223          	sw	x11,4(x8)
    6a30:	010aa703          	lw	x14,16(x21)
    6a34:	00d74783          	lbu	x15,13(x14)
    6a38:	00879793          	sll	x15,x15,0x8
    6a3c:	00c74703          	lbu	x14,12(x14)
    6a40:	00e7e7b3          	or	x15,x15,x14
    6a44:	00f41523          	sh	x15,10(x8)
    6a48:	010aa703          	lw	x14,16(x21)
    6a4c:	00f74783          	lbu	x15,15(x14)
    6a50:	00879793          	sll	x15,x15,0x8
    6a54:	00e74703          	lbu	x14,14(x14)
    6a58:	00e7e7b3          	or	x15,x15,x14
    6a5c:	00f41423          	sh	x15,8(x8)
    6a60:	02812403          	lw	x8,40(x2)
    6a64:	02412483          	lw	x9,36(x2)
    6a68:	02012903          	lw	x18,32(x2)
    6a6c:	2ac0006f          	j	6d18 <get_fileinfo+0x430>
    6a70:	01a90593          	add	x11,x18,26
    6a74:	01051513          	sll	x10,x10,0x10
    6a78:	412b8633          	sub	x12,x23,x18
    6a7c:	00b405b3          	add	x11,x8,x11
    6a80:	00f56533          	or	x10,x10,x15
    6a84:	805ff0ef          	jal	6288 <put_utf>
    6a88:	0a050463          	beqz	x10,6b30 <get_fileinfo+0x248>
    6a8c:	00a90933          	add	x18,x18,x10
    6a90:	000c0513          	mv	x10,x24
    6a94:	010aa783          	lw	x15,16(x21)
    6a98:	0237c703          	lbu	x14,35(x15)
    6a9c:	04e9fa63          	bgeu	x19,x14,6af0 <get_fileinfo+0x208>
    6aa0:	f29a66e3          	bltu	x20,x9,69cc <get_fileinfo+0xe4>
    6aa4:	01f4f713          	and	x14,x9,31
    6aa8:	00071463          	bnez	x14,6ab0 <get_fileinfo+0x1c8>
    6aac:	00248493          	add	x9,x9,2
    6ab0:	00978733          	add	x14,x15,x9
    6ab4:	00174783          	lbu	x15,1(x14)
    6ab8:	00879793          	sll	x15,x15,0x8
    6abc:	00074703          	lbu	x14,0(x14)
    6ac0:	00e7e7b3          	or	x15,x15,x14
    6ac4:	01079793          	sll	x15,x15,0x10
    6ac8:	0107d793          	srl	x15,x15,0x10
    6acc:	00248493          	add	x9,x9,2
    6ad0:	00198993          	add	x19,x19,1
    6ad4:	f8051ee3          	bnez	x10,6a70 <get_fileinfo+0x188>
    6ad8:	01678733          	add	x14,x15,x22
    6adc:	01071713          	sll	x14,x14,0x10
    6ae0:	01075713          	srl	x14,x14,0x10
    6ae4:	f8ece6e3          	bltu	x25,x14,6a70 <get_fileinfo+0x188>
    6ae8:	00078513          	mv	x10,x15
    6aec:	fa9ff06f          	j	6a94 <get_fileinfo+0x1ac>
    6af0:	04051e63          	bnez	x10,6b4c <get_fileinfo+0x264>
    6af4:	02090063          	beqz	x18,6b14 <get_fileinfo+0x22c>
    6af8:	01c12983          	lw	x19,28(x2)
    6afc:	01812a03          	lw	x20,24(x2)
    6b00:	01012b03          	lw	x22,16(x2)
    6b04:	00c12b83          	lw	x23,12(x2)
    6b08:	00812c03          	lw	x24,8(x2)
    6b0c:	00412c83          	lw	x25,4(x2)
    6b10:	ee1ff06f          	j	69f0 <get_fileinfo+0x108>
    6b14:	01c12983          	lw	x19,28(x2)
    6b18:	01812a03          	lw	x20,24(x2)
    6b1c:	01012b03          	lw	x22,16(x2)
    6b20:	00c12b83          	lw	x23,12(x2)
    6b24:	00812c03          	lw	x24,8(x2)
    6b28:	00412c83          	lw	x25,4(x2)
    6b2c:	eb9ff06f          	j	69e4 <get_fileinfo+0xfc>
    6b30:	01c12983          	lw	x19,28(x2)
    6b34:	01812a03          	lw	x20,24(x2)
    6b38:	01012b03          	lw	x22,16(x2)
    6b3c:	00c12b83          	lw	x23,12(x2)
    6b40:	00812c03          	lw	x24,8(x2)
    6b44:	00412c83          	lw	x25,4(x2)
    6b48:	e9dff06f          	j	69e4 <get_fileinfo+0xfc>
    6b4c:	01c12983          	lw	x19,28(x2)
    6b50:	01812a03          	lw	x20,24(x2)
    6b54:	01012b03          	lw	x22,16(x2)
    6b58:	00c12b83          	lw	x23,12(x2)
    6b5c:	00812c03          	lw	x24,8(x2)
    6b60:	00412c83          	lw	x25,4(x2)
    6b64:	e81ff06f          	j	69e4 <get_fileinfo+0xfc>
    6b68:	01a90593          	add	x11,x18,26
    6b6c:	01099513          	sll	x10,x19,0x10
    6b70:	412b8633          	sub	x12,x23,x18
    6b74:	00b405b3          	add	x11,x8,x11
    6b78:	00f56533          	or	x10,x10,x15
    6b7c:	f0cff0ef          	jal	6288 <put_utf>
    6b80:	02050e63          	beqz	x10,6bbc <get_fileinfo+0x2d4>
    6b84:	00a90933          	add	x18,x18,x10
    6b88:	000c0993          	mv	x19,x24
    6b8c:	00caa783          	lw	x15,12(x21)
    6b90:	014787b3          	add	x15,x15,x20
    6b94:	0007d783          	lhu	x15,0(x15)
    6b98:	002a0a13          	add	x20,x20,2
    6b9c:	02078263          	beqz	x15,6bc0 <get_fileinfo+0x2d8>
    6ba0:	fc0994e3          	bnez	x19,6b68 <get_fileinfo+0x280>
    6ba4:	01678733          	add	x14,x15,x22
    6ba8:	01071713          	sll	x14,x14,0x10
    6bac:	01075713          	srl	x14,x14,0x10
    6bb0:	faecece3          	bltu	x25,x14,6b68 <get_fileinfo+0x280>
    6bb4:	00078993          	mv	x19,x15
    6bb8:	fd5ff06f          	j	6b8c <get_fileinfo+0x2a4>
    6bbc:	00050913          	mv	x18,x10
    6bc0:	0019b993          	seqz	x19,x19
    6bc4:	413009b3          	neg	x19,x19
    6bc8:	01397933          	and	x18,x18,x19
    6bcc:	01c12983          	lw	x19,28(x2)
    6bd0:	01812a03          	lw	x20,24(x2)
    6bd4:	01012b03          	lw	x22,16(x2)
    6bd8:	00c12b83          	lw	x23,12(x2)
    6bdc:	00812c03          	lw	x24,8(x2)
    6be0:	00412c83          	lw	x25,4(x2)
    6be4:	01240933          	add	x18,x8,x18
    6be8:	00090d23          	sb	x0,26(x18)
    6bec:	02012903          	lw	x18,32(x2)
    6bf0:	00000613          	li	x12,0
    6bf4:	00000793          	li	x15,0
    6bf8:	02000513          	li	x10,32
    6bfc:	00500893          	li	x17,5
    6c00:	00900813          	li	x16,9
    6c04:	00b00593          	li	x11,11
    6c08:	0e500313          	li	x6,229
    6c0c:	0200006f          	j	6c2c <get_fileinfo+0x344>
    6c10:	00000913          	li	x18,0
    6c14:	fd1ff06f          	j	6be4 <get_fileinfo+0x2fc>
    6c18:	03078a63          	beq	x15,x16,6c4c <get_fileinfo+0x364>
    6c1c:	00c406b3          	add	x13,x8,x12
    6c20:	00e686a3          	sb	x14,13(x13)
    6c24:	00160613          	add	x12,x12,1
    6c28:	02b78e63          	beq	x15,x11,6c64 <get_fileinfo+0x37c>
    6c2c:	03c4a703          	lw	x14,60(x9)
    6c30:	00f70733          	add	x14,x14,x15
    6c34:	00178793          	add	x15,x15,1
    6c38:	00074703          	lbu	x14,0(x14)
    6c3c:	fea706e3          	beq	x14,x10,6c28 <get_fileinfo+0x340>
    6c40:	fd171ce3          	bne	x14,x17,6c18 <get_fileinfo+0x330>
    6c44:	00030713          	mv	x14,x6
    6c48:	fd1ff06f          	j	6c18 <get_fileinfo+0x330>
    6c4c:	fcc5e8e3          	bltu	x11,x12,6c1c <get_fileinfo+0x334>
    6c50:	00c406b3          	add	x13,x8,x12
    6c54:	02e00e13          	li	x28,46
    6c58:	01c686a3          	sb	x28,13(x13)
    6c5c:	00160613          	add	x12,x12,1
    6c60:	fbdff06f          	j	6c1c <get_fileinfo+0x334>
    6c64:	00c407b3          	add	x15,x8,x12
    6c68:	000786a3          	sb	x0,13(x15)
    6c6c:	01a44783          	lbu	x15,26(x8)
    6c70:	04079663          	bnez	x15,6cbc <get_fileinfo+0x3d4>
    6c74:	02060263          	beqz	x12,6c98 <get_fileinfo+0x3b0>
    6c78:	00d44783          	lbu	x15,13(x8)
    6c7c:	00e40713          	add	x14,x8,14
    6c80:	00800593          	li	x11,8
    6c84:	02e00613          	li	x12,46
    6c88:	01000813          	li	x16,16
    6c8c:	01900513          	li	x10,25
    6c90:	0a079863          	bnez	x15,6d40 <get_fileinfo+0x458>
    6c94:	0100006f          	j	6ca4 <get_fileinfo+0x3bc>
    6c98:	03f00793          	li	x15,63
    6c9c:	00f40d23          	sb	x15,26(x8)
    6ca0:	00100793          	li	x15,1
    6ca4:	00f407b3          	add	x15,x8,x15
    6ca8:	00078d23          	sb	x0,26(x15)
    6cac:	03c4a783          	lw	x15,60(x9)
    6cb0:	00c7c783          	lbu	x15,12(x15)
    6cb4:	00079463          	bnez	x15,6cbc <get_fileinfo+0x3d4>
    6cb8:	000406a3          	sb	x0,13(x8)
    6cbc:	03c4a783          	lw	x15,60(x9)
    6cc0:	00b7c783          	lbu	x15,11(x15)
    6cc4:	03f7f793          	and	x15,x15,63
    6cc8:	00f40623          	sb	x15,12(x8)
    6ccc:	03c4a503          	lw	x10,60(x9)
    6cd0:	01c50513          	add	x10,x10,28
    6cd4:	c5dfe0ef          	jal	5930 <ld_dword>
    6cd8:	00a42023          	sw	x10,0(x8)
    6cdc:	00042223          	sw	x0,4(x8)
    6ce0:	03c4a703          	lw	x14,60(x9)
    6ce4:	01774783          	lbu	x15,23(x14)
    6ce8:	00879793          	sll	x15,x15,0x8
    6cec:	01674703          	lbu	x14,22(x14)
    6cf0:	00e7e7b3          	or	x15,x15,x14
    6cf4:	00f41523          	sh	x15,10(x8)
    6cf8:	03c4a703          	lw	x14,60(x9)
    6cfc:	01974783          	lbu	x15,25(x14)
    6d00:	00879793          	sll	x15,x15,0x8
    6d04:	01874703          	lbu	x14,24(x14)
    6d08:	00e7e7b3          	or	x15,x15,x14
    6d0c:	00f41423          	sh	x15,8(x8)
    6d10:	02812403          	lw	x8,40(x2)
    6d14:	02412483          	lw	x9,36(x2)
    6d18:	02c12083          	lw	x1,44(x2)
    6d1c:	01412a83          	lw	x21,20(x2)
    6d20:	03010113          	add	x2,x2,48
    6d24:	00008067          	ret
    6d28:	00080593          	mv	x11,x16
    6d2c:	00d70623          	sb	x13,12(x14)
    6d30:	00170693          	add	x13,x14,1
    6d34:	00074783          	lbu	x15,0(x14)
    6d38:	02078c63          	beqz	x15,6d70 <get_fileinfo+0x488>
    6d3c:	00068713          	mv	x14,x13
    6d40:	00078693          	mv	x13,x15
    6d44:	fec782e3          	beq	x15,x12,6d28 <get_fileinfo+0x440>
    6d48:	fbf78793          	add	x15,x15,-65
    6d4c:	01079793          	sll	x15,x15,0x10
    6d50:	0107d793          	srl	x15,x15,0x10
    6d54:	fcf56ce3          	bltu	x10,x15,6d2c <get_fileinfo+0x444>
    6d58:	03c4a783          	lw	x15,60(x9)
    6d5c:	00c7c783          	lbu	x15,12(x15)
    6d60:	00f5f7b3          	and	x15,x11,x15
    6d64:	fc0784e3          	beqz	x15,6d2c <get_fileinfo+0x444>
    6d68:	02068693          	add	x13,x13,32
    6d6c:	fc1ff06f          	j	6d2c <get_fileinfo+0x444>
    6d70:	408707b3          	sub	x15,x14,x8
    6d74:	ff378793          	add	x15,x15,-13
    6d78:	f2dff06f          	j	6ca4 <get_fileinfo+0x3bc>

00006d7c <get_fat>:
    6d7c:	00100713          	li	x14,1
    6d80:	28b77663          	bgeu	x14,x11,700c <get_fat+0x290>
    6d84:	fe010113          	add	x2,x2,-32
    6d88:	00112e23          	sw	x1,28(x2)
    6d8c:	00812c23          	sw	x8,24(x2)
    6d90:	00912a23          	sw	x9,20(x2)
    6d94:	00050793          	mv	x15,x10
    6d98:	00058413          	mv	x8,x11
    6d9c:	00052483          	lw	x9,0(x10)
    6da0:	01c4a703          	lw	x14,28(x9)
    6da4:	00100513          	li	x10,1
    6da8:	06e5f663          	bgeu	x11,x14,6e14 <get_fat+0x98>
    6dac:	0004c703          	lbu	x14,0(x9)
    6db0:	00300693          	li	x13,3
    6db4:	16d70463          	beq	x14,x13,6f1c <get_fat+0x1a0>
    6db8:	06e6e863          	bltu	x13,x14,6e28 <get_fat+0xac>
    6dbc:	00100793          	li	x15,1
    6dc0:	0af70a63          	beq	x14,x15,6e74 <get_fat+0xf8>
    6dc4:	00200793          	li	x15,2
    6dc8:	04f71663          	bne	x14,x15,6e14 <get_fat+0x98>
    6dcc:	0085d593          	srl	x11,x11,0x8
    6dd0:	0284a783          	lw	x15,40(x9)
    6dd4:	00f585b3          	add	x11,x11,x15
    6dd8:	00048513          	mv	x10,x9
    6ddc:	a50ff0ef          	jal	602c <move_window>
    6de0:	00050793          	mv	x15,x10
    6de4:	fff00513          	li	x10,-1
    6de8:	02079663          	bnez	x15,6e14 <get_fat+0x98>
    6dec:	03c48493          	add	x9,x9,60
    6df0:	00141413          	sll	x8,x8,0x1
    6df4:	1fe47413          	and	x8,x8,510
    6df8:	008484b3          	add	x9,x9,x8
    6dfc:	0014c503          	lbu	x10,1(x9)
    6e00:	00851513          	sll	x10,x10,0x8
    6e04:	0004c783          	lbu	x15,0(x9)
    6e08:	00f56533          	or	x10,x10,x15
    6e0c:	01051513          	sll	x10,x10,0x10
    6e10:	01055513          	srl	x10,x10,0x10
    6e14:	01c12083          	lw	x1,28(x2)
    6e18:	01812403          	lw	x8,24(x2)
    6e1c:	01412483          	lw	x9,20(x2)
    6e20:	02010113          	add	x2,x2,32
    6e24:	00008067          	ret
    6e28:	00400693          	li	x13,4
    6e2c:	00100513          	li	x10,1
    6e30:	fed712e3          	bne	x14,x13,6e14 <get_fat+0x98>
    6e34:	0107a683          	lw	x13,16(x15)
    6e38:	0147a703          	lw	x14,20(x15)
    6e3c:	00e6e633          	or	x12,x13,x14
    6e40:	00060a63          	beqz	x12,6e54 <get_fat+0xd8>
    6e44:	01212823          	sw	x18,16(x2)
    6e48:	0087a603          	lw	x12,8(x15)
    6e4c:	10061863          	bnez	x12,6f5c <get_fat+0x1e0>
    6e50:	01012903          	lw	x18,16(x2)
    6e54:	0077c703          	lbu	x14,7(x15)
    6e58:	00100513          	li	x10,1
    6e5c:	fa071ce3          	bnez	x14,6e14 <get_fat+0x98>
    6e60:	01c7a783          	lw	x15,28(x15)
    6e64:	16078463          	beqz	x15,6fcc <get_fat+0x250>
    6e68:	80000537          	lui	x10,0x80000
    6e6c:	fff50513          	add	x10,x10,-1 # 7fffffff <STACK_TOP+0x7fefffff>
    6e70:	fa5ff06f          	j	6e14 <get_fat+0x98>
    6e74:	01212823          	sw	x18,16(x2)
    6e78:	0015d913          	srl	x18,x11,0x1
    6e7c:	00b90933          	add	x18,x18,x11
    6e80:	00995593          	srl	x11,x18,0x9
    6e84:	0284a783          	lw	x15,40(x9)
    6e88:	00f585b3          	add	x11,x11,x15
    6e8c:	00048513          	mv	x10,x9
    6e90:	99cff0ef          	jal	602c <move_window>
    6e94:	00050793          	mv	x15,x10
    6e98:	fff00513          	li	x10,-1
    6e9c:	00078663          	beqz	x15,6ea8 <get_fat+0x12c>
    6ea0:	01012903          	lw	x18,16(x2)
    6ea4:	f71ff06f          	j	6e14 <get_fat+0x98>
    6ea8:	01312623          	sw	x19,12(x2)
    6eac:	00190993          	add	x19,x18,1
    6eb0:	1ff97913          	and	x18,x18,511
    6eb4:	01248933          	add	x18,x9,x18
    6eb8:	03c94903          	lbu	x18,60(x18)
    6ebc:	0099d593          	srl	x11,x19,0x9
    6ec0:	0284a783          	lw	x15,40(x9)
    6ec4:	00f585b3          	add	x11,x11,x15
    6ec8:	00048513          	mv	x10,x9
    6ecc:	960ff0ef          	jal	602c <move_window>
    6ed0:	00050793          	mv	x15,x10
    6ed4:	fff00513          	li	x10,-1
    6ed8:	14079a63          	bnez	x15,702c <get_fat+0x2b0>
    6edc:	1ff9f993          	and	x19,x19,511
    6ee0:	013489b3          	add	x19,x9,x19
    6ee4:	03c9c503          	lbu	x10,60(x19)
    6ee8:	00851513          	sll	x10,x10,0x8
    6eec:	01256533          	or	x10,x10,x18
    6ef0:	00147413          	and	x8,x8,1
    6ef4:	00040a63          	beqz	x8,6f08 <get_fat+0x18c>
    6ef8:	00455513          	srl	x10,x10,0x4
    6efc:	01012903          	lw	x18,16(x2)
    6f00:	00c12983          	lw	x19,12(x2)
    6f04:	f11ff06f          	j	6e14 <get_fat+0x98>
    6f08:	01451513          	sll	x10,x10,0x14
    6f0c:	01455513          	srl	x10,x10,0x14
    6f10:	01012903          	lw	x18,16(x2)
    6f14:	00c12983          	lw	x19,12(x2)
    6f18:	efdff06f          	j	6e14 <get_fat+0x98>
    6f1c:	0075d593          	srl	x11,x11,0x7
    6f20:	0284a783          	lw	x15,40(x9)
    6f24:	00f585b3          	add	x11,x11,x15
    6f28:	00048513          	mv	x10,x9
    6f2c:	900ff0ef          	jal	602c <move_window>
    6f30:	00050793          	mv	x15,x10
    6f34:	fff00513          	li	x10,-1
    6f38:	ec079ee3          	bnez	x15,6e14 <get_fat+0x98>
    6f3c:	03c48513          	add	x10,x9,60
    6f40:	00241413          	sll	x8,x8,0x2
    6f44:	1fc47413          	and	x8,x8,508
    6f48:	00850533          	add	x10,x10,x8
    6f4c:	9e5fe0ef          	jal	5930 <ld_dword>
    6f50:	00451513          	sll	x10,x10,0x4
    6f54:	00455513          	srl	x10,x10,0x4
    6f58:	ebdff06f          	j	6e14 <get_fat+0x98>
    6f5c:	40c58933          	sub	x18,x11,x12
    6f60:	0077c603          	lbu	x12,7(x15)
    6f64:	00200593          	li	x11,2
    6f68:	02b60063          	beq	x12,x11,6f88 <get_fat+0x20c>
    6f6c:	00300713          	li	x14,3
    6f70:	0ae61a63          	bne	x12,x14,7024 <get_fat+0x2a8>
    6f74:	0187a703          	lw	x14,24(x15)
    6f78:	04e97663          	bgeu	x18,x14,6fc4 <get_fat+0x248>
    6f7c:	00140513          	add	x10,x8,1
    6f80:	01012903          	lw	x18,16(x2)
    6f84:	e91ff06f          	j	6e14 <get_fat+0x98>
    6f88:	fff68513          	add	x10,x13,-1
    6f8c:	0016b693          	seqz	x13,x13
    6f90:	40d707b3          	sub	x15,x14,x13
    6f94:	01779793          	sll	x15,x15,0x17
    6f98:	00955513          	srl	x10,x10,0x9
    6f9c:	00a4d583          	lhu	x11,10(x9)
    6fa0:	00a7e533          	or	x10,x15,x10
    6fa4:	069060ef          	jal	d80c <__hidden___udivsi3>
    6fa8:	00050793          	mv	x15,x10
    6fac:	00100513          	li	x10,1
    6fb0:	0927e463          	bltu	x15,x18,7038 <get_fat+0x2bc>
    6fb4:	06f90063          	beq	x18,x15,7014 <get_fat+0x298>
    6fb8:	00140513          	add	x10,x8,1
    6fbc:	01012903          	lw	x18,16(x2)
    6fc0:	e55ff06f          	j	6e14 <get_fat+0x98>
    6fc4:	01012903          	lw	x18,16(x2)
    6fc8:	e99ff06f          	j	6e60 <get_fat+0xe4>
    6fcc:	00745793          	srl	x15,x8,0x7
    6fd0:	0284a583          	lw	x11,40(x9)
    6fd4:	00b785b3          	add	x11,x15,x11
    6fd8:	00048513          	mv	x10,x9
    6fdc:	850ff0ef          	jal	602c <move_window>
    6fe0:	00050793          	mv	x15,x10
    6fe4:	fff00513          	li	x10,-1
    6fe8:	e20796e3          	bnez	x15,6e14 <get_fat+0x98>
    6fec:	03c48513          	add	x10,x9,60
    6ff0:	00241793          	sll	x15,x8,0x2
    6ff4:	1fc7f793          	and	x15,x15,508
    6ff8:	00f50533          	add	x10,x10,x15
    6ffc:	935fe0ef          	jal	5930 <ld_dword>
    7000:	00151513          	sll	x10,x10,0x1
    7004:	00155513          	srl	x10,x10,0x1
    7008:	e0dff06f          	j	6e14 <get_fat+0x98>
    700c:	00100513          	li	x10,1
    7010:	00008067          	ret
    7014:	80000537          	lui	x10,0x80000
    7018:	fff50513          	add	x10,x10,-1 # 7fffffff <STACK_TOP+0x7fefffff>
    701c:	01012903          	lw	x18,16(x2)
    7020:	df5ff06f          	j	6e14 <get_fat+0x98>
    7024:	01012903          	lw	x18,16(x2)
    7028:	e39ff06f          	j	6e60 <get_fat+0xe4>
    702c:	01012903          	lw	x18,16(x2)
    7030:	00c12983          	lw	x19,12(x2)
    7034:	de1ff06f          	j	6e14 <get_fat+0x98>
    7038:	01012903          	lw	x18,16(x2)
    703c:	dd9ff06f          	j	6e14 <get_fat+0x98>

00007040 <dir_sdi>:
    7040:	fd010113          	add	x2,x2,-48
    7044:	02112623          	sw	x1,44(x2)
    7048:	03212023          	sw	x18,32(x2)
    704c:	01312e23          	sw	x19,28(x2)
    7050:	01412c23          	sw	x20,24(x2)
    7054:	01512a23          	sw	x21,20(x2)
    7058:	00050993          	mv	x19,x10
    705c:	00058913          	mv	x18,x11
    7060:	00052a03          	lw	x20,0(x10)
    7064:	000a4683          	lbu	x13,0(x20)
    7068:	00400713          	li	x14,4
    706c:	002007b7          	lui	x15,0x200
    7070:	04e68463          	beq	x13,x14,70b8 <dir_sdi+0x78>
    7074:	00200a93          	li	x21,2
    7078:	08f97263          	bgeu	x18,x15,70fc <dir_sdi+0xbc>
    707c:	01f97a93          	and	x21,x18,31
    7080:	100a9063          	bnez	x21,7180 <dir_sdi+0x140>
    7084:	02812423          	sw	x8,40(x2)
    7088:	0329a823          	sw	x18,48(x19)
    708c:	0089a403          	lw	x8,8(x19)
    7090:	08041663          	bnez	x8,711c <dir_sdi+0xdc>
    7094:	000a4703          	lbu	x14,0(x20)
    7098:	00200793          	li	x15,2
    709c:	02e7f263          	bgeu	x15,x14,70c0 <dir_sdi+0x80>
    70a0:	02ca2783          	lw	x15,44(x20)
    70a4:	000983a3          	sb	x0,7(x19)
    70a8:	00078c63          	beqz	x15,70c0 <dir_sdi+0x80>
    70ac:	02912223          	sw	x9,36(x2)
    70b0:	00078413          	mv	x8,x15
    70b4:	06c0006f          	j	7120 <dir_sdi+0xe0>
    70b8:	100007b7          	lui	x15,0x10000
    70bc:	fb9ff06f          	j	7074 <dir_sdi+0x34>
    70c0:	00595793          	srl	x15,x18,0x5
    70c4:	008a5703          	lhu	x14,8(x20)
    70c8:	0ce7f063          	bgeu	x15,x14,7188 <dir_sdi+0x148>
    70cc:	02ca2503          	lw	x10,44(x20)
    70d0:	02a9ac23          	sw	x10,56(x19)
    70d4:	0289aa23          	sw	x8,52(x19)
    70d8:	10050263          	beqz	x10,71dc <dir_sdi+0x19c>
    70dc:	00995793          	srl	x15,x18,0x9
    70e0:	00a787b3          	add	x15,x15,x10
    70e4:	02f9ac23          	sw	x15,56(x19)
    70e8:	03ca0a13          	add	x20,x20,60
    70ec:	1ff97593          	and	x11,x18,511
    70f0:	00ba0a33          	add	x20,x20,x11
    70f4:	0349ae23          	sw	x20,60(x19)
    70f8:	02812403          	lw	x8,40(x2)
    70fc:	000a8513          	mv	x10,x21
    7100:	02c12083          	lw	x1,44(x2)
    7104:	02012903          	lw	x18,32(x2)
    7108:	01c12983          	lw	x19,28(x2)
    710c:	01812a03          	lw	x20,24(x2)
    7110:	01412a83          	lw	x21,20(x2)
    7114:	03010113          	add	x2,x2,48
    7118:	00008067          	ret
    711c:	02912223          	sw	x9,36(x2)
    7120:	00aa5483          	lhu	x9,10(x20)
    7124:	00949493          	sll	x9,x9,0x9
    7128:	04996263          	bltu	x18,x9,716c <dir_sdi+0x12c>
    712c:	01612823          	sw	x22,16(x2)
    7130:	01712623          	sw	x23,12(x2)
    7134:	fff00b13          	li	x22,-1
    7138:	00100b93          	li	x23,1
    713c:	00040593          	mv	x11,x8
    7140:	00098513          	mv	x10,x19
    7144:	c39ff0ef          	jal	6d7c <get_fat>
    7148:	00050413          	mv	x8,x10
    714c:	05650463          	beq	x10,x22,7194 <dir_sdi+0x154>
    7150:	04abfe63          	bgeu	x23,x10,71ac <dir_sdi+0x16c>
    7154:	01ca2783          	lw	x15,28(x20)
    7158:	06f57663          	bgeu	x10,x15,71c4 <dir_sdi+0x184>
    715c:	40990933          	sub	x18,x18,x9
    7160:	fc997ee3          	bgeu	x18,x9,713c <dir_sdi+0xfc>
    7164:	01012b03          	lw	x22,16(x2)
    7168:	00c12b83          	lw	x23,12(x2)
    716c:	00040593          	mv	x11,x8
    7170:	000a0513          	mv	x10,x20
    7174:	8a9fe0ef          	jal	5a1c <clst2sect>
    7178:	02412483          	lw	x9,36(x2)
    717c:	f55ff06f          	j	70d0 <dir_sdi+0x90>
    7180:	00200a93          	li	x21,2
    7184:	f79ff06f          	j	70fc <dir_sdi+0xbc>
    7188:	00200a93          	li	x21,2
    718c:	02812403          	lw	x8,40(x2)
    7190:	f6dff06f          	j	70fc <dir_sdi+0xbc>
    7194:	00100a93          	li	x21,1
    7198:	02812403          	lw	x8,40(x2)
    719c:	02412483          	lw	x9,36(x2)
    71a0:	01012b03          	lw	x22,16(x2)
    71a4:	00c12b83          	lw	x23,12(x2)
    71a8:	f55ff06f          	j	70fc <dir_sdi+0xbc>
    71ac:	00200a93          	li	x21,2
    71b0:	02812403          	lw	x8,40(x2)
    71b4:	02412483          	lw	x9,36(x2)
    71b8:	01012b03          	lw	x22,16(x2)
    71bc:	00c12b83          	lw	x23,12(x2)
    71c0:	f3dff06f          	j	70fc <dir_sdi+0xbc>
    71c4:	00200a93          	li	x21,2
    71c8:	02812403          	lw	x8,40(x2)
    71cc:	02412483          	lw	x9,36(x2)
    71d0:	01012b03          	lw	x22,16(x2)
    71d4:	00c12b83          	lw	x23,12(x2)
    71d8:	f25ff06f          	j	70fc <dir_sdi+0xbc>
    71dc:	00200a93          	li	x21,2
    71e0:	02812403          	lw	x8,40(x2)
    71e4:	f19ff06f          	j	70fc <dir_sdi+0xbc>

000071e8 <create_chain>:
    71e8:	fd010113          	add	x2,x2,-48
    71ec:	02112623          	sw	x1,44(x2)
    71f0:	02812423          	sw	x8,40(x2)
    71f4:	02912223          	sw	x9,36(x2)
    71f8:	03212023          	sw	x18,32(x2)
    71fc:	01312e23          	sw	x19,28(x2)
    7200:	00050913          	mv	x18,x10
    7204:	00058993          	mv	x19,x11
    7208:	00052483          	lw	x9,0(x10)
    720c:	00059e63          	bnez	x11,7228 <create_chain+0x40>
    7210:	0144a403          	lw	x8,20(x9)
    7214:	02040c63          	beqz	x8,724c <create_chain+0x64>
    7218:	01c4a783          	lw	x15,28(x9)
    721c:	02f46a63          	bltu	x8,x15,7250 <create_chain+0x68>
    7220:	00100413          	li	x8,1
    7224:	02c0006f          	j	7250 <create_chain+0x68>
    7228:	b55ff0ef          	jal	6d7c <get_fat>
    722c:	00100793          	li	x15,1
    7230:	38a7f263          	bgeu	x15,x10,75b4 <create_chain+0x3cc>
    7234:	fff00793          	li	x15,-1
    7238:	32f50663          	beq	x10,x15,7564 <create_chain+0x37c>
    723c:	01c4a783          	lw	x15,28(x9)
    7240:	00098413          	mv	x8,x19
    7244:	00f57663          	bgeu	x10,x15,7250 <create_chain+0x68>
    7248:	31c0006f          	j	7564 <create_chain+0x37c>
    724c:	00100413          	li	x8,1
    7250:	0184a503          	lw	x10,24(x9)
    7254:	30050863          	beqz	x10,7564 <create_chain+0x37c>
    7258:	01512a23          	sw	x21,20(x2)
    725c:	0004c703          	lbu	x14,0(x9)
    7260:	00400793          	li	x15,4
    7264:	02f70063          	beq	x14,x15,7284 <create_chain+0x9c>
    7268:	1d340c63          	beq	x8,x19,7440 <create_chain+0x258>
    726c:	01412c23          	sw	x20,24(x2)
    7270:	01612823          	sw	x22,16(x2)
    7274:	00040a93          	mv	x21,x8
    7278:	00100a13          	li	x20,1
    727c:	fff00b13          	li	x22,-1
    7280:	2940006f          	j	7514 <create_chain+0x32c>
    7284:	01412c23          	sw	x20,24(x2)
    7288:	01612823          	sw	x22,16(x2)
    728c:	01712623          	sw	x23,12(x2)
    7290:	01812423          	sw	x24,8(x2)
    7294:	ffe40a93          	add	x21,x8,-2
    7298:	01c4a783          	lw	x15,28(x9)
    729c:	ffe78793          	add	x15,x15,-2 # ffffffe <STACK_TOP+0xfeffffe>
    72a0:	00fab7b3          	sltu	x15,x21,x15
    72a4:	40f007b3          	neg	x15,x15
    72a8:	00fafab3          	and	x21,x21,x15
    72ac:	000a8a13          	mv	x20,x21
    72b0:	00100b13          	li	x22,1
    72b4:	00000b93          	li	x23,0
    72b8:	1ff00c13          	li	x24,511
    72bc:	00ca5593          	srl	x11,x20,0xc
    72c0:	0344a783          	lw	x15,52(x9)
    72c4:	00f585b3          	add	x11,x11,x15
    72c8:	00048513          	mv	x10,x9
    72cc:	d61fe0ef          	jal	602c <move_window>
    72d0:	34051663          	bnez	x10,761c <create_chain+0x434>
    72d4:	003a5613          	srl	x12,x20,0x3
    72d8:	1ff67613          	and	x12,x12,511
    72dc:	007a7793          	and	x15,x20,7
    72e0:	00fb17b3          	sll	x15,x22,x15
    72e4:	0ff7f793          	zext.b	x15,x15
    72e8:	01c4a583          	lw	x11,28(x9)
    72ec:	ffe58593          	add	x11,x11,-2
    72f0:	00050813          	mv	x16,x10
    72f4:	02c0006f          	j	7320 <create_chain+0x138>
    72f8:	00080713          	mv	x14,x16
    72fc:	20000613          	li	x12,512
    7300:	000b8793          	mv	x15,x23
    7304:	0380006f          	j	733c <create_chain+0x154>
    7308:	32ea8863          	beq	x21,x14,7638 <create_chain+0x450>
    730c:	00079863          	bnez	x15,731c <create_chain+0x134>
    7310:	00160613          	add	x12,x12,1
    7314:	08cc6a63          	bltu	x24,x12,73a8 <create_chain+0x1c0>
    7318:	000b0793          	mv	x15,x22
    731c:	00070a13          	mv	x20,x14
    7320:	00c48733          	add	x14,x9,x12
    7324:	03c74683          	lbu	x13,60(x14)
    7328:	00d7f6b3          	and	x13,x15,x13
    732c:	001a0713          	add	x14,x20,1
    7330:	fcb774e3          	bgeu	x14,x11,72f8 <create_chain+0x110>
    7334:	00179793          	sll	x15,x15,0x1
    7338:	0ff7f793          	zext.b	x15,x15
    733c:	fc0696e3          	bnez	x13,7308 <create_chain+0x120>
    7340:	002a0a93          	add	x21,x20,2
    7344:	001a0a13          	add	x20,x20,1
    7348:	ffd00793          	li	x15,-3
    734c:	2747e863          	bltu	x15,x20,75bc <create_chain+0x3d4>
    7350:	00100693          	li	x13,1
    7354:	00100613          	li	x12,1
    7358:	000a8593          	mv	x11,x21
    735c:	00048513          	mv	x10,x9
    7360:	d39fe0ef          	jal	6098 <change_bitmap>
    7364:	00050793          	mv	x15,x10
    7368:	00200713          	li	x14,2
    736c:	00100513          	li	x10,1
    7370:	2ee78063          	beq	x15,x14,7650 <create_chain+0x468>
    7374:	00100713          	li	x14,1
    7378:	26e78063          	beq	x15,x14,75d8 <create_chain+0x3f0>
    737c:	02099a63          	bnez	x19,73b0 <create_chain+0x1c8>
    7380:	00200713          	li	x14,2
    7384:	00e903a3          	sb	x14,7(x18)
    7388:	1e078c63          	beqz	x15,7580 <create_chain+0x398>
    738c:	00100513          	li	x10,1
    7390:	01812a03          	lw	x20,24(x2)
    7394:	01412a83          	lw	x21,20(x2)
    7398:	01012b03          	lw	x22,16(x2)
    739c:	00c12b83          	lw	x23,12(x2)
    73a0:	00812c03          	lw	x24,8(x2)
    73a4:	1c00006f          	j	7564 <create_chain+0x37c>
    73a8:	00070a13          	mv	x20,x14
    73ac:	f11ff06f          	j	72bc <create_chain+0xd4>
    73b0:	00794683          	lbu	x13,7(x18)
    73b4:	00200713          	li	x14,2
    73b8:	04e68863          	beq	x13,x14,7408 <create_chain+0x220>
    73bc:	00198713          	add	x14,x19,1
    73c0:	07570463          	beq	x14,x21,7428 <create_chain+0x240>
    73c4:	01c92783          	lw	x15,28(x18)
    73c8:	00079663          	bnez	x15,73d4 <create_chain+0x1ec>
    73cc:	00100793          	li	x15,1
    73d0:	00f92e23          	sw	x15,28(x18)
    73d4:	000a8613          	mv	x12,x21
    73d8:	00098593          	mv	x11,x19
    73dc:	00090513          	mv	x10,x18
    73e0:	bc4ff0ef          	jal	67a4 <fill_last_frag>
    73e4:	00050793          	mv	x15,x10
    73e8:	1a051663          	bnez	x10,7594 <create_chain+0x3ac>
    73ec:	00100793          	li	x15,1
    73f0:	00f92e23          	sw	x15,28(x18)
    73f4:	01812a03          	lw	x20,24(x2)
    73f8:	01012b03          	lw	x22,16(x2)
    73fc:	00c12b83          	lw	x23,12(x2)
    7400:	00812c03          	lw	x24,8(x2)
    7404:	0b00006f          	j	74b4 <create_chain+0x2cc>
    7408:	00140713          	add	x14,x8,1
    740c:	f7570ee3          	beq	x14,x21,7388 <create_chain+0x1a0>
    7410:	00892703          	lw	x14,8(x18)
    7414:	40e40733          	sub	x14,x8,x14
    7418:	00e92c23          	sw	x14,24(x18)
    741c:	00300713          	li	x14,3
    7420:	00e903a3          	sb	x14,7(x18)
    7424:	f99ff06f          	j	73bc <create_chain+0x1d4>
    7428:	01c92683          	lw	x13,28(x18)
    742c:	00200713          	li	x14,2
    7430:	00068463          	beqz	x13,7438 <create_chain+0x250>
    7434:	00168713          	add	x14,x13,1
    7438:	00e92e23          	sw	x14,28(x18)
    743c:	f4dff06f          	j	7388 <create_chain+0x1a0>
    7440:	00140a93          	add	x21,x8,1
    7444:	01c4a783          	lw	x15,28(x9)
    7448:	00fae463          	bltu	x21,x15,7450 <create_chain+0x268>
    744c:	00200a93          	li	x21,2
    7450:	000a8593          	mv	x11,x21
    7454:	00090513          	mv	x10,x18
    7458:	925ff0ef          	jal	6d7c <get_fat>
    745c:	00100793          	li	x15,1
    7460:	20f50463          	beq	x10,x15,7668 <create_chain+0x480>
    7464:	fff00793          	li	x15,-1
    7468:	20f50463          	beq	x10,x15,7670 <create_chain+0x488>
    746c:	02050463          	beqz	x10,7494 <create_chain+0x2ac>
    7470:	01412c23          	sw	x20,24(x2)
    7474:	01612823          	sw	x22,16(x2)
    7478:	0144a783          	lw	x15,20(x9)
    747c:	00100713          	li	x14,1
    7480:	def77ae3          	bgeu	x14,x15,7274 <create_chain+0x8c>
    7484:	01c4a703          	lw	x14,28(x9)
    7488:	dee7f6e3          	bgeu	x15,x14,7274 <create_chain+0x8c>
    748c:	00078413          	mv	x8,x15
    7490:	de5ff06f          	j	7274 <create_chain+0x8c>
    7494:	040a8a63          	beqz	x21,74e8 <create_chain+0x300>
    7498:	fff00613          	li	x12,-1
    749c:	000a8593          	mv	x11,x21
    74a0:	00048513          	mv	x10,x9
    74a4:	80cff0ef          	jal	64b0 <put_fat>
    74a8:	00050793          	mv	x15,x10
    74ac:	0a051463          	bnez	x10,7554 <create_chain+0x36c>
    74b0:	08099663          	bnez	x19,753c <create_chain+0x354>
    74b4:	0154aa23          	sw	x21,20(x9)
    74b8:	0184a703          	lw	x14,24(x9)
    74bc:	01c4a783          	lw	x15,28(x9)
    74c0:	ffe78793          	add	x15,x15,-2
    74c4:	00e7e663          	bltu	x15,x14,74d0 <create_chain+0x2e8>
    74c8:	fff70713          	add	x14,x14,-1
    74cc:	00e4ac23          	sw	x14,24(x9)
    74d0:	0054c783          	lbu	x15,5(x9)
    74d4:	0017e793          	or	x15,x15,1
    74d8:	00f482a3          	sb	x15,5(x9)
    74dc:	000a8513          	mv	x10,x21
    74e0:	01412a83          	lw	x21,20(x2)
    74e4:	0800006f          	j	7564 <create_chain+0x37c>
    74e8:	01412c23          	sw	x20,24(x2)
    74ec:	01612823          	sw	x22,16(x2)
    74f0:	00040a93          	mv	x21,x8
    74f4:	d85ff06f          	j	7278 <create_chain+0x90>
    74f8:	00040593          	mv	x11,x8
    74fc:	00090513          	mv	x10,x18
    7500:	87dff0ef          	jal	6d7c <get_fat>
    7504:	02050463          	beqz	x10,752c <create_chain+0x344>
    7508:	17450863          	beq	x10,x20,7678 <create_chain+0x490>
    750c:	17650e63          	beq	x10,x22,7688 <create_chain+0x4a0>
    7510:	0f540c63          	beq	x8,x21,7608 <create_chain+0x420>
    7514:	00140413          	add	x8,x8,1
    7518:	01c4a783          	lw	x15,28(x9)
    751c:	fcf46ee3          	bltu	x8,x15,74f8 <create_chain+0x310>
    7520:	0d5a7a63          	bgeu	x20,x21,75f4 <create_chain+0x40c>
    7524:	00200413          	li	x8,2
    7528:	fd1ff06f          	j	74f8 <create_chain+0x310>
    752c:	00040a93          	mv	x21,x8
    7530:	01812a03          	lw	x20,24(x2)
    7534:	01012b03          	lw	x22,16(x2)
    7538:	f61ff06f          	j	7498 <create_chain+0x2b0>
    753c:	000a8613          	mv	x12,x21
    7540:	00098593          	mv	x11,x19
    7544:	00048513          	mv	x10,x9
    7548:	f69fe0ef          	jal	64b0 <put_fat>
    754c:	00050793          	mv	x15,x10
    7550:	f60502e3          	beqz	x10,74b4 <create_chain+0x2cc>
    7554:	00100713          	li	x14,1
    7558:	00100513          	li	x10,1
    755c:	04e78663          	beq	x15,x14,75a8 <create_chain+0x3c0>
    7560:	01412a83          	lw	x21,20(x2)
    7564:	02c12083          	lw	x1,44(x2)
    7568:	02812403          	lw	x8,40(x2)
    756c:	02412483          	lw	x9,36(x2)
    7570:	02012903          	lw	x18,32(x2)
    7574:	01c12983          	lw	x19,28(x2)
    7578:	03010113          	add	x2,x2,48
    757c:	00008067          	ret
    7580:	01812a03          	lw	x20,24(x2)
    7584:	01012b03          	lw	x22,16(x2)
    7588:	00c12b83          	lw	x23,12(x2)
    758c:	00812c03          	lw	x24,8(x2)
    7590:	f25ff06f          	j	74b4 <create_chain+0x2cc>
    7594:	01812a03          	lw	x20,24(x2)
    7598:	01012b03          	lw	x22,16(x2)
    759c:	00c12b83          	lw	x23,12(x2)
    75a0:	00812c03          	lw	x24,8(x2)
    75a4:	fb1ff06f          	j	7554 <create_chain+0x36c>
    75a8:	fff00513          	li	x10,-1
    75ac:	01412a83          	lw	x21,20(x2)
    75b0:	fb5ff06f          	j	7564 <create_chain+0x37c>
    75b4:	00100513          	li	x10,1
    75b8:	fadff06f          	j	7564 <create_chain+0x37c>
    75bc:	000a8513          	mv	x10,x21
    75c0:	01812a03          	lw	x20,24(x2)
    75c4:	01412a83          	lw	x21,20(x2)
    75c8:	01012b03          	lw	x22,16(x2)
    75cc:	00c12b83          	lw	x23,12(x2)
    75d0:	00812c03          	lw	x24,8(x2)
    75d4:	f91ff06f          	j	7564 <create_chain+0x37c>
    75d8:	fff00513          	li	x10,-1
    75dc:	01812a03          	lw	x20,24(x2)
    75e0:	01412a83          	lw	x21,20(x2)
    75e4:	01012b03          	lw	x22,16(x2)
    75e8:	00c12b83          	lw	x23,12(x2)
    75ec:	00812c03          	lw	x24,8(x2)
    75f0:	f75ff06f          	j	7564 <create_chain+0x37c>
    75f4:	00000513          	li	x10,0
    75f8:	01812a03          	lw	x20,24(x2)
    75fc:	01412a83          	lw	x21,20(x2)
    7600:	01012b03          	lw	x22,16(x2)
    7604:	f61ff06f          	j	7564 <create_chain+0x37c>
    7608:	00000513          	li	x10,0
    760c:	01812a03          	lw	x20,24(x2)
    7610:	01412a83          	lw	x21,20(x2)
    7614:	01012b03          	lw	x22,16(x2)
    7618:	f4dff06f          	j	7564 <create_chain+0x37c>
    761c:	fff00513          	li	x10,-1
    7620:	01812a03          	lw	x20,24(x2)
    7624:	01412a83          	lw	x21,20(x2)
    7628:	01012b03          	lw	x22,16(x2)
    762c:	00c12b83          	lw	x23,12(x2)
    7630:	00812c03          	lw	x24,8(x2)
    7634:	f31ff06f          	j	7564 <create_chain+0x37c>
    7638:	01812a03          	lw	x20,24(x2)
    763c:	01412a83          	lw	x21,20(x2)
    7640:	01012b03          	lw	x22,16(x2)
    7644:	00c12b83          	lw	x23,12(x2)
    7648:	00812c03          	lw	x24,8(x2)
    764c:	f19ff06f          	j	7564 <create_chain+0x37c>
    7650:	01812a03          	lw	x20,24(x2)
    7654:	01412a83          	lw	x21,20(x2)
    7658:	01012b03          	lw	x22,16(x2)
    765c:	00c12b83          	lw	x23,12(x2)
    7660:	00812c03          	lw	x24,8(x2)
    7664:	f01ff06f          	j	7564 <create_chain+0x37c>
    7668:	01412a83          	lw	x21,20(x2)
    766c:	ef9ff06f          	j	7564 <create_chain+0x37c>
    7670:	01412a83          	lw	x21,20(x2)
    7674:	ef1ff06f          	j	7564 <create_chain+0x37c>
    7678:	01812a03          	lw	x20,24(x2)
    767c:	01412a83          	lw	x21,20(x2)
    7680:	01012b03          	lw	x22,16(x2)
    7684:	ee1ff06f          	j	7564 <create_chain+0x37c>
    7688:	01812a03          	lw	x20,24(x2)
    768c:	01412a83          	lw	x21,20(x2)
    7690:	01012b03          	lw	x22,16(x2)
    7694:	ed1ff06f          	j	7564 <create_chain+0x37c>

00007698 <remove_chain>:
    7698:	fd010113          	add	x2,x2,-48
    769c:	02112623          	sw	x1,44(x2)
    76a0:	02912223          	sw	x9,36(x2)
    76a4:	00052483          	lw	x9,0(x10)
    76a8:	00100793          	li	x15,1
    76ac:	24b7fa63          	bgeu	x15,x11,7900 <remove_chain+0x268>
    76b0:	02812423          	sw	x8,40(x2)
    76b4:	01312e23          	sw	x19,28(x2)
    76b8:	01812423          	sw	x24,8(x2)
    76bc:	00050993          	mv	x19,x10
    76c0:	00058413          	mv	x8,x11
    76c4:	00060c13          	mv	x24,x12
    76c8:	01c4a783          	lw	x15,28(x9)
    76cc:	00200513          	li	x10,2
    76d0:	32f5f863          	bgeu	x11,x15,7a00 <remove_chain+0x368>
    76d4:	02060863          	beqz	x12,7704 <remove_chain+0x6c>
    76d8:	0004c703          	lbu	x14,0(x9)
    76dc:	00400793          	li	x15,4
    76e0:	00f71863          	bne	x14,x15,76f0 <remove_chain+0x58>
    76e4:	0079c703          	lbu	x14,7(x19)
    76e8:	00200793          	li	x15,2
    76ec:	00f70c63          	beq	x14,x15,7704 <remove_chain+0x6c>
    76f0:	fff00613          	li	x12,-1
    76f4:	000c0593          	mv	x11,x24
    76f8:	00048513          	mv	x10,x9
    76fc:	db5fe0ef          	jal	64b0 <put_fat>
    7700:	30051e63          	bnez	x10,7a1c <remove_chain+0x384>
    7704:	03212023          	sw	x18,32(x2)
    7708:	01412c23          	sw	x20,24(x2)
    770c:	01512a23          	sw	x21,20(x2)
    7710:	01612823          	sw	x22,16(x2)
    7714:	01712623          	sw	x23,12(x2)
    7718:	00040b93          	mv	x23,x8
    771c:	00100a93          	li	x21,1
    7720:	fff00b13          	li	x22,-1
    7724:	00400a13          	li	x20,4
    7728:	0580006f          	j	7780 <remove_chain+0xe8>
    772c:	00000613          	li	x12,0
    7730:	00090593          	mv	x11,x18
    7734:	00048513          	mv	x10,x9
    7738:	d79fe0ef          	jal	64b0 <put_fat>
    773c:	06050663          	beqz	x10,77a8 <remove_chain+0x110>
    7740:	02812403          	lw	x8,40(x2)
    7744:	02012903          	lw	x18,32(x2)
    7748:	01c12983          	lw	x19,28(x2)
    774c:	01812a03          	lw	x20,24(x2)
    7750:	01412a83          	lw	x21,20(x2)
    7754:	01012b03          	lw	x22,16(x2)
    7758:	00c12b83          	lw	x23,12(x2)
    775c:	00812c03          	lw	x24,8(x2)
    7760:	2ac0006f          	j	7a0c <remove_chain+0x374>
    7764:	00190913          	add	x18,x18,1
    7768:	00890863          	beq	x18,x8,7778 <remove_chain+0xe0>
    776c:	0004c783          	lbu	x15,0(x9)
    7770:	07478063          	beq	x15,x20,77d0 <remove_chain+0x138>
    7774:	00040b93          	mv	x23,x8
    7778:	01c4a783          	lw	x15,28(x9)
    777c:	06f47a63          	bgeu	x8,x15,77f0 <remove_chain+0x158>
    7780:	00040913          	mv	x18,x8
    7784:	00040593          	mv	x11,x8
    7788:	00098513          	mv	x10,x19
    778c:	df0ff0ef          	jal	6d7c <get_fat>
    7790:	00050413          	mv	x8,x10
    7794:	04050e63          	beqz	x10,77f0 <remove_chain+0x158>
    7798:	17550863          	beq	x10,x21,7908 <remove_chain+0x270>
    779c:	19650a63          	beq	x10,x22,7930 <remove_chain+0x298>
    77a0:	0004c783          	lbu	x15,0(x9)
    77a4:	f94794e3          	bne	x15,x20,772c <remove_chain+0x94>
    77a8:	0184a703          	lw	x14,24(x9)
    77ac:	01c4a783          	lw	x15,28(x9)
    77b0:	ffe78793          	add	x15,x15,-2
    77b4:	faf778e3          	bgeu	x14,x15,7764 <remove_chain+0xcc>
    77b8:	00170713          	add	x14,x14,1
    77bc:	00e4ac23          	sw	x14,24(x9)
    77c0:	0054c783          	lbu	x15,5(x9)
    77c4:	0017e793          	or	x15,x15,1
    77c8:	00f482a3          	sb	x15,5(x9)
    77cc:	f99ff06f          	j	7764 <remove_chain+0xcc>
    77d0:	00000693          	li	x13,0
    77d4:	41790633          	sub	x12,x18,x23
    77d8:	000b8593          	mv	x11,x23
    77dc:	00048513          	mv	x10,x9
    77e0:	8b9fe0ef          	jal	6098 <change_bitmap>
    77e4:	24051463          	bnez	x10,7a2c <remove_chain+0x394>
    77e8:	00040b93          	mv	x23,x8
    77ec:	f8dff06f          	j	7778 <remove_chain+0xe0>
    77f0:	0004c703          	lbu	x14,0(x9)
    77f4:	00400793          	li	x15,4
    77f8:	00000513          	li	x10,0
    77fc:	02f70463          	beq	x14,x15,7824 <remove_chain+0x18c>
    7800:	02812403          	lw	x8,40(x2)
    7804:	02012903          	lw	x18,32(x2)
    7808:	01c12983          	lw	x19,28(x2)
    780c:	01812a03          	lw	x20,24(x2)
    7810:	01412a83          	lw	x21,20(x2)
    7814:	01012b03          	lw	x22,16(x2)
    7818:	00c12b83          	lw	x23,12(x2)
    781c:	00812c03          	lw	x24,8(x2)
    7820:	1ec0006f          	j	7a0c <remove_chain+0x374>
    7824:	020c1863          	bnez	x24,7854 <remove_chain+0x1bc>
    7828:	000983a3          	sb	x0,7(x19)
    782c:	000c0513          	mv	x10,x24
    7830:	02812403          	lw	x8,40(x2)
    7834:	02012903          	lw	x18,32(x2)
    7838:	01c12983          	lw	x19,28(x2)
    783c:	01812a03          	lw	x20,24(x2)
    7840:	01412a83          	lw	x21,20(x2)
    7844:	01012b03          	lw	x22,16(x2)
    7848:	00c12b83          	lw	x23,12(x2)
    784c:	00812c03          	lw	x24,8(x2)
    7850:	1bc0006f          	j	7a0c <remove_chain+0x374>
    7854:	0079c783          	lbu	x15,7(x19)
    7858:	02079c63          	bnez	x15,7890 <remove_chain+0x1f8>
    785c:	0089a403          	lw	x8,8(x19)
    7860:	00100493          	li	x9,1
    7864:	fff00913          	li	x18,-1
    7868:	17840463          	beq	x8,x24,79d0 <remove_chain+0x338>
    786c:	00040593          	mv	x11,x8
    7870:	00098513          	mv	x10,x19
    7874:	d08ff0ef          	jal	6d7c <get_fat>
    7878:	0ea4f063          	bgeu	x9,x10,7958 <remove_chain+0x2c0>
    787c:	11250263          	beq	x10,x18,7980 <remove_chain+0x2e8>
    7880:	00140413          	add	x8,x8,1
    7884:	12a41263          	bne	x8,x10,79a8 <remove_chain+0x310>
    7888:	00050413          	mv	x8,x10
    788c:	fddff06f          	j	7868 <remove_chain+0x1d0>
    7890:	00300713          	li	x14,3
    7894:	00000513          	li	x10,0
    7898:	02e78463          	beq	x15,x14,78c0 <remove_chain+0x228>
    789c:	02812403          	lw	x8,40(x2)
    78a0:	02012903          	lw	x18,32(x2)
    78a4:	01c12983          	lw	x19,28(x2)
    78a8:	01812a03          	lw	x20,24(x2)
    78ac:	01412a83          	lw	x21,20(x2)
    78b0:	01012b03          	lw	x22,16(x2)
    78b4:	00c12b83          	lw	x23,12(x2)
    78b8:	00812c03          	lw	x24,8(x2)
    78bc:	1500006f          	j	7a0c <remove_chain+0x374>
    78c0:	0089a783          	lw	x15,8(x19)
    78c4:	18fc6663          	bltu	x24,x15,7a50 <remove_chain+0x3b8>
    78c8:	0189a703          	lw	x14,24(x19)
    78cc:	00e787b3          	add	x15,x15,x14
    78d0:	1b87e263          	bltu	x15,x24,7a74 <remove_chain+0x3dc>
    78d4:	00200793          	li	x15,2
    78d8:	00f983a3          	sb	x15,7(x19)
    78dc:	02812403          	lw	x8,40(x2)
    78e0:	02012903          	lw	x18,32(x2)
    78e4:	01c12983          	lw	x19,28(x2)
    78e8:	01812a03          	lw	x20,24(x2)
    78ec:	01412a83          	lw	x21,20(x2)
    78f0:	01012b03          	lw	x22,16(x2)
    78f4:	00c12b83          	lw	x23,12(x2)
    78f8:	00812c03          	lw	x24,8(x2)
    78fc:	1100006f          	j	7a0c <remove_chain+0x374>
    7900:	00200513          	li	x10,2
    7904:	1080006f          	j	7a0c <remove_chain+0x374>
    7908:	00200513          	li	x10,2
    790c:	02812403          	lw	x8,40(x2)
    7910:	02012903          	lw	x18,32(x2)
    7914:	01c12983          	lw	x19,28(x2)
    7918:	01812a03          	lw	x20,24(x2)
    791c:	01412a83          	lw	x21,20(x2)
    7920:	01012b03          	lw	x22,16(x2)
    7924:	00c12b83          	lw	x23,12(x2)
    7928:	00812c03          	lw	x24,8(x2)
    792c:	0e00006f          	j	7a0c <remove_chain+0x374>
    7930:	00100513          	li	x10,1
    7934:	02812403          	lw	x8,40(x2)
    7938:	02012903          	lw	x18,32(x2)
    793c:	01c12983          	lw	x19,28(x2)
    7940:	01812a03          	lw	x20,24(x2)
    7944:	01412a83          	lw	x21,20(x2)
    7948:	01012b03          	lw	x22,16(x2)
    794c:	00c12b83          	lw	x23,12(x2)
    7950:	00812c03          	lw	x24,8(x2)
    7954:	0b80006f          	j	7a0c <remove_chain+0x374>
    7958:	00200513          	li	x10,2
    795c:	02812403          	lw	x8,40(x2)
    7960:	02012903          	lw	x18,32(x2)
    7964:	01c12983          	lw	x19,28(x2)
    7968:	01812a03          	lw	x20,24(x2)
    796c:	01412a83          	lw	x21,20(x2)
    7970:	01012b03          	lw	x22,16(x2)
    7974:	00c12b83          	lw	x23,12(x2)
    7978:	00812c03          	lw	x24,8(x2)
    797c:	0900006f          	j	7a0c <remove_chain+0x374>
    7980:	00100513          	li	x10,1
    7984:	02812403          	lw	x8,40(x2)
    7988:	02012903          	lw	x18,32(x2)
    798c:	01c12983          	lw	x19,28(x2)
    7990:	01812a03          	lw	x20,24(x2)
    7994:	01412a83          	lw	x21,20(x2)
    7998:	01012b03          	lw	x22,16(x2)
    799c:	00c12b83          	lw	x23,12(x2)
    79a0:	00812c03          	lw	x24,8(x2)
    79a4:	0680006f          	j	7a0c <remove_chain+0x374>
    79a8:	00000513          	li	x10,0
    79ac:	02812403          	lw	x8,40(x2)
    79b0:	02012903          	lw	x18,32(x2)
    79b4:	01c12983          	lw	x19,28(x2)
    79b8:	01812a03          	lw	x20,24(x2)
    79bc:	01412a83          	lw	x21,20(x2)
    79c0:	01012b03          	lw	x22,16(x2)
    79c4:	00c12b83          	lw	x23,12(x2)
    79c8:	00812c03          	lw	x24,8(x2)
    79cc:	0400006f          	j	7a0c <remove_chain+0x374>
    79d0:	00200793          	li	x15,2
    79d4:	00f983a3          	sb	x15,7(x19)
    79d8:	00000513          	li	x10,0
    79dc:	02812403          	lw	x8,40(x2)
    79e0:	02012903          	lw	x18,32(x2)
    79e4:	01c12983          	lw	x19,28(x2)
    79e8:	01812a03          	lw	x20,24(x2)
    79ec:	01412a83          	lw	x21,20(x2)
    79f0:	01012b03          	lw	x22,16(x2)
    79f4:	00c12b83          	lw	x23,12(x2)
    79f8:	00812c03          	lw	x24,8(x2)
    79fc:	0100006f          	j	7a0c <remove_chain+0x374>
    7a00:	02812403          	lw	x8,40(x2)
    7a04:	01c12983          	lw	x19,28(x2)
    7a08:	00812c03          	lw	x24,8(x2)
    7a0c:	02c12083          	lw	x1,44(x2)
    7a10:	02412483          	lw	x9,36(x2)
    7a14:	03010113          	add	x2,x2,48
    7a18:	00008067          	ret
    7a1c:	02812403          	lw	x8,40(x2)
    7a20:	01c12983          	lw	x19,28(x2)
    7a24:	00812c03          	lw	x24,8(x2)
    7a28:	fe5ff06f          	j	7a0c <remove_chain+0x374>
    7a2c:	02812403          	lw	x8,40(x2)
    7a30:	02012903          	lw	x18,32(x2)
    7a34:	01c12983          	lw	x19,28(x2)
    7a38:	01812a03          	lw	x20,24(x2)
    7a3c:	01412a83          	lw	x21,20(x2)
    7a40:	01012b03          	lw	x22,16(x2)
    7a44:	00c12b83          	lw	x23,12(x2)
    7a48:	00812c03          	lw	x24,8(x2)
    7a4c:	fc1ff06f          	j	7a0c <remove_chain+0x374>
    7a50:	02812403          	lw	x8,40(x2)
    7a54:	02012903          	lw	x18,32(x2)
    7a58:	01c12983          	lw	x19,28(x2)
    7a5c:	01812a03          	lw	x20,24(x2)
    7a60:	01412a83          	lw	x21,20(x2)
    7a64:	01012b03          	lw	x22,16(x2)
    7a68:	00c12b83          	lw	x23,12(x2)
    7a6c:	00812c03          	lw	x24,8(x2)
    7a70:	f9dff06f          	j	7a0c <remove_chain+0x374>
    7a74:	02812403          	lw	x8,40(x2)
    7a78:	02012903          	lw	x18,32(x2)
    7a7c:	01c12983          	lw	x19,28(x2)
    7a80:	01812a03          	lw	x20,24(x2)
    7a84:	01412a83          	lw	x21,20(x2)
    7a88:	01012b03          	lw	x22,16(x2)
    7a8c:	00c12b83          	lw	x23,12(x2)
    7a90:	00812c03          	lw	x24,8(x2)
    7a94:	f79ff06f          	j	7a0c <remove_chain+0x374>

00007a98 <dir_next>:
    7a98:	fe010113          	add	x2,x2,-32
    7a9c:	00112e23          	sw	x1,28(x2)
    7aa0:	00812c23          	sw	x8,24(x2)
    7aa4:	00912a23          	sw	x9,20(x2)
    7aa8:	01212823          	sw	x18,16(x2)
    7aac:	01412423          	sw	x20,8(x2)
    7ab0:	00050413          	mv	x8,x10
    7ab4:	00058a13          	mv	x20,x11
    7ab8:	00052483          	lw	x9,0(x10)
    7abc:	03052903          	lw	x18,48(x10)
    7ac0:	02090913          	add	x18,x18,32
    7ac4:	0004c683          	lbu	x13,0(x9)
    7ac8:	00400713          	li	x14,4
    7acc:	002007b7          	lui	x15,0x200
    7ad0:	00e68a63          	beq	x13,x14,7ae4 <dir_next+0x4c>
    7ad4:	00f96c63          	bltu	x18,x15,7aec <dir_next+0x54>
    7ad8:	02042c23          	sw	x0,56(x8)
    7adc:	00400513          	li	x10,4
    7ae0:	0540006f          	j	7b34 <dir_next+0x9c>
    7ae4:	100007b7          	lui	x15,0x10000
    7ae8:	fedff06f          	j	7ad4 <dir_next+0x3c>
    7aec:	03842783          	lw	x15,56(x8)
    7af0:	12078a63          	beqz	x15,7c24 <dir_next+0x18c>
    7af4:	01312623          	sw	x19,12(x2)
    7af8:	1ff97993          	and	x19,x18,511
    7afc:	02099063          	bnez	x19,7b1c <dir_next+0x84>
    7b00:	00178793          	add	x15,x15,1 # 10000001 <STACK_TOP+0xff00001>
    7b04:	02f42c23          	sw	x15,56(x8)
    7b08:	03442583          	lw	x11,52(x8)
    7b0c:	04059a63          	bnez	x11,7b60 <dir_next+0xc8>
    7b10:	00595793          	srl	x15,x18,0x5
    7b14:	0084d703          	lhu	x14,8(x9)
    7b18:	02e7fc63          	bgeu	x15,x14,7b50 <dir_next+0xb8>
    7b1c:	03242823          	sw	x18,48(x8)
    7b20:	03c48493          	add	x9,x9,60
    7b24:	013484b3          	add	x9,x9,x19
    7b28:	02942e23          	sw	x9,60(x8)
    7b2c:	00000513          	li	x10,0
    7b30:	00c12983          	lw	x19,12(x2)
    7b34:	01c12083          	lw	x1,28(x2)
    7b38:	01812403          	lw	x8,24(x2)
    7b3c:	01412483          	lw	x9,20(x2)
    7b40:	01012903          	lw	x18,16(x2)
    7b44:	00812a03          	lw	x20,8(x2)
    7b48:	02010113          	add	x2,x2,32
    7b4c:	00008067          	ret
    7b50:	02042c23          	sw	x0,56(x8)
    7b54:	00400513          	li	x10,4
    7b58:	00c12983          	lw	x19,12(x2)
    7b5c:	fd9ff06f          	j	7b34 <dir_next+0x9c>
    7b60:	00a4d783          	lhu	x15,10(x9)
    7b64:	fff78793          	add	x15,x15,-1
    7b68:	00995713          	srl	x14,x18,0x9
    7b6c:	00e7f7b3          	and	x15,x15,x14
    7b70:	fa0796e3          	bnez	x15,7b1c <dir_next+0x84>
    7b74:	01512223          	sw	x21,4(x2)
    7b78:	00040513          	mv	x10,x8
    7b7c:	a00ff0ef          	jal	6d7c <get_fat>
    7b80:	00050a93          	mv	x21,x10
    7b84:	00100793          	li	x15,1
    7b88:	0aa7f263          	bgeu	x15,x10,7c2c <dir_next+0x194>
    7b8c:	fff00793          	li	x15,-1
    7b90:	00100513          	li	x10,1
    7b94:	0afa8c63          	beq	x21,x15,7c4c <dir_next+0x1b4>
    7b98:	01c4a783          	lw	x15,28(x9)
    7b9c:	04faec63          	bltu	x21,x15,7bf4 <dir_next+0x15c>
    7ba0:	060a0863          	beqz	x20,7c10 <dir_next+0x178>
    7ba4:	03442583          	lw	x11,52(x8)
    7ba8:	00040513          	mv	x10,x8
    7bac:	e3cff0ef          	jal	71e8 <create_chain>
    7bb0:	00050a93          	mv	x21,x10
    7bb4:	00700513          	li	x10,7
    7bb8:	0a0a8063          	beqz	x21,7c58 <dir_next+0x1c0>
    7bbc:	00100793          	li	x15,1
    7bc0:	06fa8e63          	beq	x21,x15,7c3c <dir_next+0x1a4>
    7bc4:	fff00793          	li	x15,-1
    7bc8:	00100513          	li	x10,1
    7bcc:	08fa8c63          	beq	x21,x15,7c64 <dir_next+0x1cc>
    7bd0:	000a8593          	mv	x11,x21
    7bd4:	00048513          	mv	x10,x9
    7bd8:	e00fe0ef          	jal	61d8 <dir_clear>
    7bdc:	00050793          	mv	x15,x10
    7be0:	00100513          	li	x10,1
    7be4:	08079663          	bnez	x15,7c70 <dir_next+0x1d8>
    7be8:	00744783          	lbu	x15,7(x8)
    7bec:	0047e793          	or	x15,x15,4
    7bf0:	00f403a3          	sb	x15,7(x8)
    7bf4:	03542a23          	sw	x21,52(x8)
    7bf8:	000a8593          	mv	x11,x21
    7bfc:	00048513          	mv	x10,x9
    7c00:	e1dfd0ef          	jal	5a1c <clst2sect>
    7c04:	02a42c23          	sw	x10,56(x8)
    7c08:	00412a83          	lw	x21,4(x2)
    7c0c:	f11ff06f          	j	7b1c <dir_next+0x84>
    7c10:	02042c23          	sw	x0,56(x8)
    7c14:	00400513          	li	x10,4
    7c18:	00c12983          	lw	x19,12(x2)
    7c1c:	00412a83          	lw	x21,4(x2)
    7c20:	f15ff06f          	j	7b34 <dir_next+0x9c>
    7c24:	00400513          	li	x10,4
    7c28:	f0dff06f          	j	7b34 <dir_next+0x9c>
    7c2c:	00200513          	li	x10,2
    7c30:	00c12983          	lw	x19,12(x2)
    7c34:	00412a83          	lw	x21,4(x2)
    7c38:	efdff06f          	j	7b34 <dir_next+0x9c>
    7c3c:	00200513          	li	x10,2
    7c40:	00c12983          	lw	x19,12(x2)
    7c44:	00412a83          	lw	x21,4(x2)
    7c48:	eedff06f          	j	7b34 <dir_next+0x9c>
    7c4c:	00c12983          	lw	x19,12(x2)
    7c50:	00412a83          	lw	x21,4(x2)
    7c54:	ee1ff06f          	j	7b34 <dir_next+0x9c>
    7c58:	00c12983          	lw	x19,12(x2)
    7c5c:	00412a83          	lw	x21,4(x2)
    7c60:	ed5ff06f          	j	7b34 <dir_next+0x9c>
    7c64:	00c12983          	lw	x19,12(x2)
    7c68:	00412a83          	lw	x21,4(x2)
    7c6c:	ec9ff06f          	j	7b34 <dir_next+0x9c>
    7c70:	00c12983          	lw	x19,12(x2)
    7c74:	00412a83          	lw	x21,4(x2)
    7c78:	ebdff06f          	j	7b34 <dir_next+0x9c>

00007c7c <dir_alloc>:
    7c7c:	fe010113          	add	x2,x2,-32
    7c80:	00112e23          	sw	x1,28(x2)
    7c84:	00812c23          	sw	x8,24(x2)
    7c88:	00912a23          	sw	x9,20(x2)
    7c8c:	01212823          	sw	x18,16(x2)
    7c90:	01312623          	sw	x19,12(x2)
    7c94:	00050413          	mv	x8,x10
    7c98:	00058993          	mv	x19,x11
    7c9c:	00052903          	lw	x18,0(x10)
    7ca0:	00000593          	li	x11,0
    7ca4:	b9cff0ef          	jal	7040 <dir_sdi>
    7ca8:	00050493          	mv	x9,x10
    7cac:	08051863          	bnez	x10,7d3c <dir_alloc+0xc0>
    7cb0:	01412423          	sw	x20,8(x2)
    7cb4:	01512223          	sw	x21,4(x2)
    7cb8:	00400a13          	li	x20,4
    7cbc:	0e500a93          	li	x21,229
    7cc0:	0300006f          	j	7cf0 <dir_alloc+0x74>
    7cc4:	03c42783          	lw	x15,60(x8)
    7cc8:	00078783          	lb	x15,0(x15)
    7ccc:	0007d663          	bgez	x15,7cd8 <dir_alloc+0x5c>
    7cd0:	00050493          	mv	x9,x10
    7cd4:	00c0006f          	j	7ce0 <dir_alloc+0x64>
    7cd8:	00148493          	add	x9,x9,1
    7cdc:	09348463          	beq	x9,x19,7d64 <dir_alloc+0xe8>
    7ce0:	00100593          	li	x11,1
    7ce4:	00040513          	mv	x10,x8
    7ce8:	db1ff0ef          	jal	7a98 <dir_next>
    7cec:	02051a63          	bnez	x10,7d20 <dir_alloc+0xa4>
    7cf0:	03842583          	lw	x11,56(x8)
    7cf4:	00090513          	mv	x10,x18
    7cf8:	b34fe0ef          	jal	602c <move_window>
    7cfc:	02051a63          	bnez	x10,7d30 <dir_alloc+0xb4>
    7d00:	00094783          	lbu	x15,0(x18)
    7d04:	fd4780e3          	beq	x15,x20,7cc4 <dir_alloc+0x48>
    7d08:	03c42783          	lw	x15,60(x8)
    7d0c:	0007c783          	lbu	x15,0(x15)
    7d10:	fd5784e3          	beq	x15,x21,7cd8 <dir_alloc+0x5c>
    7d14:	fc0782e3          	beqz	x15,7cd8 <dir_alloc+0x5c>
    7d18:	00050493          	mv	x9,x10
    7d1c:	fc5ff06f          	j	7ce0 <dir_alloc+0x64>
    7d20:	00050493          	mv	x9,x10
    7d24:	00812a03          	lw	x20,8(x2)
    7d28:	00412a83          	lw	x21,4(x2)
    7d2c:	0100006f          	j	7d3c <dir_alloc+0xc0>
    7d30:	00050493          	mv	x9,x10
    7d34:	00812a03          	lw	x20,8(x2)
    7d38:	00412a83          	lw	x21,4(x2)
    7d3c:	00400793          	li	x15,4
    7d40:	02f48a63          	beq	x9,x15,7d74 <dir_alloc+0xf8>
    7d44:	00048513          	mv	x10,x9
    7d48:	01c12083          	lw	x1,28(x2)
    7d4c:	01812403          	lw	x8,24(x2)
    7d50:	01412483          	lw	x9,20(x2)
    7d54:	01012903          	lw	x18,16(x2)
    7d58:	00c12983          	lw	x19,12(x2)
    7d5c:	02010113          	add	x2,x2,32
    7d60:	00008067          	ret
    7d64:	00050493          	mv	x9,x10
    7d68:	00812a03          	lw	x20,8(x2)
    7d6c:	00412a83          	lw	x21,4(x2)
    7d70:	fd5ff06f          	j	7d44 <dir_alloc+0xc8>
    7d74:	00700493          	li	x9,7
    7d78:	fcdff06f          	j	7d44 <dir_alloc+0xc8>

00007d7c <dir_remove>:
    7d7c:	fe010113          	add	x2,x2,-32
    7d80:	00112e23          	sw	x1,28(x2)
    7d84:	00812c23          	sw	x8,24(x2)
    7d88:	00912a23          	sw	x9,20(x2)
    7d8c:	01212823          	sw	x18,16(x2)
    7d90:	00050413          	mv	x8,x10
    7d94:	00052483          	lw	x9,0(x10)
    7d98:	03052903          	lw	x18,48(x10)
    7d9c:	04c52583          	lw	x11,76(x10)
    7da0:	fff00793          	li	x15,-1
    7da4:	02f59063          	bne	x11,x15,7dc4 <dir_remove+0x48>
    7da8:	01312623          	sw	x19,12(x2)
    7dac:	01412423          	sw	x20,8(x2)
    7db0:	01512223          	sw	x21,4(x2)
    7db4:	00400a13          	li	x20,4
    7db8:	fe500a93          	li	x21,-27
    7dbc:	00100993          	li	x19,1
    7dc0:	0500006f          	j	7e10 <dir_remove+0x94>
    7dc4:	a7cff0ef          	jal	7040 <dir_sdi>
    7dc8:	fe0500e3          	beqz	x10,7da8 <dir_remove+0x2c>
    7dcc:	01c12083          	lw	x1,28(x2)
    7dd0:	01812403          	lw	x8,24(x2)
    7dd4:	01412483          	lw	x9,20(x2)
    7dd8:	01012903          	lw	x18,16(x2)
    7ddc:	02010113          	add	x2,x2,32
    7de0:	00008067          	ret
    7de4:	03c42703          	lw	x14,60(x8)
    7de8:	00074783          	lbu	x15,0(x14)
    7dec:	07f7f793          	and	x15,x15,127
    7df0:	00f70023          	sb	x15,0(x14)
    7df4:	01348223          	sb	x19,4(x9)
    7df8:	03042783          	lw	x15,48(x8)
    7dfc:	0727f263          	bgeu	x15,x18,7e60 <dir_remove+0xe4>
    7e00:	00000593          	li	x11,0
    7e04:	00040513          	mv	x10,x8
    7e08:	c91ff0ef          	jal	7a98 <dir_next>
    7e0c:	02051463          	bnez	x10,7e34 <dir_remove+0xb8>
    7e10:	03842583          	lw	x11,56(x8)
    7e14:	00048513          	mv	x10,x9
    7e18:	a14fe0ef          	jal	602c <move_window>
    7e1c:	00051c63          	bnez	x10,7e34 <dir_remove+0xb8>
    7e20:	0004c783          	lbu	x15,0(x9)
    7e24:	fd4780e3          	beq	x15,x20,7de4 <dir_remove+0x68>
    7e28:	03c42783          	lw	x15,60(x8)
    7e2c:	01578023          	sb	x21,0(x15)
    7e30:	fc5ff06f          	j	7df4 <dir_remove+0x78>
    7e34:	00400793          	li	x15,4
    7e38:	00f50a63          	beq	x10,x15,7e4c <dir_remove+0xd0>
    7e3c:	00c12983          	lw	x19,12(x2)
    7e40:	00812a03          	lw	x20,8(x2)
    7e44:	00412a83          	lw	x21,4(x2)
    7e48:	f85ff06f          	j	7dcc <dir_remove+0x50>
    7e4c:	00200513          	li	x10,2
    7e50:	00c12983          	lw	x19,12(x2)
    7e54:	00812a03          	lw	x20,8(x2)
    7e58:	00412a83          	lw	x21,4(x2)
    7e5c:	f71ff06f          	j	7dcc <dir_remove+0x50>
    7e60:	00c12983          	lw	x19,12(x2)
    7e64:	00812a03          	lw	x20,8(x2)
    7e68:	00412a83          	lw	x21,4(x2)
    7e6c:	f61ff06f          	j	7dcc <dir_remove+0x50>

00007e70 <load_xdir>:
    7e70:	fe010113          	add	x2,x2,-32
    7e74:	00112e23          	sw	x1,28(x2)
    7e78:	00812c23          	sw	x8,24(x2)
    7e7c:	00912a23          	sw	x9,20(x2)
    7e80:	01212823          	sw	x18,16(x2)
    7e84:	00050493          	mv	x9,x10
    7e88:	00052503          	lw	x10,0(x10)
    7e8c:	01052903          	lw	x18,16(x10)
    7e90:	0384a583          	lw	x11,56(x9)
    7e94:	998fe0ef          	jal	602c <move_window>
    7e98:	00050413          	mv	x8,x10
    7e9c:	00051c63          	bnez	x10,7eb4 <load_xdir+0x44>
    7ea0:	03c4a583          	lw	x11,60(x9)
    7ea4:	0005c703          	lbu	x14,0(x11)
    7ea8:	08500793          	li	x15,133
    7eac:	00200413          	li	x8,2
    7eb0:	02f70063          	beq	x14,x15,7ed0 <load_xdir+0x60>
    7eb4:	00040513          	mv	x10,x8
    7eb8:	01c12083          	lw	x1,28(x2)
    7ebc:	01812403          	lw	x8,24(x2)
    7ec0:	01412483          	lw	x9,20(x2)
    7ec4:	01012903          	lw	x18,16(x2)
    7ec8:	02010113          	add	x2,x2,32
    7ecc:	00008067          	ret
    7ed0:	01412423          	sw	x20,8(x2)
    7ed4:	02000613          	li	x12,32
    7ed8:	00090513          	mv	x10,x18
    7edc:	821fc0ef          	jal	46fc <memcpy>
    7ee0:	00194783          	lbu	x15,1(x18)
    7ee4:	00178793          	add	x15,x15,1
    7ee8:	00579a13          	sll	x20,x15,0x5
    7eec:	fa0a0713          	add	x14,x20,-96
    7ef0:	20000793          	li	x15,512
    7ef4:	16e7ec63          	bltu	x15,x14,806c <load_xdir+0x1fc>
    7ef8:	00000593          	li	x11,0
    7efc:	00048513          	mv	x10,x9
    7f00:	b99ff0ef          	jal	7a98 <dir_next>
    7f04:	00050413          	mv	x8,x10
    7f08:	00400793          	li	x15,4
    7f0c:	12f50263          	beq	x10,x15,8030 <load_xdir+0x1c0>
    7f10:	00050663          	beqz	x10,7f1c <load_xdir+0xac>
    7f14:	00812a03          	lw	x20,8(x2)
    7f18:	f9dff06f          	j	7eb4 <load_xdir+0x44>
    7f1c:	0384a583          	lw	x11,56(x9)
    7f20:	0004a503          	lw	x10,0(x9)
    7f24:	908fe0ef          	jal	602c <move_window>
    7f28:	00050413          	mv	x8,x10
    7f2c:	14051463          	bnez	x10,8074 <load_xdir+0x204>
    7f30:	03c4a583          	lw	x11,60(x9)
    7f34:	0005c703          	lbu	x14,0(x11)
    7f38:	0c000793          	li	x15,192
    7f3c:	00200413          	li	x8,2
    7f40:	00f70663          	beq	x14,x15,7f4c <load_xdir+0xdc>
    7f44:	00812a03          	lw	x20,8(x2)
    7f48:	f6dff06f          	j	7eb4 <load_xdir+0x44>
    7f4c:	02000613          	li	x12,32
    7f50:	02090513          	add	x10,x18,32
    7f54:	fa8fc0ef          	jal	46fc <memcpy>
    7f58:	02394503          	lbu	x10,35(x18)
    7f5c:	00f00593          	li	x11,15
    7f60:	02c50513          	add	x10,x10,44
    7f64:	0a9050ef          	jal	d80c <__hidden___udivsi3>
    7f68:	00551513          	sll	x10,x10,0x5
    7f6c:	10aa6863          	bltu	x20,x10,807c <load_xdir+0x20c>
    7f70:	01312623          	sw	x19,12(x2)
    7f74:	01512223          	sw	x21,4(x2)
    7f78:	01612023          	sw	x22,0(x2)
    7f7c:	04000993          	li	x19,64
    7f80:	00400a93          	li	x21,4
    7f84:	0c100b13          	li	x22,193
    7f88:	00000593          	li	x11,0
    7f8c:	00048513          	mv	x10,x9
    7f90:	b09ff0ef          	jal	7a98 <dir_next>
    7f94:	00050413          	mv	x8,x10
    7f98:	0b550263          	beq	x10,x21,803c <load_xdir+0x1cc>
    7f9c:	0e051463          	bnez	x10,8084 <load_xdir+0x214>
    7fa0:	0384a583          	lw	x11,56(x9)
    7fa4:	0004a503          	lw	x10,0(x9)
    7fa8:	884fe0ef          	jal	602c <move_window>
    7fac:	00050413          	mv	x8,x10
    7fb0:	0e051463          	bnez	x10,8098 <load_xdir+0x228>
    7fb4:	03c4a583          	lw	x11,60(x9)
    7fb8:	0005c783          	lbu	x15,0(x11)
    7fbc:	09679c63          	bne	x15,x22,8054 <load_xdir+0x1e4>
    7fc0:	02000613          	li	x12,32
    7fc4:	01390533          	add	x10,x18,x19
    7fc8:	f34fc0ef          	jal	46fc <memcpy>
    7fcc:	02098993          	add	x19,x19,32
    7fd0:	fb49ece3          	bltu	x19,x20,7f88 <load_xdir+0x118>
    7fd4:	26000793          	li	x15,608
    7fd8:	0137fc63          	bgeu	x15,x19,7ff0 <load_xdir+0x180>
    7fdc:	00c12983          	lw	x19,12(x2)
    7fe0:	00812a03          	lw	x20,8(x2)
    7fe4:	00412a83          	lw	x21,4(x2)
    7fe8:	00012b03          	lw	x22,0(x2)
    7fec:	ec9ff06f          	j	7eb4 <load_xdir+0x44>
    7ff0:	00090513          	mv	x10,x18
    7ff4:	aa1fd0ef          	jal	5a94 <xdir_sum>
    7ff8:	00394783          	lbu	x15,3(x18)
    7ffc:	00879793          	sll	x15,x15,0x8
    8000:	00294703          	lbu	x14,2(x18)
    8004:	00e7e7b3          	or	x15,x15,x14
    8008:	01079793          	sll	x15,x15,0x10
    800c:	0107d793          	srl	x15,x15,0x10
    8010:	40a78433          	sub	x8,x15,x10
    8014:	00803433          	snez	x8,x8
    8018:	00141413          	sll	x8,x8,0x1
    801c:	00c12983          	lw	x19,12(x2)
    8020:	00812a03          	lw	x20,8(x2)
    8024:	00412a83          	lw	x21,4(x2)
    8028:	00012b03          	lw	x22,0(x2)
    802c:	e89ff06f          	j	7eb4 <load_xdir+0x44>
    8030:	00200413          	li	x8,2
    8034:	00812a03          	lw	x20,8(x2)
    8038:	e7dff06f          	j	7eb4 <load_xdir+0x44>
    803c:	00200413          	li	x8,2
    8040:	00c12983          	lw	x19,12(x2)
    8044:	00812a03          	lw	x20,8(x2)
    8048:	00412a83          	lw	x21,4(x2)
    804c:	00012b03          	lw	x22,0(x2)
    8050:	e65ff06f          	j	7eb4 <load_xdir+0x44>
    8054:	00200413          	li	x8,2
    8058:	00c12983          	lw	x19,12(x2)
    805c:	00812a03          	lw	x20,8(x2)
    8060:	00412a83          	lw	x21,4(x2)
    8064:	00012b03          	lw	x22,0(x2)
    8068:	e4dff06f          	j	7eb4 <load_xdir+0x44>
    806c:	00812a03          	lw	x20,8(x2)
    8070:	e45ff06f          	j	7eb4 <load_xdir+0x44>
    8074:	00812a03          	lw	x20,8(x2)
    8078:	e3dff06f          	j	7eb4 <load_xdir+0x44>
    807c:	00812a03          	lw	x20,8(x2)
    8080:	e35ff06f          	j	7eb4 <load_xdir+0x44>
    8084:	00c12983          	lw	x19,12(x2)
    8088:	00812a03          	lw	x20,8(x2)
    808c:	00412a83          	lw	x21,4(x2)
    8090:	00012b03          	lw	x22,0(x2)
    8094:	e21ff06f          	j	7eb4 <load_xdir+0x44>
    8098:	00c12983          	lw	x19,12(x2)
    809c:	00812a03          	lw	x20,8(x2)
    80a0:	00412a83          	lw	x21,4(x2)
    80a4:	00012b03          	lw	x22,0(x2)
    80a8:	e0dff06f          	j	7eb4 <load_xdir+0x44>

000080ac <store_xdir>:
    80ac:	fe010113          	add	x2,x2,-32
    80b0:	00112e23          	sw	x1,28(x2)
    80b4:	00812c23          	sw	x8,24(x2)
    80b8:	00912a23          	sw	x9,20(x2)
    80bc:	01212823          	sw	x18,16(x2)
    80c0:	00050413          	mv	x8,x10
    80c4:	00052783          	lw	x15,0(x10)
    80c8:	0107a483          	lw	x9,16(x15)
    80cc:	00048513          	mv	x10,x9
    80d0:	9c5fd0ef          	jal	5a94 <xdir_sum>
    80d4:	00a48123          	sb	x10,2(x9)
    80d8:	00855513          	srl	x10,x10,0x8
    80dc:	00a481a3          	sb	x10,3(x9)
    80e0:	0014c903          	lbu	x18,1(x9)
    80e4:	04c42583          	lw	x11,76(x8)
    80e8:	00040513          	mv	x10,x8
    80ec:	f55fe0ef          	jal	7040 <dir_sdi>
    80f0:	06051663          	bnez	x10,815c <store_xdir+0xb0>
    80f4:	01312623          	sw	x19,12(x2)
    80f8:	00190913          	add	x18,x18,1
    80fc:	00100993          	li	x19,1
    8100:	03842583          	lw	x11,56(x8)
    8104:	00042503          	lw	x10,0(x8)
    8108:	f25fd0ef          	jal	602c <move_window>
    810c:	04051663          	bnez	x10,8158 <store_xdir+0xac>
    8110:	02000613          	li	x12,32
    8114:	00048593          	mv	x11,x9
    8118:	03c42503          	lw	x10,60(x8)
    811c:	de0fc0ef          	jal	46fc <memcpy>
    8120:	00042783          	lw	x15,0(x8)
    8124:	01378223          	sb	x19,4(x15)
    8128:	fff90913          	add	x18,x18,-1
    812c:	02090063          	beqz	x18,814c <store_xdir+0xa0>
    8130:	02048493          	add	x9,x9,32
    8134:	00000593          	li	x11,0
    8138:	00040513          	mv	x10,x8
    813c:	95dff0ef          	jal	7a98 <dir_next>
    8140:	fc0500e3          	beqz	x10,8100 <store_xdir+0x54>
    8144:	00c12983          	lw	x19,12(x2)
    8148:	0140006f          	j	815c <store_xdir+0xb0>
    814c:	00090513          	mv	x10,x18
    8150:	00c12983          	lw	x19,12(x2)
    8154:	0080006f          	j	815c <store_xdir+0xb0>
    8158:	00c12983          	lw	x19,12(x2)
    815c:	00200793          	li	x15,2
    8160:	00a7f463          	bgeu	x15,x10,8168 <store_xdir+0xbc>
    8164:	00200513          	li	x10,2
    8168:	01c12083          	lw	x1,28(x2)
    816c:	01812403          	lw	x8,24(x2)
    8170:	01412483          	lw	x9,20(x2)
    8174:	01012903          	lw	x18,16(x2)
    8178:	02010113          	add	x2,x2,32
    817c:	00008067          	ret

00008180 <check_fs>:
    8180:	ff010113          	add	x2,x2,-16
    8184:	00112623          	sw	x1,12(x2)
    8188:	00812423          	sw	x8,8(x2)
    818c:	00912223          	sw	x9,4(x2)
    8190:	00050413          	mv	x8,x10
    8194:	00050223          	sb	x0,4(x10)
    8198:	fff00793          	li	x15,-1
    819c:	02f52c23          	sw	x15,56(x10)
    81a0:	e8dfd0ef          	jal	602c <move_window>
    81a4:	00400493          	li	x9,4
    81a8:	06051263          	bnez	x10,820c <check_fs+0x8c>
    81ac:	01212023          	sw	x18,0(x2)
    81b0:	00050493          	mv	x9,x10
    81b4:	23b44903          	lbu	x18,571(x8)
    81b8:	00891913          	sll	x18,x18,0x8
    81bc:	23a44783          	lbu	x15,570(x8)
    81c0:	00f96933          	or	x18,x18,x15
    81c4:	01091913          	sll	x18,x18,0x10
    81c8:	01095913          	srl	x18,x18,0x10
    81cc:	0000b7b7          	lui	x15,0xb
    81d0:	a5578793          	add	x15,x15,-1451 # aa55 <f_read+0x71>
    81d4:	04f90863          	beq	x18,x15,8224 <check_fs+0xa4>
    81d8:	03c44783          	lbu	x15,60(x8)
    81dc:	0eb00713          	li	x14,235
    81e0:	18e78c63          	beq	x15,x14,8378 <check_fs+0x1f8>
    81e4:	01878793          	add	x15,x15,24
    81e8:	0ff7f793          	zext.b	x15,x15
    81ec:	00100713          	li	x14,1
    81f0:	18f77463          	bgeu	x14,x15,8378 <check_fs+0x1f8>
    81f4:	0000b4b7          	lui	x9,0xb
    81f8:	a5548493          	add	x9,x9,-1451 # aa55 <f_read+0x71>
    81fc:	409904b3          	sub	x9,x18,x9
    8200:	009034b3          	snez	x9,x9
    8204:	00248493          	add	x9,x9,2
    8208:	00012903          	lw	x18,0(x2)
    820c:	00048513          	mv	x10,x9
    8210:	00c12083          	lw	x1,12(x2)
    8214:	00812403          	lw	x8,8(x2)
    8218:	00412483          	lw	x9,4(x2)
    821c:	01010113          	add	x2,x2,16
    8220:	00008067          	ret
    8224:	00b00613          	li	x12,11
    8228:	000125b7          	lui	x11,0x12
    822c:	8c458593          	add	x11,x11,-1852 # 118c4 <__clzsi2+0xcd8>
    8230:	03c40513          	add	x10,x8,60
    8234:	d60fc0ef          	jal	4794 <memcmp>
    8238:	12050463          	beqz	x10,8360 <check_fs+0x1e0>
    823c:	03c44783          	lbu	x15,60(x8)
    8240:	0eb00713          	li	x14,235
    8244:	00e78a63          	beq	x15,x14,8258 <check_fs+0xd8>
    8248:	01878793          	add	x15,x15,24
    824c:	0ff7f793          	zext.b	x15,x15
    8250:	00100713          	li	x14,1
    8254:	faf760e3          	bltu	x14,x15,81f4 <check_fs+0x74>
    8258:	00800613          	li	x12,8
    825c:	000125b7          	lui	x11,0x12
    8260:	8d058593          	add	x11,x11,-1840 # 118d0 <__clzsi2+0xce4>
    8264:	08e40513          	add	x10,x8,142
    8268:	d2cfc0ef          	jal	4794 <memcmp>
    826c:	02050a63          	beqz	x10,82a0 <check_fs+0x120>
    8270:	04844783          	lbu	x15,72(x8)
    8274:	00879793          	sll	x15,x15,0x8
    8278:	04744703          	lbu	x14,71(x8)
    827c:	00e7e7b3          	or	x15,x15,x14
    8280:	01079793          	sll	x15,x15,0x10
    8284:	0107d793          	srl	x15,x15,0x10
    8288:	fff78713          	add	x14,x15,-1
    828c:	00f77733          	and	x14,x14,x15
    8290:	10070c63          	beqz	x14,83a8 <check_fs+0x228>
    8294:	00200493          	li	x9,2
    8298:	00012903          	lw	x18,0(x2)
    829c:	f71ff06f          	j	820c <check_fs+0x8c>
    82a0:	00012903          	lw	x18,0(x2)
    82a4:	f69ff06f          	j	820c <check_fs+0x8c>
    82a8:	20000713          	li	x14,512
    82ac:	0ce79063          	bne	x15,x14,836c <check_fs+0x1ec>
    82b0:	04944783          	lbu	x15,73(x8)
    82b4:	f40780e3          	beqz	x15,81f4 <check_fs+0x74>
    82b8:	fff78713          	add	x14,x15,-1
    82bc:	00f777b3          	and	x15,x14,x15
    82c0:	f2079ae3          	bnez	x15,81f4 <check_fs+0x74>
    82c4:	04b44783          	lbu	x15,75(x8)
    82c8:	00879793          	sll	x15,x15,0x8
    82cc:	04a44703          	lbu	x14,74(x8)
    82d0:	00e7e7b3          	or	x15,x15,x14
    82d4:	01079793          	sll	x15,x15,0x10
    82d8:	4107d793          	sra	x15,x15,0x10
    82dc:	f0078ce3          	beqz	x15,81f4 <check_fs+0x74>
    82e0:	04c44783          	lbu	x15,76(x8)
    82e4:	fff78793          	add	x15,x15,-1
    82e8:	00100713          	li	x14,1
    82ec:	f0f764e3          	bltu	x14,x15,81f4 <check_fs+0x74>
    82f0:	04e44783          	lbu	x15,78(x8)
    82f4:	00879793          	sll	x15,x15,0x8
    82f8:	04d44703          	lbu	x14,77(x8)
    82fc:	00e7e7b3          	or	x15,x15,x14
    8300:	01079793          	sll	x15,x15,0x10
    8304:	4107d793          	sra	x15,x15,0x10
    8308:	ee0786e3          	beqz	x15,81f4 <check_fs+0x74>
    830c:	05044783          	lbu	x15,80(x8)
    8310:	00879793          	sll	x15,x15,0x8
    8314:	04f44703          	lbu	x14,79(x8)
    8318:	00e7e7b3          	or	x15,x15,x14
    831c:	01079793          	sll	x15,x15,0x10
    8320:	0107d793          	srl	x15,x15,0x10
    8324:	07f00713          	li	x14,127
    8328:	00f76a63          	bltu	x14,x15,833c <check_fs+0x1bc>
    832c:	05c40513          	add	x10,x8,92
    8330:	e00fd0ef          	jal	5930 <ld_dword>
    8334:	000107b7          	lui	x15,0x10
    8338:	eaf56ee3          	bltu	x10,x15,81f4 <check_fs+0x74>
    833c:	05344783          	lbu	x15,83(x8)
    8340:	00879793          	sll	x15,x15,0x8
    8344:	05244703          	lbu	x14,82(x8)
    8348:	00e7e7b3          	or	x15,x15,x14
    834c:	01079793          	sll	x15,x15,0x10
    8350:	4107d793          	sra	x15,x15,0x10
    8354:	ea0780e3          	beqz	x15,81f4 <check_fs+0x74>
    8358:	00012903          	lw	x18,0(x2)
    835c:	eb1ff06f          	j	820c <check_fs+0x8c>
    8360:	00100493          	li	x9,1
    8364:	00012903          	lw	x18,0(x2)
    8368:	ea5ff06f          	j	820c <check_fs+0x8c>
    836c:	00300493          	li	x9,3
    8370:	00012903          	lw	x18,0(x2)
    8374:	e99ff06f          	j	820c <check_fs+0x8c>
    8378:	04844783          	lbu	x15,72(x8)
    837c:	00879793          	sll	x15,x15,0x8
    8380:	04744703          	lbu	x14,71(x8)
    8384:	00e7e7b3          	or	x15,x15,x14
    8388:	01079793          	sll	x15,x15,0x10
    838c:	0107d793          	srl	x15,x15,0x10
    8390:	fff78713          	add	x14,x15,-1 # ffff <__muldf3+0x63b>
    8394:	00f77733          	and	x14,x14,x15
    8398:	f00708e3          	beqz	x14,82a8 <check_fs+0x128>
    839c:	00300493          	li	x9,3
    83a0:	00012903          	lw	x18,0(x2)
    83a4:	e69ff06f          	j	820c <check_fs+0x8c>
    83a8:	20000713          	li	x14,512
    83ac:	00e78863          	beq	x15,x14,83bc <check_fs+0x23c>
    83b0:	00200493          	li	x9,2
    83b4:	00012903          	lw	x18,0(x2)
    83b8:	e55ff06f          	j	820c <check_fs+0x8c>
    83bc:	04944783          	lbu	x15,73(x8)
    83c0:	ef5ff06f          	j	82b4 <check_fs+0x134>

000083c4 <mount_volume>:
    83c4:	fc010113          	add	x2,x2,-64
    83c8:	02112e23          	sw	x1,60(x2)
    83cc:	02812c23          	sw	x8,56(x2)
    83d0:	03212823          	sw	x18,48(x2)
    83d4:	00058913          	mv	x18,x11
    83d8:	00060413          	mv	x8,x12
    83dc:	0005a023          	sw	x0,0(x11)
    83e0:	f6cfd0ef          	jal	5b4c <get_ldnumber>
    83e4:	6c054063          	bltz	x10,8aa4 <mount_volume+0x6e0>
    83e8:	02912a23          	sw	x9,52(x2)
    83ec:	00251513          	sll	x10,x10,0x2
    83f0:	0001d7b7          	lui	x15,0x1d
    83f4:	eec78793          	add	x15,x15,-276 # 1ceec <FatFs>
    83f8:	00f50533          	add	x10,x10,x15
    83fc:	00052483          	lw	x9,0(x10)
    8400:	6c048063          	beqz	x9,8ac0 <mount_volume+0x6fc>
    8404:	00992023          	sw	x9,0(x18)
    8408:	0fe47913          	and	x18,x8,254
    840c:	0004c783          	lbu	x15,0(x9)
    8410:	02078863          	beqz	x15,8440 <mount_volume+0x7c>
    8414:	0014c503          	lbu	x10,1(x9)
    8418:	be4fd0ef          	jal	57fc <disk_status>
    841c:	00157793          	and	x15,x10,1
    8420:	02079063          	bnez	x15,8440 <mount_volume+0x7c>
    8424:	00000413          	li	x8,0
    8428:	140902e3          	beqz	x18,8d6c <mount_volume+0x9a8>
    842c:	01d51513          	sll	x10,x10,0x1d
    8430:	41f55513          	sra	x10,x10,0x1f
    8434:	00a57413          	and	x8,x10,10
    8438:	03412483          	lw	x9,52(x2)
    843c:	66c0006f          	j	8aa8 <mount_volume+0x6e4>
    8440:	00048023          	sb	x0,0(x9)
    8444:	0014c503          	lbu	x10,1(x9)
    8448:	bd0fd0ef          	jal	5818 <disk_initialize>
    844c:	00157793          	and	x15,x10,1
    8450:	00300413          	li	x8,3
    8454:	120790e3          	bnez	x15,8d74 <mount_volume+0x9b0>
    8458:	00090863          	beqz	x18,8468 <mount_volume+0xa4>
    845c:	00457513          	and	x10,x10,4
    8460:	00a00413          	li	x8,10
    8464:	10051ce3          	bnez	x10,8d7c <mount_volume+0x9b8>
    8468:	00000593          	li	x11,0
    846c:	00048513          	mv	x10,x9
    8470:	d11ff0ef          	jal	8180 <check_fs>
    8474:	00050413          	mv	x8,x10
    8478:	00200793          	li	x15,2
    847c:	26f50863          	beq	x10,x15,86ec <mount_volume+0x328>
    8480:	00400793          	li	x15,4
    8484:	64f40463          	beq	x8,x15,8acc <mount_volume+0x708>
    8488:	00100793          	li	x15,1
    848c:	6487e663          	bltu	x15,x8,8ad8 <mount_volume+0x714>
    8490:	0384a903          	lw	x18,56(x9)
    8494:	00100793          	li	x15,1
    8498:	2cf40663          	beq	x8,x15,8764 <mount_volume+0x3a0>
    849c:	0484c783          	lbu	x15,72(x9)
    84a0:	00879793          	sll	x15,x15,0x8
    84a4:	0474c703          	lbu	x14,71(x9)
    84a8:	00e7e7b3          	or	x15,x15,x14
    84ac:	01079793          	sll	x15,x15,0x10
    84b0:	4107d793          	sra	x15,x15,0x10
    84b4:	20000713          	li	x14,512
    84b8:	00d00413          	li	x8,13
    84bc:	0ee792e3          	bne	x15,x14,8da0 <mount_volume+0x9dc>
    84c0:	03312623          	sw	x19,44(x2)
    84c4:	03512223          	sw	x21,36(x2)
    84c8:	0534c783          	lbu	x15,83(x9)
    84cc:	00879793          	sll	x15,x15,0x8
    84d0:	0524c703          	lbu	x14,82(x9)
    84d4:	00e7e7b3          	or	x15,x15,x14
    84d8:	01079993          	sll	x19,x15,0x10
    84dc:	0109d993          	srl	x19,x19,0x10
    84e0:	01079713          	sll	x14,x15,0x10
    84e4:	01075713          	srl	x14,x14,0x10
    84e8:	00071863          	bnez	x14,84f8 <mount_volume+0x134>
    84ec:	06048513          	add	x10,x9,96
    84f0:	c40fd0ef          	jal	5930 <ld_dword>
    84f4:	00050993          	mv	x19,x10
    84f8:	0334a023          	sw	x19,32(x9)
    84fc:	04c4ca83          	lbu	x21,76(x9)
    8500:	015481a3          	sb	x21,3(x9)
    8504:	fffa8793          	add	x15,x21,-1
    8508:	0ff7f793          	zext.b	x15,x15
    850c:	00100713          	li	x14,1
    8510:	00d00413          	li	x8,13
    8514:	08f76ae3          	bltu	x14,x15,8da8 <mount_volume+0x9e4>
    8518:	03412423          	sw	x20,40(x2)
    851c:	0494ca03          	lbu	x20,73(x9)
    8520:	01449523          	sh	x20,10(x9)
    8524:	080a0ae3          	beqz	x20,8db8 <mount_volume+0x9f4>
    8528:	fffa0793          	add	x15,x20,-1
    852c:	0147f7b3          	and	x15,x15,x20
    8530:	08079ee3          	bnez	x15,8dcc <mount_volume+0xa08>
    8534:	03612023          	sw	x22,32(x2)
    8538:	01712e23          	sw	x23,28(x2)
    853c:	04e4c783          	lbu	x15,78(x9)
    8540:	00879793          	sll	x15,x15,0x8
    8544:	04d4c703          	lbu	x14,77(x9)
    8548:	00e7e7b3          	or	x15,x15,x14
    854c:	01079b93          	sll	x23,x15,0x10
    8550:	410bdb93          	sra	x23,x23,0x10
    8554:	01079b13          	sll	x22,x15,0x10
    8558:	010b5b13          	srl	x22,x22,0x10
    855c:	01649423          	sh	x22,8(x9)
    8560:	00f7f793          	and	x15,x15,15
    8564:	06079ee3          	bnez	x15,8de0 <mount_volume+0xa1c>
    8568:	01812c23          	sw	x24,24(x2)
    856c:	01912a23          	sw	x25,20(x2)
    8570:	0504c783          	lbu	x15,80(x9)
    8574:	00879793          	sll	x15,x15,0x8
    8578:	04f4c703          	lbu	x14,79(x9)
    857c:	00e7e7b3          	or	x15,x15,x14
    8580:	01079c13          	sll	x24,x15,0x10
    8584:	010c5c13          	srl	x24,x24,0x10
    8588:	01079713          	sll	x14,x15,0x10
    858c:	01075713          	srl	x14,x14,0x10
    8590:	00071863          	bnez	x14,85a0 <mount_volume+0x1dc>
    8594:	05c48513          	add	x10,x9,92
    8598:	b98fd0ef          	jal	5930 <ld_dword>
    859c:	00050c13          	mv	x24,x10
    85a0:	04b4c783          	lbu	x15,75(x9)
    85a4:	00879793          	sll	x15,x15,0x8
    85a8:	04a4c703          	lbu	x14,74(x9)
    85ac:	00e7e7b3          	or	x15,x15,x14
    85b0:	01079c93          	sll	x25,x15,0x10
    85b4:	010cdc93          	srl	x25,x25,0x10
    85b8:	00d00413          	li	x8,13
    85bc:	01079713          	sll	x14,x15,0x10
    85c0:	01075713          	srl	x14,x14,0x10
    85c4:	02070ce3          	beqz	x14,8dfc <mount_volume+0xa38>
    85c8:	01a12823          	sw	x26,16(x2)
    85cc:	00098593          	mv	x11,x19
    85d0:	000a8513          	mv	x10,x21
    85d4:	20c050ef          	jal	d7e0 <__mulsi3>
    85d8:	00050d13          	mv	x26,x10
    85dc:	004b5a93          	srl	x21,x22,0x4
    85e0:	019a8ab3          	add	x21,x21,x25
    85e4:	00aa8ab3          	add	x21,x21,x10
    85e8:	035c6ce3          	bltu	x24,x21,8e20 <mount_volume+0xa5c>
    85ec:	415c0c33          	sub	x24,x24,x21
    85f0:	000a0593          	mv	x11,x20
    85f4:	000c0513          	mv	x10,x24
    85f8:	214050ef          	jal	d80c <__hidden___udivsi3>
    85fc:	054c66e3          	bltu	x24,x20,8e48 <mount_volume+0xa84>
    8600:	100007b7          	lui	x15,0x10000
    8604:	ff578793          	add	x15,x15,-11 # ffffff5 <STACK_TOP+0xfeffff5>
    8608:	06a7e4e3          	bltu	x15,x10,8e70 <mount_volume+0xaac>
    860c:	000107b7          	lui	x15,0x10
    8610:	ff578793          	add	x15,x15,-11 # fff5 <__muldf3+0x631>
    8614:	62a7e863          	bltu	x15,x10,8c44 <mount_volume+0x880>
    8618:	000017b7          	lui	x15,0x1
    861c:	ff578793          	add	x15,x15,-11 # ff5 <load_core+0x1b1>
    8620:	6ea7e863          	bltu	x15,x10,8d10 <mount_volume+0x94c>
    8624:	00250713          	add	x14,x10,2
    8628:	012c8cb3          	add	x25,x25,x18
    862c:	00e4ae23          	sw	x14,28(x9)
    8630:	0324a223          	sw	x18,36(x9)
    8634:	0394a423          	sw	x25,40(x9)
    8638:	01590ab3          	add	x21,x18,x21
    863c:	0354a823          	sw	x21,48(x9)
    8640:	00d00413          	li	x8,13
    8644:	5c0b0c63          	beqz	x22,8c1c <mount_volume+0x858>
    8648:	01ac8cb3          	add	x25,x25,x26
    864c:	00171793          	sll	x15,x14,0x1
    8650:	00e787b3          	add	x15,x15,x14
    8654:	0017d793          	srl	x15,x15,0x1
    8658:	00177713          	and	x14,x14,1
    865c:	00e787b3          	add	x15,x15,x14
    8660:	00100713          	li	x14,1
    8664:	0394a623          	sw	x25,44(x9)
    8668:	1ff78793          	add	x15,x15,511
    866c:	0097d793          	srl	x15,x15,0x9
    8670:	00d00413          	li	x8,13
    8674:	58f9e063          	bltu	x19,x15,8bf4 <mount_volume+0x830>
    8678:	fff00793          	li	x15,-1
    867c:	00f4ac23          	sw	x15,24(x9)
    8680:	00f4aa23          	sw	x15,20(x9)
    8684:	f8000793          	li	x15,-128
    8688:	00f482a3          	sb	x15,5(x9)
    868c:	01812c03          	lw	x24,24(x2)
    8690:	01412c83          	lw	x25,20(x2)
    8694:	01012d03          	lw	x26,16(x2)
    8698:	00e48023          	sb	x14,0(x9)
    869c:	0001d737          	lui	x14,0x1d
    86a0:	ee875783          	lhu	x15,-280(x14) # 1cee8 <Fsid>
    86a4:	00178793          	add	x15,x15,1
    86a8:	01079793          	sll	x15,x15,0x10
    86ac:	0107d793          	srl	x15,x15,0x10
    86b0:	eef71423          	sh	x15,-280(x14)
    86b4:	00f49323          	sh	x15,6(x9)
    86b8:	0001d7b7          	lui	x15,0x1d
    86bc:	a1878793          	add	x15,x15,-1512 # 1ca18 <LfnBuf>
    86c0:	00f4a623          	sw	x15,12(x9)
    86c4:	20078793          	add	x15,x15,512
    86c8:	00f4a823          	sw	x15,16(x9)
    86cc:	00000413          	li	x8,0
    86d0:	03412483          	lw	x9,52(x2)
    86d4:	02c12983          	lw	x19,44(x2)
    86d8:	02812a03          	lw	x20,40(x2)
    86dc:	02412a83          	lw	x21,36(x2)
    86e0:	02012b03          	lw	x22,32(x2)
    86e4:	01c12b83          	lw	x23,28(x2)
    86e8:	3c00006f          	j	8aa8 <mount_volume+0x6e4>
    86ec:	03312623          	sw	x19,44(x2)
    86f0:	03412423          	sw	x20,40(x2)
    86f4:	20248413          	add	x8,x9,514
    86f8:	00010913          	mv	x18,x2
    86fc:	24248a13          	add	x20,x9,578
    8700:	00090993          	mv	x19,x18
    8704:	00040513          	mv	x10,x8
    8708:	a28fd0ef          	jal	5930 <ld_dword>
    870c:	00a9a023          	sw	x10,0(x19)
    8710:	01040413          	add	x8,x8,16
    8714:	00498993          	add	x19,x19,4
    8718:	ff4416e3          	bne	x8,x20,8704 <mount_volume+0x340>
    871c:	01090993          	add	x19,x18,16
    8720:	00100a13          	li	x20,1
    8724:	00c0006f          	j	8730 <mount_volume+0x36c>
    8728:	00490913          	add	x18,x18,4
    872c:	03298663          	beq	x19,x18,8758 <mount_volume+0x394>
    8730:	00092583          	lw	x11,0(x18)
    8734:	00300413          	li	x8,3
    8738:	fe0588e3          	beqz	x11,8728 <mount_volume+0x364>
    873c:	00048513          	mv	x10,x9
    8740:	a41ff0ef          	jal	8180 <check_fs>
    8744:	00050413          	mv	x8,x10
    8748:	feaa60e3          	bltu	x20,x10,8728 <mount_volume+0x364>
    874c:	02c12983          	lw	x19,44(x2)
    8750:	02812a03          	lw	x20,40(x2)
    8754:	d3dff06f          	j	8490 <mount_volume+0xcc>
    8758:	02c12983          	lw	x19,44(x2)
    875c:	02812a03          	lw	x20,40(x2)
    8760:	d21ff06f          	j	8480 <mount_volume+0xbc>
    8764:	00b00793          	li	x15,11
    8768:	04000693          	li	x13,64
    876c:	00f48733          	add	x14,x9,x15
    8770:	03c74703          	lbu	x14,60(x14)
    8774:	12071063          	bnez	x14,8894 <mount_volume+0x4d0>
    8778:	00178793          	add	x15,x15,1
    877c:	fed798e3          	bne	x15,x13,876c <mount_volume+0x3a8>
    8780:	03312623          	sw	x19,44(x2)
    8784:	03412423          	sw	x20,40(x2)
    8788:	0a54c783          	lbu	x15,165(x9)
    878c:	00879793          	sll	x15,x15,0x8
    8790:	0a44c703          	lbu	x14,164(x9)
    8794:	00e7e7b3          	or	x15,x15,x14
    8798:	01079793          	sll	x15,x15,0x10
    879c:	4107d793          	sra	x15,x15,0x10
    87a0:	10000713          	li	x14,256
    87a4:	42e79e63          	bne	x15,x14,8be0 <mount_volume+0x81c>
    87a8:	0a84c703          	lbu	x14,168(x9)
    87ac:	00900793          	li	x15,9
    87b0:	32f71a63          	bne	x14,x15,8ae4 <mount_volume+0x720>
    87b4:	08448513          	add	x10,x9,132
    87b8:	9a4fd0ef          	jal	595c <ld_qword>
    87bc:	00a907b3          	add	x15,x18,x10
    87c0:	0127ba33          	sltu	x20,x15,x18
    87c4:	00078993          	mv	x19,x15
    87c8:	00ba0a33          	add	x20,x20,x11
    87cc:	320a1663          	bnez	x20,8af8 <mount_volume+0x734>
    87d0:	09048513          	add	x10,x9,144
    87d4:	95cfd0ef          	jal	5930 <ld_dword>
    87d8:	02a4a023          	sw	x10,32(x9)
    87dc:	0aa4c783          	lbu	x15,170(x9)
    87e0:	00f481a3          	sb	x15,3(x9)
    87e4:	00100713          	li	x14,1
    87e8:	32e79263          	bne	x15,x14,8b0c <mount_volume+0x748>
    87ec:	03612023          	sw	x22,32(x2)
    87f0:	0a94c783          	lbu	x15,169(x9)
    87f4:	00100b13          	li	x22,1
    87f8:	00fb1b33          	sll	x22,x22,x15
    87fc:	010b1793          	sll	x15,x22,0x10
    8800:	0107d793          	srl	x15,x15,0x10
    8804:	00f49523          	sh	x15,10(x9)
    8808:	30078c63          	beqz	x15,8b20 <mount_volume+0x75c>
    880c:	01712e23          	sw	x23,28(x2)
    8810:	09848513          	add	x10,x9,152
    8814:	91cfd0ef          	jal	5930 <ld_dword>
    8818:	00050b93          	mv	x23,x10
    881c:	800007b7          	lui	x15,0x80000
    8820:	ffd78793          	add	x15,x15,-3 # 7ffffffd <STACK_TOP+0x7feffffd>
    8824:	30a7ea63          	bltu	x15,x10,8b38 <mount_volume+0x774>
    8828:	03512223          	sw	x21,36(x2)
    882c:	00250793          	add	x15,x10,2
    8830:	00f4ae23          	sw	x15,28(x9)
    8834:	0324a223          	sw	x18,36(x9)
    8838:	09448513          	add	x10,x9,148
    883c:	8f4fd0ef          	jal	5930 <ld_dword>
    8840:	01250ab3          	add	x21,x10,x18
    8844:	0354a823          	sw	x21,48(x9)
    8848:	08c48513          	add	x10,x9,140
    884c:	8e4fd0ef          	jal	5930 <ld_dword>
    8850:	012507b3          	add	x15,x10,x18
    8854:	02f4a423          	sw	x15,40(x9)
    8858:	000b8593          	mv	x11,x23
    885c:	010b1513          	sll	x10,x22,0x10
    8860:	01055513          	srl	x10,x10,0x10
    8864:	77d040ef          	jal	d7e0 <__mulsi3>
    8868:	01550ab3          	add	x21,x10,x21
    886c:	00aab533          	sltu	x10,x21,x10
    8870:	02aa6a63          	bltu	x20,x10,88a4 <mount_volume+0x4e0>
    8874:	03450663          	beq	x10,x20,88a0 <mount_volume+0x4dc>
    8878:	09c48513          	add	x10,x9,156
    887c:	8b4fd0ef          	jal	5930 <ld_dword>
    8880:	02a4a623          	sw	x10,44(x9)
    8884:	00000913          	li	x18,0
    8888:	00000993          	li	x19,0
    888c:	08100a13          	li	x20,129
    8890:	04c0006f          	j	88dc <mount_volume+0x518>
    8894:	00d00413          	li	x8,13
    8898:	03412483          	lw	x9,52(x2)
    889c:	20c0006f          	j	8aa8 <mount_volume+0x6e4>
    88a0:	fd59fce3          	bgeu	x19,x21,8878 <mount_volume+0x4b4>
    88a4:	00d00413          	li	x8,13
    88a8:	03412483          	lw	x9,52(x2)
    88ac:	02c12983          	lw	x19,44(x2)
    88b0:	02812a03          	lw	x20,40(x2)
    88b4:	02412a83          	lw	x21,36(x2)
    88b8:	02012b03          	lw	x22,32(x2)
    88bc:	01c12b83          	lw	x23,28(x2)
    88c0:	1e80006f          	j	8aa8 <mount_volume+0x6e4>
    88c4:	00198993          	add	x19,x19,1
    88c8:	012487b3          	add	x15,x9,x18
    88cc:	03c7c783          	lbu	x15,60(x15)
    88d0:	05478863          	beq	x15,x20,8920 <mount_volume+0x55c>
    88d4:	02090913          	add	x18,x18,32
    88d8:	1ff97913          	and	x18,x18,511
    88dc:	fe0916e3          	bnez	x18,88c8 <mount_volume+0x504>
    88e0:	00a4d783          	lhu	x15,10(x9)
    88e4:	26f9f863          	bgeu	x19,x15,8b54 <mount_volume+0x790>
    88e8:	02c4a583          	lw	x11,44(x9)
    88ec:	00048513          	mv	x10,x9
    88f0:	92cfd0ef          	jal	5a1c <clst2sect>
    88f4:	013505b3          	add	x11,x10,x19
    88f8:	00048513          	mv	x10,x9
    88fc:	f30fd0ef          	jal	602c <move_window>
    8900:	fc0502e3          	beqz	x10,88c4 <mount_volume+0x500>
    8904:	03412483          	lw	x9,52(x2)
    8908:	02c12983          	lw	x19,44(x2)
    890c:	02812a03          	lw	x20,40(x2)
    8910:	02412a83          	lw	x21,36(x2)
    8914:	02012b03          	lw	x22,32(x2)
    8918:	01c12b83          	lw	x23,28(x2)
    891c:	18c0006f          	j	8aa8 <mount_volume+0x6e4>
    8920:	03c48993          	add	x19,x9,60
    8924:	01490513          	add	x10,x18,20
    8928:	00a98533          	add	x10,x19,x10
    892c:	804fd0ef          	jal	5930 <ld_dword>
    8930:	00050913          	mv	x18,x10
    8934:	00100793          	li	x15,1
    8938:	22a7fe63          	bgeu	x15,x10,8b74 <mount_volume+0x7b0>
    893c:	01c4a783          	lw	x15,28(x9)
    8940:	24f57a63          	bgeu	x10,x15,8b94 <mount_volume+0x7d0>
    8944:	ffe50593          	add	x11,x10,-2
    8948:	00a4d503          	lhu	x10,10(x9)
    894c:	695040ef          	jal	d7e0 <__mulsi3>
    8950:	0304a783          	lw	x15,48(x9)
    8954:	00f507b3          	add	x15,x10,x15
    8958:	02f4aa23          	sw	x15,52(x9)
    895c:	fff00a13          	li	x20,-1
    8960:	00795793          	srl	x15,x18,0x7
    8964:	0284a583          	lw	x11,40(x9)
    8968:	00b785b3          	add	x11,x15,x11
    896c:	00048513          	mv	x10,x9
    8970:	ebcfd0ef          	jal	602c <move_window>
    8974:	40051863          	bnez	x10,8d84 <mount_volume+0x9c0>
    8978:	07f97513          	and	x10,x18,127
    897c:	00251513          	sll	x10,x10,0x2
    8980:	00a98533          	add	x10,x19,x10
    8984:	fadfc0ef          	jal	5930 <ld_dword>
    8988:	03450663          	beq	x10,x20,89b4 <mount_volume+0x5f0>
    898c:	00190913          	add	x18,x18,1
    8990:	fd2508e3          	beq	x10,x18,8960 <mount_volume+0x59c>
    8994:	00d00413          	li	x8,13
    8998:	03412483          	lw	x9,52(x2)
    899c:	02c12983          	lw	x19,44(x2)
    89a0:	02812a03          	lw	x20,40(x2)
    89a4:	02412a83          	lw	x21,36(x2)
    89a8:	02012b03          	lw	x22,32(x2)
    89ac:	01c12b83          	lw	x23,28(x2)
    89b0:	0f80006f          	j	8aa8 <mount_volume+0x6e4>
    89b4:	fff00793          	li	x15,-1
    89b8:	00f4ac23          	sw	x15,24(x9)
    89bc:	00f4aa23          	sw	x15,20(x9)
    89c0:	00400713          	li	x14,4
    89c4:	cd5ff06f          	j	8698 <mount_volume+0x2d4>
    89c8:	00190593          	add	x11,x18,1
    89cc:	00048513          	mv	x10,x9
    89d0:	e5cfd0ef          	jal	602c <move_window>
    89d4:	00300713          	li	x14,3
    89d8:	0a051e63          	bnez	x10,8a94 <mount_volume+0x6d0>
    89dc:	000482a3          	sb	x0,5(x9)
    89e0:	23b4c783          	lbu	x15,571(x9)
    89e4:	00879793          	sll	x15,x15,0x8
    89e8:	23a4c703          	lbu	x14,570(x9)
    89ec:	00e7e7b3          	or	x15,x15,x14
    89f0:	01079793          	sll	x15,x15,0x10
    89f4:	4107d793          	sra	x15,x15,0x10
    89f8:	ffffb6b7          	lui	x13,0xffffb
    89fc:	a5568693          	add	x13,x13,-1451 # ffffaa55 <STACK_TOP+0xffefaa55>
    8a00:	00300713          	li	x14,3
    8a04:	00d78a63          	beq	x15,x13,8a18 <mount_volume+0x654>
    8a08:	01812c03          	lw	x24,24(x2)
    8a0c:	01412c83          	lw	x25,20(x2)
    8a10:	01012d03          	lw	x26,16(x2)
    8a14:	c85ff06f          	j	8698 <mount_volume+0x2d4>
    8a18:	03c48513          	add	x10,x9,60
    8a1c:	f15fc0ef          	jal	5930 <ld_dword>
    8a20:	416157b7          	lui	x15,0x41615
    8a24:	25278793          	add	x15,x15,594 # 41615252 <STACK_TOP+0x41515252>
    8a28:	00300713          	li	x14,3
    8a2c:	00f50a63          	beq	x10,x15,8a40 <mount_volume+0x67c>
    8a30:	01812c03          	lw	x24,24(x2)
    8a34:	01412c83          	lw	x25,20(x2)
    8a38:	01012d03          	lw	x26,16(x2)
    8a3c:	c5dff06f          	j	8698 <mount_volume+0x2d4>
    8a40:	22048513          	add	x10,x9,544
    8a44:	eedfc0ef          	jal	5930 <ld_dword>
    8a48:	614177b7          	lui	x15,0x61417
    8a4c:	27278793          	add	x15,x15,626 # 61417272 <STACK_TOP+0x61317272>
    8a50:	00300713          	li	x14,3
    8a54:	00f50a63          	beq	x10,x15,8a68 <mount_volume+0x6a4>
    8a58:	01812c03          	lw	x24,24(x2)
    8a5c:	01412c83          	lw	x25,20(x2)
    8a60:	01012d03          	lw	x26,16(x2)
    8a64:	c35ff06f          	j	8698 <mount_volume+0x2d4>
    8a68:	22448513          	add	x10,x9,548
    8a6c:	ec5fc0ef          	jal	5930 <ld_dword>
    8a70:	00a4ac23          	sw	x10,24(x9)
    8a74:	22848513          	add	x10,x9,552
    8a78:	eb9fc0ef          	jal	5930 <ld_dword>
    8a7c:	00a4aa23          	sw	x10,20(x9)
    8a80:	00300713          	li	x14,3
    8a84:	01812c03          	lw	x24,24(x2)
    8a88:	01412c83          	lw	x25,20(x2)
    8a8c:	01012d03          	lw	x26,16(x2)
    8a90:	c09ff06f          	j	8698 <mount_volume+0x2d4>
    8a94:	01812c03          	lw	x24,24(x2)
    8a98:	01412c83          	lw	x25,20(x2)
    8a9c:	01012d03          	lw	x26,16(x2)
    8aa0:	bf9ff06f          	j	8698 <mount_volume+0x2d4>
    8aa4:	00b00413          	li	x8,11
    8aa8:	00040513          	mv	x10,x8
    8aac:	03c12083          	lw	x1,60(x2)
    8ab0:	03812403          	lw	x8,56(x2)
    8ab4:	03012903          	lw	x18,48(x2)
    8ab8:	04010113          	add	x2,x2,64
    8abc:	00008067          	ret
    8ac0:	00c00413          	li	x8,12
    8ac4:	03412483          	lw	x9,52(x2)
    8ac8:	fe1ff06f          	j	8aa8 <mount_volume+0x6e4>
    8acc:	00100413          	li	x8,1
    8ad0:	03412483          	lw	x9,52(x2)
    8ad4:	fd5ff06f          	j	8aa8 <mount_volume+0x6e4>
    8ad8:	00d00413          	li	x8,13
    8adc:	03412483          	lw	x9,52(x2)
    8ae0:	fc9ff06f          	j	8aa8 <mount_volume+0x6e4>
    8ae4:	00d00413          	li	x8,13
    8ae8:	03412483          	lw	x9,52(x2)
    8aec:	02c12983          	lw	x19,44(x2)
    8af0:	02812a03          	lw	x20,40(x2)
    8af4:	fb5ff06f          	j	8aa8 <mount_volume+0x6e4>
    8af8:	00d00413          	li	x8,13
    8afc:	03412483          	lw	x9,52(x2)
    8b00:	02c12983          	lw	x19,44(x2)
    8b04:	02812a03          	lw	x20,40(x2)
    8b08:	fa1ff06f          	j	8aa8 <mount_volume+0x6e4>
    8b0c:	00d00413          	li	x8,13
    8b10:	03412483          	lw	x9,52(x2)
    8b14:	02c12983          	lw	x19,44(x2)
    8b18:	02812a03          	lw	x20,40(x2)
    8b1c:	f8dff06f          	j	8aa8 <mount_volume+0x6e4>
    8b20:	00d00413          	li	x8,13
    8b24:	03412483          	lw	x9,52(x2)
    8b28:	02c12983          	lw	x19,44(x2)
    8b2c:	02812a03          	lw	x20,40(x2)
    8b30:	02012b03          	lw	x22,32(x2)
    8b34:	f75ff06f          	j	8aa8 <mount_volume+0x6e4>
    8b38:	00d00413          	li	x8,13
    8b3c:	03412483          	lw	x9,52(x2)
    8b40:	02c12983          	lw	x19,44(x2)
    8b44:	02812a03          	lw	x20,40(x2)
    8b48:	02012b03          	lw	x22,32(x2)
    8b4c:	01c12b83          	lw	x23,28(x2)
    8b50:	f59ff06f          	j	8aa8 <mount_volume+0x6e4>
    8b54:	00d00413          	li	x8,13
    8b58:	03412483          	lw	x9,52(x2)
    8b5c:	02c12983          	lw	x19,44(x2)
    8b60:	02812a03          	lw	x20,40(x2)
    8b64:	02412a83          	lw	x21,36(x2)
    8b68:	02012b03          	lw	x22,32(x2)
    8b6c:	01c12b83          	lw	x23,28(x2)
    8b70:	f39ff06f          	j	8aa8 <mount_volume+0x6e4>
    8b74:	00d00413          	li	x8,13
    8b78:	03412483          	lw	x9,52(x2)
    8b7c:	02c12983          	lw	x19,44(x2)
    8b80:	02812a03          	lw	x20,40(x2)
    8b84:	02412a83          	lw	x21,36(x2)
    8b88:	02012b03          	lw	x22,32(x2)
    8b8c:	01c12b83          	lw	x23,28(x2)
    8b90:	f19ff06f          	j	8aa8 <mount_volume+0x6e4>
    8b94:	00d00413          	li	x8,13
    8b98:	03412483          	lw	x9,52(x2)
    8b9c:	02c12983          	lw	x19,44(x2)
    8ba0:	02812a03          	lw	x20,40(x2)
    8ba4:	02412a83          	lw	x21,36(x2)
    8ba8:	02012b03          	lw	x22,32(x2)
    8bac:	01c12b83          	lw	x23,28(x2)
    8bb0:	ef9ff06f          	j	8aa8 <mount_volume+0x6e4>
    8bb4:	00d00413          	li	x8,13
    8bb8:	03412483          	lw	x9,52(x2)
    8bbc:	02c12983          	lw	x19,44(x2)
    8bc0:	02812a03          	lw	x20,40(x2)
    8bc4:	02412a83          	lw	x21,36(x2)
    8bc8:	02012b03          	lw	x22,32(x2)
    8bcc:	01c12b83          	lw	x23,28(x2)
    8bd0:	01812c03          	lw	x24,24(x2)
    8bd4:	01412c83          	lw	x25,20(x2)
    8bd8:	01012d03          	lw	x26,16(x2)
    8bdc:	ecdff06f          	j	8aa8 <mount_volume+0x6e4>
    8be0:	00d00413          	li	x8,13
    8be4:	03412483          	lw	x9,52(x2)
    8be8:	02c12983          	lw	x19,44(x2)
    8bec:	02812a03          	lw	x20,40(x2)
    8bf0:	eb9ff06f          	j	8aa8 <mount_volume+0x6e4>
    8bf4:	03412483          	lw	x9,52(x2)
    8bf8:	02c12983          	lw	x19,44(x2)
    8bfc:	02812a03          	lw	x20,40(x2)
    8c00:	02412a83          	lw	x21,36(x2)
    8c04:	02012b03          	lw	x22,32(x2)
    8c08:	01c12b83          	lw	x23,28(x2)
    8c0c:	01812c03          	lw	x24,24(x2)
    8c10:	01412c83          	lw	x25,20(x2)
    8c14:	01012d03          	lw	x26,16(x2)
    8c18:	e91ff06f          	j	8aa8 <mount_volume+0x6e4>
    8c1c:	03412483          	lw	x9,52(x2)
    8c20:	02c12983          	lw	x19,44(x2)
    8c24:	02812a03          	lw	x20,40(x2)
    8c28:	02412a83          	lw	x21,36(x2)
    8c2c:	02012b03          	lw	x22,32(x2)
    8c30:	01c12b83          	lw	x23,28(x2)
    8c34:	01812c03          	lw	x24,24(x2)
    8c38:	01412c83          	lw	x25,20(x2)
    8c3c:	01012d03          	lw	x26,16(x2)
    8c40:	e69ff06f          	j	8aa8 <mount_volume+0x6e4>
    8c44:	00250a13          	add	x20,x10,2
    8c48:	0144ae23          	sw	x20,28(x9)
    8c4c:	0324a223          	sw	x18,36(x9)
    8c50:	012c8cb3          	add	x25,x25,x18
    8c54:	0394a423          	sw	x25,40(x9)
    8c58:	01590ab3          	add	x21,x18,x21
    8c5c:	0354a823          	sw	x21,48(x9)
    8c60:	0674c783          	lbu	x15,103(x9)
    8c64:	00879793          	sll	x15,x15,0x8
    8c68:	0664c703          	lbu	x14,102(x9)
    8c6c:	00e7e7b3          	or	x15,x15,x14
    8c70:	00fbe7b3          	or	x15,x23,x15
    8c74:	01079793          	sll	x15,x15,0x10
    8c78:	4107d793          	sra	x15,x15,0x10
    8c7c:	00d00413          	li	x8,13
    8c80:	06079463          	bnez	x15,8ce8 <mount_volume+0x924>
    8c84:	06848513          	add	x10,x9,104
    8c88:	ca9fc0ef          	jal	5930 <ld_dword>
    8c8c:	02a4a623          	sw	x10,44(x9)
    8c90:	002a1793          	sll	x15,x20,0x2
    8c94:	1ff78793          	add	x15,x15,511
    8c98:	0097d793          	srl	x15,x15,0x9
    8c9c:	f0f9ece3          	bltu	x19,x15,8bb4 <mount_volume+0x7f0>
    8ca0:	fff00793          	li	x15,-1
    8ca4:	00f4ac23          	sw	x15,24(x9)
    8ca8:	00f4aa23          	sw	x15,20(x9)
    8cac:	f8000793          	li	x15,-128
    8cb0:	00f482a3          	sb	x15,5(x9)
    8cb4:	06d4c783          	lbu	x15,109(x9)
    8cb8:	00879793          	sll	x15,x15,0x8
    8cbc:	06c4c703          	lbu	x14,108(x9)
    8cc0:	00e7e7b3          	or	x15,x15,x14
    8cc4:	01079793          	sll	x15,x15,0x10
    8cc8:	4107d793          	sra	x15,x15,0x10
    8ccc:	00100713          	li	x14,1
    8cd0:	cee78ce3          	beq	x15,x14,89c8 <mount_volume+0x604>
    8cd4:	00300713          	li	x14,3
    8cd8:	01812c03          	lw	x24,24(x2)
    8cdc:	01412c83          	lw	x25,20(x2)
    8ce0:	01012d03          	lw	x26,16(x2)
    8ce4:	9b5ff06f          	j	8698 <mount_volume+0x2d4>
    8ce8:	03412483          	lw	x9,52(x2)
    8cec:	02c12983          	lw	x19,44(x2)
    8cf0:	02812a03          	lw	x20,40(x2)
    8cf4:	02412a83          	lw	x21,36(x2)
    8cf8:	02012b03          	lw	x22,32(x2)
    8cfc:	01c12b83          	lw	x23,28(x2)
    8d00:	01812c03          	lw	x24,24(x2)
    8d04:	01412c83          	lw	x25,20(x2)
    8d08:	01012d03          	lw	x26,16(x2)
    8d0c:	d9dff06f          	j	8aa8 <mount_volume+0x6e4>
    8d10:	00250793          	add	x15,x10,2
    8d14:	012c8cb3          	add	x25,x25,x18
    8d18:	00f4ae23          	sw	x15,28(x9)
    8d1c:	0324a223          	sw	x18,36(x9)
    8d20:	0394a423          	sw	x25,40(x9)
    8d24:	01590933          	add	x18,x18,x21
    8d28:	0324a823          	sw	x18,48(x9)
    8d2c:	00d00413          	li	x8,13
    8d30:	000b0a63          	beqz	x22,8d44 <mount_volume+0x980>
    8d34:	019d0cb3          	add	x25,x26,x25
    8d38:	00179793          	sll	x15,x15,0x1
    8d3c:	00200713          	li	x14,2
    8d40:	925ff06f          	j	8664 <mount_volume+0x2a0>
    8d44:	03412483          	lw	x9,52(x2)
    8d48:	02c12983          	lw	x19,44(x2)
    8d4c:	02812a03          	lw	x20,40(x2)
    8d50:	02412a83          	lw	x21,36(x2)
    8d54:	02012b03          	lw	x22,32(x2)
    8d58:	01c12b83          	lw	x23,28(x2)
    8d5c:	01812c03          	lw	x24,24(x2)
    8d60:	01412c83          	lw	x25,20(x2)
    8d64:	01012d03          	lw	x26,16(x2)
    8d68:	d41ff06f          	j	8aa8 <mount_volume+0x6e4>
    8d6c:	03412483          	lw	x9,52(x2)
    8d70:	d39ff06f          	j	8aa8 <mount_volume+0x6e4>
    8d74:	03412483          	lw	x9,52(x2)
    8d78:	d31ff06f          	j	8aa8 <mount_volume+0x6e4>
    8d7c:	03412483          	lw	x9,52(x2)
    8d80:	d29ff06f          	j	8aa8 <mount_volume+0x6e4>
    8d84:	03412483          	lw	x9,52(x2)
    8d88:	02c12983          	lw	x19,44(x2)
    8d8c:	02812a03          	lw	x20,40(x2)
    8d90:	02412a83          	lw	x21,36(x2)
    8d94:	02012b03          	lw	x22,32(x2)
    8d98:	01c12b83          	lw	x23,28(x2)
    8d9c:	d0dff06f          	j	8aa8 <mount_volume+0x6e4>
    8da0:	03412483          	lw	x9,52(x2)
    8da4:	d05ff06f          	j	8aa8 <mount_volume+0x6e4>
    8da8:	03412483          	lw	x9,52(x2)
    8dac:	02c12983          	lw	x19,44(x2)
    8db0:	02412a83          	lw	x21,36(x2)
    8db4:	cf5ff06f          	j	8aa8 <mount_volume+0x6e4>
    8db8:	03412483          	lw	x9,52(x2)
    8dbc:	02c12983          	lw	x19,44(x2)
    8dc0:	02812a03          	lw	x20,40(x2)
    8dc4:	02412a83          	lw	x21,36(x2)
    8dc8:	ce1ff06f          	j	8aa8 <mount_volume+0x6e4>
    8dcc:	03412483          	lw	x9,52(x2)
    8dd0:	02c12983          	lw	x19,44(x2)
    8dd4:	02812a03          	lw	x20,40(x2)
    8dd8:	02412a83          	lw	x21,36(x2)
    8ddc:	ccdff06f          	j	8aa8 <mount_volume+0x6e4>
    8de0:	03412483          	lw	x9,52(x2)
    8de4:	02c12983          	lw	x19,44(x2)
    8de8:	02812a03          	lw	x20,40(x2)
    8dec:	02412a83          	lw	x21,36(x2)
    8df0:	02012b03          	lw	x22,32(x2)
    8df4:	01c12b83          	lw	x23,28(x2)
    8df8:	cb1ff06f          	j	8aa8 <mount_volume+0x6e4>
    8dfc:	03412483          	lw	x9,52(x2)
    8e00:	02c12983          	lw	x19,44(x2)
    8e04:	02812a03          	lw	x20,40(x2)
    8e08:	02412a83          	lw	x21,36(x2)
    8e0c:	02012b03          	lw	x22,32(x2)
    8e10:	01c12b83          	lw	x23,28(x2)
    8e14:	01812c03          	lw	x24,24(x2)
    8e18:	01412c83          	lw	x25,20(x2)
    8e1c:	c8dff06f          	j	8aa8 <mount_volume+0x6e4>
    8e20:	03412483          	lw	x9,52(x2)
    8e24:	02c12983          	lw	x19,44(x2)
    8e28:	02812a03          	lw	x20,40(x2)
    8e2c:	02412a83          	lw	x21,36(x2)
    8e30:	02012b03          	lw	x22,32(x2)
    8e34:	01c12b83          	lw	x23,28(x2)
    8e38:	01812c03          	lw	x24,24(x2)
    8e3c:	01412c83          	lw	x25,20(x2)
    8e40:	01012d03          	lw	x26,16(x2)
    8e44:	c65ff06f          	j	8aa8 <mount_volume+0x6e4>
    8e48:	03412483          	lw	x9,52(x2)
    8e4c:	02c12983          	lw	x19,44(x2)
    8e50:	02812a03          	lw	x20,40(x2)
    8e54:	02412a83          	lw	x21,36(x2)
    8e58:	02012b03          	lw	x22,32(x2)
    8e5c:	01c12b83          	lw	x23,28(x2)
    8e60:	01812c03          	lw	x24,24(x2)
    8e64:	01412c83          	lw	x25,20(x2)
    8e68:	01012d03          	lw	x26,16(x2)
    8e6c:	c3dff06f          	j	8aa8 <mount_volume+0x6e4>
    8e70:	03412483          	lw	x9,52(x2)
    8e74:	02c12983          	lw	x19,44(x2)
    8e78:	02812a03          	lw	x20,40(x2)
    8e7c:	02412a83          	lw	x21,36(x2)
    8e80:	02012b03          	lw	x22,32(x2)
    8e84:	01c12b83          	lw	x23,28(x2)
    8e88:	01812c03          	lw	x24,24(x2)
    8e8c:	01412c83          	lw	x25,20(x2)
    8e90:	01012d03          	lw	x26,16(x2)
    8e94:	c15ff06f          	j	8aa8 <mount_volume+0x6e4>

00008e98 <dir_read>:
    8e98:	fc010113          	add	x2,x2,-64
    8e9c:	02112e23          	sw	x1,60(x2)
    8ea0:	02812c23          	sw	x8,56(x2)
    8ea4:	02912a23          	sw	x9,52(x2)
    8ea8:	03212823          	sw	x18,48(x2)
    8eac:	03312623          	sw	x19,44(x2)
    8eb0:	03412423          	sw	x20,40(x2)
    8eb4:	03512223          	sw	x21,36(x2)
    8eb8:	03612023          	sw	x22,32(x2)
    8ebc:	01712e23          	sw	x23,28(x2)
    8ec0:	01812c23          	sw	x24,24(x2)
    8ec4:	01912a23          	sw	x25,20(x2)
    8ec8:	01a12823          	sw	x26,16(x2)
    8ecc:	01b12623          	sw	x27,12(x2)
    8ed0:	00050493          	mv	x9,x10
    8ed4:	00058b93          	mv	x23,x11
    8ed8:	00052903          	lw	x18,0(x10)
    8edc:	0ff00d93          	li	x27,255
    8ee0:	0ff00a13          	li	x20,255
    8ee4:	00400413          	li	x8,4
    8ee8:	00400993          	li	x19,4
    8eec:	0e500a93          	li	x21,229
    8ef0:	0ff00b13          	li	x22,255
    8ef4:	02e00c13          	li	x24,46
    8ef8:	00f00d13          	li	x26,15
    8efc:	08500c93          	li	x25,133
    8f00:	01c0006f          	j	8f1c <dir_read+0x84>
    8f04:	07978863          	beq	x15,x25,8f74 <dir_read+0xdc>
    8f08:	00000593          	li	x11,0
    8f0c:	00048513          	mv	x10,x9
    8f10:	b89fe0ef          	jal	7a98 <dir_next>
    8f14:	00050413          	mv	x8,x10
    8f18:	1e051263          	bnez	x10,90fc <dir_read+0x264>
    8f1c:	0384a583          	lw	x11,56(x9)
    8f20:	1c058063          	beqz	x11,90e0 <dir_read+0x248>
    8f24:	00090513          	mv	x10,x18
    8f28:	904fd0ef          	jal	602c <move_window>
    8f2c:	00050413          	mv	x8,x10
    8f30:	1c051663          	bnez	x10,90fc <dir_read+0x264>
    8f34:	03c4a503          	lw	x10,60(x9)
    8f38:	00054783          	lbu	x15,0(x10)
    8f3c:	1a078e63          	beqz	x15,90f8 <dir_read+0x260>
    8f40:	00094703          	lbu	x14,0(x18)
    8f44:	fd3700e3          	beq	x14,x19,8f04 <dir_read+0x6c>
    8f48:	00b54703          	lbu	x14,11(x10)
    8f4c:	03f77713          	and	x14,x14,63
    8f50:	00e48323          	sb	x14,6(x9)
    8f54:	17578663          	beq	x15,x21,90c0 <dir_read+0x228>
    8f58:	17878863          	beq	x15,x24,90c8 <dir_read+0x230>
    8f5c:	fdf77693          	and	x13,x14,-33
    8f60:	ff868693          	add	x13,x13,-8
    8f64:	0016b693          	seqz	x13,x13
    8f68:	03768a63          	beq	x13,x23,8f9c <dir_read+0x104>
    8f6c:	000b0a13          	mv	x20,x22
    8f70:	f99ff06f          	j	8f08 <dir_read+0x70>
    8f74:	0304a783          	lw	x15,48(x9)
    8f78:	04f4a623          	sw	x15,76(x9)
    8f7c:	00048513          	mv	x10,x9
    8f80:	ef1fe0ef          	jal	7e70 <load_xdir>
    8f84:	16051263          	bnez	x10,90e8 <dir_read+0x250>
    8f88:	01092783          	lw	x15,16(x18)
    8f8c:	0047c783          	lbu	x15,4(x15)
    8f90:	03f7f793          	and	x15,x15,63
    8f94:	00f48323          	sb	x15,6(x9)
    8f98:	1680006f          	j	9100 <dir_read+0x268>
    8f9c:	11a71663          	bne	x14,x26,90a8 <dir_read+0x210>
    8fa0:	0407f713          	and	x14,x15,64
    8fa4:	06070e63          	beqz	x14,9020 <dir_read+0x188>
    8fa8:	00d54d83          	lbu	x27,13(x10)
    8fac:	0bf7f793          	and	x15,x15,191
    8fb0:	0304a703          	lw	x14,48(x9)
    8fb4:	04e4a623          	sw	x14,76(x9)
    8fb8:	00d54703          	lbu	x14,13(x10)
    8fbc:	0ff00a13          	li	x20,255
    8fc0:	f5b714e3          	bne	x14,x27,8f08 <dir_read+0x70>
    8fc4:	00c92883          	lw	x17,12(x18)
    8fc8:	01b54703          	lbu	x14,27(x10)
    8fcc:	00871713          	sll	x14,x14,0x8
    8fd0:	01a54683          	lbu	x13,26(x10)
    8fd4:	00d76733          	or	x14,x14,x13
    8fd8:	01071713          	sll	x14,x14,0x10
    8fdc:	41075713          	sra	x14,x14,0x10
    8fe0:	10071863          	bnez	x14,90f0 <dir_read+0x258>
    8fe4:	00054703          	lbu	x14,0(x10)
    8fe8:	fbf77713          	and	x14,x14,-65
    8fec:	fff70713          	add	x14,x14,-1
    8ff0:	00171593          	sll	x11,x14,0x1
    8ff4:	00e585b3          	add	x11,x11,x14
    8ff8:	00259593          	sll	x11,x11,0x2
    8ffc:	00e585b3          	add	x11,x11,x14
    9000:	00012637          	lui	x12,0x12
    9004:	a6460613          	add	x12,x12,-1436 # 11a64 <LfnOfs>
    9008:	00d60e13          	add	x28,x12,13
    900c:	00100813          	li	x16,1
    9010:	00010337          	lui	x6,0x10
    9014:	fff30313          	add	x6,x6,-1 # ffff <__muldf3+0x63b>
    9018:	0ff00e93          	li	x29,255
    901c:	01c0006f          	j	9038 <dir_read+0x1a0>
    9020:	f8fa0ce3          	beq	x20,x15,8fb8 <dir_read+0x120>
    9024:	0ff00a13          	li	x20,255
    9028:	ee1ff06f          	j	8f08 <dir_read+0x70>
    902c:	0a671663          	bne	x14,x6,90d8 <dir_read+0x240>
    9030:	00160613          	add	x12,x12,1
    9034:	05c60263          	beq	x12,x28,9078 <dir_read+0x1e0>
    9038:	00064683          	lbu	x13,0(x12)
    903c:	00d506b3          	add	x13,x10,x13
    9040:	0016c703          	lbu	x14,1(x13)
    9044:	00871713          	sll	x14,x14,0x8
    9048:	0006c683          	lbu	x13,0(x13)
    904c:	00d76733          	or	x14,x14,x13
    9050:	01071713          	sll	x14,x14,0x10
    9054:	01075713          	srl	x14,x14,0x10
    9058:	fc080ae3          	beqz	x16,902c <dir_read+0x194>
    905c:	06beea63          	bltu	x29,x11,90d0 <dir_read+0x238>
    9060:	00159693          	sll	x13,x11,0x1
    9064:	00d886b3          	add	x13,x17,x13
    9068:	00e69023          	sh	x14,0(x13)
    906c:	00070813          	mv	x16,x14
    9070:	00158593          	add	x11,x11,1
    9074:	fbdff06f          	j	9030 <dir_read+0x198>
    9078:	00054703          	lbu	x14,0(x10)
    907c:	04077713          	and	x14,x14,64
    9080:	00070e63          	beqz	x14,909c <dir_read+0x204>
    9084:	00080c63          	beqz	x16,909c <dir_read+0x204>
    9088:	0ff00713          	li	x14,255
    908c:	06b76263          	bltu	x14,x11,90f0 <dir_read+0x258>
    9090:	00159593          	sll	x11,x11,0x1
    9094:	00b888b3          	add	x17,x17,x11
    9098:	00089023          	sh	x0,0(x17)
    909c:	fff78793          	add	x15,x15,-1
    90a0:	0ff7fa13          	zext.b	x20,x15
    90a4:	e65ff06f          	j	8f08 <dir_read+0x70>
    90a8:	000a1663          	bnez	x20,90b4 <dir_read+0x21c>
    90ac:	9b9fc0ef          	jal	5a64 <sum_sfn>
    90b0:	05b50863          	beq	x10,x27,9100 <dir_read+0x268>
    90b4:	fff00793          	li	x15,-1
    90b8:	04f4a623          	sw	x15,76(x9)
    90bc:	0440006f          	j	9100 <dir_read+0x268>
    90c0:	000b0a13          	mv	x20,x22
    90c4:	e45ff06f          	j	8f08 <dir_read+0x70>
    90c8:	000b0a13          	mv	x20,x22
    90cc:	e3dff06f          	j	8f08 <dir_read+0x70>
    90d0:	0ff00a13          	li	x20,255
    90d4:	e35ff06f          	j	8f08 <dir_read+0x70>
    90d8:	0ff00a13          	li	x20,255
    90dc:	e2dff06f          	j	8f08 <dir_read+0x70>
    90e0:	02040063          	beqz	x8,9100 <dir_read+0x268>
    90e4:	0180006f          	j	90fc <dir_read+0x264>
    90e8:	00050413          	mv	x8,x10
    90ec:	0100006f          	j	90fc <dir_read+0x264>
    90f0:	0ff00a13          	li	x20,255
    90f4:	e15ff06f          	j	8f08 <dir_read+0x70>
    90f8:	00400413          	li	x8,4
    90fc:	0204ac23          	sw	x0,56(x9)
    9100:	00040513          	mv	x10,x8
    9104:	03c12083          	lw	x1,60(x2)
    9108:	03812403          	lw	x8,56(x2)
    910c:	03412483          	lw	x9,52(x2)
    9110:	03012903          	lw	x18,48(x2)
    9114:	02c12983          	lw	x19,44(x2)
    9118:	02812a03          	lw	x20,40(x2)
    911c:	02412a83          	lw	x21,36(x2)
    9120:	02012b03          	lw	x22,32(x2)
    9124:	01c12b83          	lw	x23,28(x2)
    9128:	01812c03          	lw	x24,24(x2)
    912c:	01412c83          	lw	x25,20(x2)
    9130:	01012d03          	lw	x26,16(x2)
    9134:	00c12d83          	lw	x27,12(x2)
    9138:	04010113          	add	x2,x2,64
    913c:	00008067          	ret

00009140 <dir_find>:
    9140:	fb010113          	add	x2,x2,-80
    9144:	04112623          	sw	x1,76(x2)
    9148:	04812423          	sw	x8,72(x2)
    914c:	03312e23          	sw	x19,60(x2)
    9150:	03812423          	sw	x24,40(x2)
    9154:	00050413          	mv	x8,x10
    9158:	00052983          	lw	x19,0(x10)
    915c:	00000593          	li	x11,0
    9160:	ee1fd0ef          	jal	7040 <dir_sdi>
    9164:	00050c13          	mv	x24,x10
    9168:	3e051463          	bnez	x10,9550 <dir_find+0x410>
    916c:	04912223          	sw	x9,68(x2)
    9170:	05212023          	sw	x18,64(x2)
    9174:	03412c23          	sw	x20,56(x2)
    9178:	03512a23          	sw	x21,52(x2)
    917c:	03612823          	sw	x22,48(x2)
    9180:	0009c703          	lbu	x14,0(x19)
    9184:	00400793          	li	x15,4
    9188:	02f70a63          	beq	x14,x15,91bc <dir_find+0x7c>
    918c:	03712623          	sw	x23,44(x2)
    9190:	03912223          	sw	x25,36(x2)
    9194:	03a12023          	sw	x26,32(x2)
    9198:	fff00793          	li	x15,-1
    919c:	04f42623          	sw	x15,76(x8)
    91a0:	0ff00c93          	li	x25,255
    91a4:	0ff00d13          	li	x26,255
    91a8:	0e500a13          	li	x20,229
    91ac:	fff00b13          	li	x22,-1
    91b0:	0ff00a93          	li	x21,255
    91b4:	00f00b93          	li	x23,15
    91b8:	10c0006f          	j	92c4 <dir_find+0x184>
    91bc:	00c9a503          	lw	x10,12(x19)
    91c0:	944fd0ef          	jal	6304 <xname_sum>
    91c4:	00050a93          	mv	x21,x10
    91c8:	0800006f          	j	9248 <dir_find+0x108>
    91cc:	0109a783          	lw	x15,16(x19)
    91d0:	009787b3          	add	x15,x15,x9
    91d4:	0017c503          	lbu	x10,1(x15)
    91d8:	00851513          	sll	x10,x10,0x8
    91dc:	0007c783          	lbu	x15,0(x15)
    91e0:	00f56533          	or	x10,x10,x15
    91e4:	01051513          	sll	x10,x10,0x10
    91e8:	01055513          	srl	x10,x10,0x10
    91ec:	4c4040ef          	jal	d6b0 <ff_wtoupper>
    91f0:	00050b13          	mv	x22,x10
    91f4:	00c9a783          	lw	x15,12(x19)
    91f8:	001a1713          	sll	x14,x20,0x1
    91fc:	00e787b3          	add	x15,x15,x14
    9200:	0007d503          	lhu	x10,0(x15)
    9204:	4ac040ef          	jal	d6b0 <ff_wtoupper>
    9208:	04ab1063          	bne	x22,x10,9248 <dir_find+0x108>
    920c:	fff90913          	add	x18,x18,-1
    9210:	0ff97913          	zext.b	x18,x18
    9214:	00248493          	add	x9,x9,2
    9218:	001a0a13          	add	x20,x20,1
    921c:	00090c63          	beqz	x18,9234 <dir_find+0xf4>
    9220:	01f4f793          	and	x15,x9,31
    9224:	fa0794e3          	bnez	x15,91cc <dir_find+0x8c>
    9228:	00248493          	add	x9,x9,2
    922c:	fa1ff06f          	j	91cc <dir_find+0x8c>
    9230:	000c0a13          	mv	x20,x24
    9234:	00c9a783          	lw	x15,12(x19)
    9238:	001a1a13          	sll	x20,x20,0x1
    923c:	014787b3          	add	x15,x15,x20
    9240:	0007d783          	lhu	x15,0(x15)
    9244:	2c078a63          	beqz	x15,9518 <dir_find+0x3d8>
    9248:	00000593          	li	x11,0
    924c:	00040513          	mv	x10,x8
    9250:	c49ff0ef          	jal	8e98 <dir_read>
    9254:	00050c13          	mv	x24,x10
    9258:	02051c63          	bnez	x10,9290 <dir_find+0x150>
    925c:	0109a703          	lw	x14,16(x19)
    9260:	02574783          	lbu	x15,37(x14)
    9264:	00879793          	sll	x15,x15,0x8
    9268:	02474683          	lbu	x13,36(x14)
    926c:	00d7e7b3          	or	x15,x15,x13
    9270:	01079793          	sll	x15,x15,0x10
    9274:	0107d793          	srl	x15,x15,0x10
    9278:	fcfa98e3          	bne	x21,x15,9248 <dir_find+0x108>
    927c:	02374903          	lbu	x18,35(x14)
    9280:	fa0908e3          	beqz	x18,9230 <dir_find+0xf0>
    9284:	000c0a13          	mv	x20,x24
    9288:	04000493          	li	x9,64
    928c:	f95ff06f          	j	9220 <dir_find+0xe0>
    9290:	04412483          	lw	x9,68(x2)
    9294:	04012903          	lw	x18,64(x2)
    9298:	03812a03          	lw	x20,56(x2)
    929c:	03412a83          	lw	x21,52(x2)
    92a0:	03012b03          	lw	x22,48(x2)
    92a4:	2ac0006f          	j	9550 <dir_find+0x410>
    92a8:	05642623          	sw	x22,76(x8)
    92ac:	000a8d13          	mv	x26,x21
    92b0:	00000593          	li	x11,0
    92b4:	00040513          	mv	x10,x8
    92b8:	fe0fe0ef          	jal	7a98 <dir_next>
    92bc:	00050c13          	mv	x24,x10
    92c0:	20051663          	bnez	x10,94cc <dir_find+0x38c>
    92c4:	03842583          	lw	x11,56(x8)
    92c8:	00098513          	mv	x10,x19
    92cc:	d61fc0ef          	jal	602c <move_window>
    92d0:	00050c13          	mv	x24,x10
    92d4:	24051e63          	bnez	x10,9530 <dir_find+0x3f0>
    92d8:	03c42483          	lw	x9,60(x8)
    92dc:	0004c903          	lbu	x18,0(x9)
    92e0:	20090863          	beqz	x18,94f0 <dir_find+0x3b0>
    92e4:	00b4c783          	lbu	x15,11(x9)
    92e8:	03f7f713          	and	x14,x15,63
    92ec:	00e40323          	sb	x14,6(x8)
    92f0:	fb490ce3          	beq	x18,x20,92a8 <dir_find+0x168>
    92f4:	0087f793          	and	x15,x15,8
    92f8:	08078c63          	beqz	x15,9390 <dir_find+0x250>
    92fc:	fb7716e3          	bne	x14,x23,92a8 <dir_find+0x168>
    9300:	04b44783          	lbu	x15,75(x8)
    9304:	0407f793          	and	x15,x15,64
    9308:	fa0794e3          	bnez	x15,92b0 <dir_find+0x170>
    930c:	04097793          	and	x15,x18,64
    9310:	0a078663          	beqz	x15,93bc <dir_find+0x27c>
    9314:	00d4cc83          	lbu	x25,13(x9)
    9318:	0bf97913          	and	x18,x18,191
    931c:	03042783          	lw	x15,48(x8)
    9320:	04f42623          	sw	x15,76(x8)
    9324:	00d4c783          	lbu	x15,13(x9)
    9328:	0ff00d13          	li	x26,255
    932c:	f99792e3          	bne	x15,x25,92b0 <dir_find+0x170>
    9330:	01b4c783          	lbu	x15,27(x9)
    9334:	00879793          	sll	x15,x15,0x8
    9338:	01a4c703          	lbu	x14,26(x9)
    933c:	00e7e7b3          	or	x15,x15,x14
    9340:	01079793          	sll	x15,x15,0x10
    9344:	4107d793          	sra	x15,x15,0x10
    9348:	f60794e3          	bnez	x15,92b0 <dir_find+0x170>
    934c:	01b12e23          	sw	x27,28(x2)
    9350:	00c9a783          	lw	x15,12(x19)
    9354:	00f12423          	sw	x15,8(x2)
    9358:	0004c783          	lbu	x15,0(x9)
    935c:	03f7f793          	and	x15,x15,63
    9360:	fff78793          	add	x15,x15,-1
    9364:	00179d13          	sll	x26,x15,0x1
    9368:	00fd0d33          	add	x26,x26,x15
    936c:	002d1d13          	sll	x26,x26,0x2
    9370:	00fd0d33          	add	x26,x26,x15
    9374:	00012db7          	lui	x27,0x12
    9378:	a64d8d93          	add	x27,x27,-1436 # 11a64 <LfnOfs>
    937c:	00100713          	li	x14,1
    9380:	000107b7          	lui	x15,0x10
    9384:	fff78793          	add	x15,x15,-1 # ffff <__muldf3+0x63b>
    9388:	00f12623          	sw	x15,12(x2)
    938c:	0540006f          	j	93e0 <dir_find+0x2a0>
    9390:	f77708e3          	beq	x14,x23,9300 <dir_find+0x1c0>
    9394:	000d1863          	bnez	x26,93a4 <dir_find+0x264>
    9398:	00048513          	mv	x10,x9
    939c:	ec8fc0ef          	jal	5a64 <sum_sfn>
    93a0:	1d950663          	beq	x10,x25,956c <dir_find+0x42c>
    93a4:	04b44783          	lbu	x15,75(x8)
    93a8:	0017f793          	and	x15,x15,1
    93ac:	0e078463          	beqz	x15,9494 <dir_find+0x354>
    93b0:	05642623          	sw	x22,76(x8)
    93b4:	000a8d13          	mv	x26,x21
    93b8:	ef9ff06f          	j	92b0 <dir_find+0x170>
    93bc:	f72d04e3          	beq	x26,x18,9324 <dir_find+0x1e4>
    93c0:	000a8d13          	mv	x26,x21
    93c4:	eedff06f          	j	92b0 <dir_find+0x170>
    93c8:	00c12783          	lw	x15,12(x2)
    93cc:	0afc1e63          	bne	x24,x15,9488 <dir_find+0x348>
    93d0:	001d8d93          	add	x27,x27,1
    93d4:	000127b7          	lui	x15,0x12
    93d8:	a7178793          	add	x15,x15,-1423 # 11a71 <LfnOfs+0xd>
    93dc:	06fd8663          	beq	x27,x15,9448 <dir_find+0x308>
    93e0:	000dc783          	lbu	x15,0(x27)
    93e4:	00f487b3          	add	x15,x9,x15
    93e8:	0017cc03          	lbu	x24,1(x15)
    93ec:	008c1c13          	sll	x24,x24,0x8
    93f0:	0007c783          	lbu	x15,0(x15)
    93f4:	00fc6c33          	or	x24,x24,x15
    93f8:	010c1c13          	sll	x24,x24,0x10
    93fc:	010c5c13          	srl	x24,x24,0x10
    9400:	fc0704e3          	beqz	x14,93c8 <dir_find+0x288>
    9404:	0ff00793          	li	x15,255
    9408:	09a7e063          	bltu	x15,x26,9488 <dir_find+0x348>
    940c:	000c0513          	mv	x10,x24
    9410:	2a0040ef          	jal	d6b0 <ff_wtoupper>
    9414:	00a12023          	sw	x10,0(x2)
    9418:	001d0713          	add	x14,x26,1
    941c:	00e12223          	sw	x14,4(x2)
    9420:	001d1d13          	sll	x26,x26,0x1
    9424:	00812783          	lw	x15,8(x2)
    9428:	01a78d33          	add	x26,x15,x26
    942c:	000d5503          	lhu	x10,0(x26)
    9430:	280040ef          	jal	d6b0 <ff_wtoupper>
    9434:	00012783          	lw	x15,0(x2)
    9438:	04a79863          	bne	x15,x10,9488 <dir_find+0x348>
    943c:	000c0713          	mv	x14,x24
    9440:	00412d03          	lw	x26,4(x2)
    9444:	f8dff06f          	j	93d0 <dir_find+0x290>
    9448:	0004c783          	lbu	x15,0(x9)
    944c:	0407f793          	and	x15,x15,64
    9450:	00078e63          	beqz	x15,946c <dir_find+0x32c>
    9454:	00070c63          	beqz	x14,946c <dir_find+0x32c>
    9458:	001d1d13          	sll	x26,x26,0x1
    945c:	00812783          	lw	x15,8(x2)
    9460:	01a787b3          	add	x15,x15,x26
    9464:	0007d783          	lhu	x15,0(x15)
    9468:	00079a63          	bnez	x15,947c <dir_find+0x33c>
    946c:	fff90913          	add	x18,x18,-1
    9470:	0ff97d13          	zext.b	x26,x18
    9474:	01c12d83          	lw	x27,28(x2)
    9478:	e39ff06f          	j	92b0 <dir_find+0x170>
    947c:	0ff00d13          	li	x26,255
    9480:	01c12d83          	lw	x27,28(x2)
    9484:	e2dff06f          	j	92b0 <dir_find+0x170>
    9488:	0ff00d13          	li	x26,255
    948c:	01c12d83          	lw	x27,28(x2)
    9490:	e21ff06f          	j	92b0 <dir_find+0x170>
    9494:	00b00613          	li	x12,11
    9498:	04040593          	add	x11,x8,64
    949c:	00048513          	mv	x10,x9
    94a0:	af4fb0ef          	jal	4794 <memcmp>
    94a4:	f00516e3          	bnez	x10,93b0 <dir_find+0x270>
    94a8:	04412483          	lw	x9,68(x2)
    94ac:	04012903          	lw	x18,64(x2)
    94b0:	03812a03          	lw	x20,56(x2)
    94b4:	03412a83          	lw	x21,52(x2)
    94b8:	03012b03          	lw	x22,48(x2)
    94bc:	02c12b83          	lw	x23,44(x2)
    94c0:	02412c83          	lw	x25,36(x2)
    94c4:	02012d03          	lw	x26,32(x2)
    94c8:	0880006f          	j	9550 <dir_find+0x410>
    94cc:	04412483          	lw	x9,68(x2)
    94d0:	04012903          	lw	x18,64(x2)
    94d4:	03812a03          	lw	x20,56(x2)
    94d8:	03412a83          	lw	x21,52(x2)
    94dc:	03012b03          	lw	x22,48(x2)
    94e0:	02c12b83          	lw	x23,44(x2)
    94e4:	02412c83          	lw	x25,36(x2)
    94e8:	02012d03          	lw	x26,32(x2)
    94ec:	0640006f          	j	9550 <dir_find+0x410>
    94f0:	00400c13          	li	x24,4
    94f4:	04412483          	lw	x9,68(x2)
    94f8:	04012903          	lw	x18,64(x2)
    94fc:	03812a03          	lw	x20,56(x2)
    9500:	03412a83          	lw	x21,52(x2)
    9504:	03012b03          	lw	x22,48(x2)
    9508:	02c12b83          	lw	x23,44(x2)
    950c:	02412c83          	lw	x25,36(x2)
    9510:	02012d03          	lw	x26,32(x2)
    9514:	03c0006f          	j	9550 <dir_find+0x410>
    9518:	04412483          	lw	x9,68(x2)
    951c:	04012903          	lw	x18,64(x2)
    9520:	03812a03          	lw	x20,56(x2)
    9524:	03412a83          	lw	x21,52(x2)
    9528:	03012b03          	lw	x22,48(x2)
    952c:	0240006f          	j	9550 <dir_find+0x410>
    9530:	04412483          	lw	x9,68(x2)
    9534:	04012903          	lw	x18,64(x2)
    9538:	03812a03          	lw	x20,56(x2)
    953c:	03412a83          	lw	x21,52(x2)
    9540:	03012b03          	lw	x22,48(x2)
    9544:	02c12b83          	lw	x23,44(x2)
    9548:	02412c83          	lw	x25,36(x2)
    954c:	02012d03          	lw	x26,32(x2)
    9550:	000c0513          	mv	x10,x24
    9554:	04c12083          	lw	x1,76(x2)
    9558:	04812403          	lw	x8,72(x2)
    955c:	03c12983          	lw	x19,60(x2)
    9560:	02812c03          	lw	x24,40(x2)
    9564:	05010113          	add	x2,x2,80
    9568:	00008067          	ret
    956c:	04412483          	lw	x9,68(x2)
    9570:	04012903          	lw	x18,64(x2)
    9574:	03812a03          	lw	x20,56(x2)
    9578:	03412a83          	lw	x21,52(x2)
    957c:	03012b03          	lw	x22,48(x2)
    9580:	02c12b83          	lw	x23,44(x2)
    9584:	02412c83          	lw	x25,36(x2)
    9588:	02012d03          	lw	x26,32(x2)
    958c:	fc5ff06f          	j	9550 <dir_find+0x410>

00009590 <dir_register>:
    9590:	f7010113          	add	x2,x2,-144
    9594:	08112623          	sw	x1,140(x2)
    9598:	08812423          	sw	x8,136(x2)
    959c:	09212023          	sw	x18,128(x2)
    95a0:	04b54403          	lbu	x8,75(x10)
    95a4:	0a047413          	and	x8,x8,160
    95a8:	00600913          	li	x18,6
    95ac:	78041063          	bnez	x8,9d2c <dir_register+0x79c>
    95b0:	08912223          	sw	x9,132(x2)
    95b4:	07512a23          	sw	x21,116(x2)
    95b8:	07612823          	sw	x22,112(x2)
    95bc:	00050493          	mv	x9,x10
    95c0:	00052b03          	lw	x22,0(x10)
    95c4:	00cb2783          	lw	x15,12(x22)
    95c8:	0007d703          	lhu	x14,0(x15)
    95cc:	06070c63          	beqz	x14,9644 <dir_register+0xb4>
    95d0:	00278793          	add	x15,x15,2
    95d4:	00000a93          	li	x21,0
    95d8:	001a8a93          	add	x21,x21,1
    95dc:	00278793          	add	x15,x15,2
    95e0:	ffe7d703          	lhu	x14,-2(x15)
    95e4:	fe071ae3          	bnez	x14,95d8 <dir_register+0x48>
    95e8:	000b4703          	lbu	x14,0(x22)
    95ec:	00400793          	li	x15,4
    95f0:	04f70e63          	beq	x14,x15,964c <dir_register+0xbc>
    95f4:	07712623          	sw	x23,108(x2)
    95f8:	04048b93          	add	x23,x9,64
    95fc:	00c00613          	li	x12,12
    9600:	000b8593          	mv	x11,x23
    9604:	05410513          	add	x10,x2,84
    9608:	8f4fb0ef          	jal	46fc <memcpy>
    960c:	05f14783          	lbu	x15,95(x2)
    9610:	0017f793          	and	x15,x15,1
    9614:	56078063          	beqz	x15,9b74 <dir_register+0x5e4>
    9618:	07312e23          	sw	x19,124(x2)
    961c:	07412c23          	sw	x20,120(x2)
    9620:	07812423          	sw	x24,104(x2)
    9624:	04000793          	li	x15,64
    9628:	04f485a3          	sb	x15,75(x9)
    962c:	00100993          	li	x19,1
    9630:	00500c13          	li	x24,5
    9634:	00011437          	lui	x8,0x11
    9638:	02140413          	add	x8,x8,33 # 11021 <__clzsi2+0x435>
    963c:	00f00a13          	li	x20,15
    9640:	3240006f          	j	9964 <dir_register+0x3d4>
    9644:	00000a93          	li	x21,0
    9648:	fa1ff06f          	j	95e8 <dir_register+0x58>
    964c:	07312e23          	sw	x19,124(x2)
    9650:	00f00593          	li	x11,15
    9654:	00ea8513          	add	x10,x21,14
    9658:	1b4040ef          	jal	d80c <__hidden___udivsi3>
    965c:	00050993          	mv	x19,x10
    9660:	00250593          	add	x11,x10,2
    9664:	00048513          	mv	x10,x9
    9668:	e14fe0ef          	jal	7c7c <dir_alloc>
    966c:	00050913          	mv	x18,x10
    9670:	5e051263          	bnez	x10,9c54 <dir_register+0x6c4>
    9674:	00198793          	add	x15,x19,1
    9678:	00579793          	sll	x15,x15,0x5
    967c:	0304a703          	lw	x14,48(x9)
    9680:	40f707b3          	sub	x15,x14,x15
    9684:	04f4a623          	sw	x15,76(x9)
    9688:	0074c783          	lbu	x15,7(x9)
    968c:	0047f713          	and	x14,x15,4
    9690:	04070863          	beqz	x14,96e0 <dir_register+0x150>
    9694:	ffb7f793          	and	x15,x15,-5
    9698:	00f483a3          	sb	x15,7(x9)
    969c:	00048513          	mv	x10,x9
    96a0:	998fd0ef          	jal	6838 <fill_first_frag>
    96a4:	00050913          	mv	x18,x10
    96a8:	00050c63          	beqz	x10,96c0 <dir_register+0x130>
    96ac:	08412483          	lw	x9,132(x2)
    96b0:	07c12983          	lw	x19,124(x2)
    96b4:	07412a83          	lw	x21,116(x2)
    96b8:	07012b03          	lw	x22,112(x2)
    96bc:	6700006f          	j	9d2c <dir_register+0x79c>
    96c0:	fff00613          	li	x12,-1
    96c4:	0344a583          	lw	x11,52(x9)
    96c8:	00048513          	mv	x10,x9
    96cc:	8d8fd0ef          	jal	67a4 <fill_last_frag>
    96d0:	00050913          	mv	x18,x10
    96d4:	58051a63          	bnez	x10,9c68 <dir_register+0x6d8>
    96d8:	0084a783          	lw	x15,8(x9)
    96dc:	04079463          	bnez	x15,9724 <dir_register+0x194>
    96e0:	010b2483          	lw	x9,16(x22)
    96e4:	00cb2983          	lw	x19,12(x22)
    96e8:	04000613          	li	x12,64
    96ec:	00000593          	li	x11,0
    96f0:	00048513          	mv	x10,x9
    96f4:	884fb0ef          	jal	4778 <memset>
    96f8:	f8500793          	li	x15,-123
    96fc:	00f48023          	sb	x15,0(x9)
    9700:	fc000793          	li	x15,-64
    9704:	02f48023          	sb	x15,32(x9)
    9708:	00040613          	mv	x12,x8
    970c:	00100713          	li	x14,1
    9710:	04000693          	li	x13,64
    9714:	fc100813          	li	x16,-63
    9718:	00200593          	li	x11,2
    971c:	409585b3          	sub	x11,x11,x9
    9720:	1380006f          	j	9858 <dir_register+0x2c8>
    9724:	0004a783          	lw	x15,0(x9)
    9728:	00f12023          	sw	x15,0(x2)
    972c:	0204a783          	lw	x15,32(x9)
    9730:	00f12423          	sw	x15,8(x2)
    9734:	0244a783          	lw	x15,36(x9)
    9738:	00f103a3          	sb	x15,7(x2)
    973c:	f007f793          	and	x15,x15,-256
    9740:	00f12823          	sw	x15,16(x2)
    9744:	00012a23          	sw	x0,20(x2)
    9748:	00012e23          	sw	x0,28(x2)
    974c:	0284a583          	lw	x11,40(x9)
    9750:	04b12623          	sw	x11,76(x2)
    9754:	00010513          	mv	x10,x2
    9758:	8e9fd0ef          	jal	7040 <dir_sdi>
    975c:	00050913          	mv	x18,x10
    9760:	00050c63          	beqz	x10,9778 <dir_register+0x1e8>
    9764:	08412483          	lw	x9,132(x2)
    9768:	07c12983          	lw	x19,124(x2)
    976c:	07412a83          	lw	x21,116(x2)
    9770:	07012b03          	lw	x22,112(x2)
    9774:	5b80006f          	j	9d2c <dir_register+0x79c>
    9778:	00010513          	mv	x10,x2
    977c:	ef4fe0ef          	jal	7e70 <load_xdir>
    9780:	00050913          	mv	x18,x10
    9784:	4e051c63          	bnez	x10,9c7c <dir_register+0x6ec>
    9788:	00ab5783          	lhu	x15,10(x22)
    978c:	00979793          	sll	x15,x15,0x9
    9790:	0104a583          	lw	x11,16(x9)
    9794:	0144a703          	lw	x14,20(x9)
    9798:	00b785b3          	add	x11,x15,x11
    979c:	00f5b7b3          	sltu	x15,x11,x15
    97a0:	00e78633          	add	x12,x15,x14
    97a4:	00b4a823          	sw	x11,16(x9)
    97a8:	00c4aa23          	sw	x12,20(x9)
    97ac:	010b2503          	lw	x10,16(x22)
    97b0:	03850513          	add	x10,x10,56
    97b4:	a2cfc0ef          	jal	59e0 <st_qword>
    97b8:	010b2503          	lw	x10,16(x22)
    97bc:	0104a583          	lw	x11,16(x9)
    97c0:	0144a603          	lw	x12,20(x9)
    97c4:	02850513          	add	x10,x10,40
    97c8:	a18fc0ef          	jal	59e0 <st_qword>
    97cc:	010b2703          	lw	x14,16(x22)
    97d0:	0074c783          	lbu	x15,7(x9)
    97d4:	0017e793          	or	x15,x15,1
    97d8:	02f700a3          	sb	x15,33(x14)
    97dc:	00010513          	mv	x10,x2
    97e0:	8cdfe0ef          	jal	80ac <store_xdir>
    97e4:	00050913          	mv	x18,x10
    97e8:	ee050ce3          	beqz	x10,96e0 <dir_register+0x150>
    97ec:	08412483          	lw	x9,132(x2)
    97f0:	07c12983          	lw	x19,124(x2)
    97f4:	07412a83          	lw	x21,116(x2)
    97f8:	07012b03          	lw	x22,112(x2)
    97fc:	5300006f          	j	9d2c <dir_register+0x79c>
    9800:	00e78023          	sb	x14,0(x15)
    9804:	00875693          	srl	x13,x14,0x8
    9808:	00d780a3          	sb	x13,1(x15)
    980c:	00f586b3          	add	x13,x11,x15
    9810:	01f6f913          	and	x18,x13,31
    9814:	00278793          	add	x15,x15,2
    9818:	02090263          	beqz	x18,983c <dir_register+0x2ac>
    981c:	fe0702e3          	beqz	x14,9800 <dir_register+0x270>
    9820:	00161713          	sll	x14,x12,0x1
    9824:	00e98733          	add	x14,x19,x14
    9828:	00075703          	lhu	x14,0(x14)
    982c:	fc070ae3          	beqz	x14,9800 <dir_register+0x270>
    9830:	00160613          	add	x12,x12,1
    9834:	0ff67613          	zext.b	x12,x12
    9838:	fc9ff06f          	j	9800 <dir_register+0x270>
    983c:	00140513          	add	x10,x8,1
    9840:	0ff57513          	zext.b	x10,x10
    9844:	00161793          	sll	x15,x12,0x1
    9848:	00f987b3          	add	x15,x19,x15
    984c:	0007d783          	lhu	x15,0(x15)
    9850:	02078063          	beqz	x15,9870 <dir_register+0x2e0>
    9854:	00050413          	mv	x8,x10
    9858:	00d487b3          	add	x15,x9,x13
    985c:	01078023          	sb	x16,0(x15)
    9860:	000780a3          	sb	x0,1(x15)
    9864:	00268693          	add	x13,x13,2
    9868:	00d487b3          	add	x15,x9,x13
    986c:	fb1ff06f          	j	981c <dir_register+0x28c>
    9870:	02c481a3          	sb	x12,35(x9)
    9874:	00240413          	add	x8,x8,2
    9878:	008480a3          	sb	x8,1(x9)
    987c:	00098513          	mv	x10,x19
    9880:	a85fc0ef          	jal	6304 <xname_sum>
    9884:	02a48223          	sb	x10,36(x9)
    9888:	00855793          	srl	x15,x10,0x8
    988c:	02f482a3          	sb	x15,37(x9)
    9890:	08412483          	lw	x9,132(x2)
    9894:	07c12983          	lw	x19,124(x2)
    9898:	07412a83          	lw	x21,116(x2)
    989c:	07012b03          	lw	x22,112(x2)
    98a0:	48c0006f          	j	9d2c <dir_register+0x79c>
    98a4:	fff68693          	add	x13,x13,-1
    98a8:	02068263          	beqz	x13,98cc <dir_register+0x33c>
    98ac:	00179793          	sll	x15,x15,0x1
    98b0:	00177613          	and	x12,x14,1
    98b4:	00f607b3          	add	x15,x12,x15
    98b8:	00175713          	srl	x14,x14,0x1
    98bc:	00b7f633          	and	x12,x15,x11
    98c0:	fe0602e3          	beqz	x12,98a4 <dir_register+0x314>
    98c4:	0087c7b3          	xor	x15,x15,x8
    98c8:	fddff06f          	j	98a4 <dir_register+0x314>
    98cc:	00095703          	lhu	x14,0(x18)
    98d0:	00070863          	beqz	x14,98e0 <dir_register+0x350>
    98d4:	00290913          	add	x18,x18,2
    98d8:	01000693          	li	x13,16
    98dc:	fd1ff06f          	j	98ac <dir_register+0x31c>
    98e0:	00700713          	li	x14,7
    98e4:	03900513          	li	x10,57
    98e8:	0180006f          	j	9900 <dir_register+0x370>
    98ec:	fff70713          	add	x14,x14,-1
    98f0:	00e10633          	add	x12,x2,x14
    98f4:	00d600a3          	sb	x13,1(x12)
    98f8:	30070863          	beqz	x14,9c08 <dir_register+0x678>
    98fc:	30ba7e63          	bgeu	x20,x11,9c18 <dir_register+0x688>
    9900:	00f7f613          	and	x12,x15,15
    9904:	03060693          	add	x13,x12,48
    9908:	00078593          	mv	x11,x15
    990c:	0047d793          	srl	x15,x15,0x4
    9910:	fcd57ee3          	bgeu	x10,x13,98ec <dir_register+0x35c>
    9914:	03760693          	add	x13,x12,55
    9918:	fd5ff06f          	j	98ec <dir_register+0x35c>
    991c:	00178793          	add	x15,x15,1
    9920:	00f485b3          	add	x11,x9,x15
    9924:	02d58fa3          	sb	x13,63(x11)
    9928:	02f66063          	bltu	x12,x15,9948 <dir_register+0x3b8>
    992c:	00050693          	mv	x13,x10
    9930:	fee666e3          	bltu	x12,x14,991c <dir_register+0x38c>
    9934:	06070693          	add	x13,x14,96
    9938:	002686b3          	add	x13,x13,x2
    993c:	fa06c683          	lbu	x13,-96(x13)
    9940:	00170713          	add	x14,x14,1
    9944:	fd9ff06f          	j	991c <dir_register+0x38c>
    9948:	00048513          	mv	x10,x9
    994c:	ff4ff0ef          	jal	9140 <dir_find>
    9950:	00050913          	mv	x18,x10
    9954:	20051263          	bnez	x10,9b58 <dir_register+0x5c8>
    9958:	00198993          	add	x19,x19,1
    995c:	06400793          	li	x15,100
    9960:	02f98863          	beq	x19,x15,9990 <dir_register+0x400>
    9964:	00cb2903          	lw	x18,12(x22)
    9968:	00b00613          	li	x12,11
    996c:	05410593          	add	x11,x2,84
    9970:	000b8513          	mv	x10,x23
    9974:	d89fa0ef          	jal	46fc <memcpy>
    9978:	00098793          	mv	x15,x19
    997c:	f73c72e3          	bgeu	x24,x19,98e0 <dir_register+0x350>
    9980:	00095703          	lhu	x14,0(x18)
    9984:	f4070ee3          	beqz	x14,98e0 <dir_register+0x350>
    9988:	000105b7          	lui	x11,0x10
    998c:	f49ff06f          	j	98d4 <dir_register+0x344>
    9990:	00700913          	li	x18,7
    9994:	08412483          	lw	x9,132(x2)
    9998:	07c12983          	lw	x19,124(x2)
    999c:	07812a03          	lw	x20,120(x2)
    99a0:	07412a83          	lw	x21,116(x2)
    99a4:	07012b03          	lw	x22,112(x2)
    99a8:	06c12b83          	lw	x23,108(x2)
    99ac:	06812c03          	lw	x24,104(x2)
    99b0:	37c0006f          	j	9d2c <dir_register+0x79c>
    99b4:	00870a63          	beq	x14,x8,99c8 <dir_register+0x438>
    99b8:	00179793          	sll	x15,x15,0x1
    99bc:	00f80833          	add	x16,x16,x15
    99c0:	00085783          	lhu	x15,0(x16)
    99c4:	00079463          	bnez	x15,99cc <dir_register+0x43c>
    99c8:	0408e893          	or	x17,x17,64
    99cc:	01158023          	sb	x17,0(x11) # 10000 <__muldf3+0x63c>
    99d0:	00100793          	li	x15,1
    99d4:	00fb0223          	sb	x15,4(x22)
    99d8:	000c0593          	mv	x11,x24
    99dc:	00048513          	mv	x10,x9
    99e0:	8b8fe0ef          	jal	7a98 <dir_next>
    99e4:	00050913          	mv	x18,x10
    99e8:	30051063          	bnez	x10,9ce8 <dir_register+0x758>
    99ec:	fff98993          	add	x19,x19,-1
    99f0:	06098063          	beqz	x19,9a50 <dir_register+0x4c0>
    99f4:	0384a583          	lw	x11,56(x9)
    99f8:	000b0513          	mv	x10,x22
    99fc:	e30fc0ef          	jal	602c <move_window>
    9a00:	00050913          	mv	x18,x10
    9a04:	2a051e63          	bnez	x10,9cc0 <dir_register+0x730>
    9a08:	00cb2803          	lw	x16,12(x22)
    9a0c:	03c4a583          	lw	x11,60(x9)
    9a10:	0ff9f893          	zext.b	x17,x19
    9a14:	015586a3          	sb	x21,13(x11)
    9a18:	01a585a3          	sb	x26,11(x11)
    9a1c:	00058623          	sb	x0,12(x11)
    9a20:	00058d23          	sb	x0,26(x11)
    9a24:	00058da3          	sb	x0,27(x11)
    9a28:	0ff9f713          	zext.b	x14,x19
    9a2c:	fff70713          	add	x14,x14,-1
    9a30:	00171793          	sll	x15,x14,0x1
    9a34:	00e787b3          	add	x15,x15,x14
    9a38:	00279793          	sll	x15,x15,0x2
    9a3c:	00e787b3          	add	x15,x15,x14
    9a40:	a64c8693          	add	x13,x25,-1436
    9a44:	00d68313          	add	x6,x13,13
    9a48:	000c0713          	mv	x14,x24
    9a4c:	0ac0006f          	j	9af8 <dir_register+0x568>
    9a50:	07c12983          	lw	x19,124(x2)
    9a54:	07812a03          	lw	x20,120(x2)
    9a58:	06812c03          	lw	x24,104(x2)
    9a5c:	06412c83          	lw	x25,100(x2)
    9a60:	06012d03          	lw	x26,96(x2)
    9a64:	0080006f          	j	9a6c <dir_register+0x4dc>
    9a68:	07c12983          	lw	x19,124(x2)
    9a6c:	0384a583          	lw	x11,56(x9)
    9a70:	000b0513          	mv	x10,x22
    9a74:	db8fc0ef          	jal	602c <move_window>
    9a78:	00050913          	mv	x18,x10
    9a7c:	00050c63          	beqz	x10,9a94 <dir_register+0x504>
    9a80:	08412483          	lw	x9,132(x2)
    9a84:	07412a83          	lw	x21,116(x2)
    9a88:	07012b03          	lw	x22,112(x2)
    9a8c:	06c12b83          	lw	x23,108(x2)
    9a90:	29c0006f          	j	9d2c <dir_register+0x79c>
    9a94:	02000613          	li	x12,32
    9a98:	00000593          	li	x11,0
    9a9c:	03c4a503          	lw	x10,60(x9)
    9aa0:	cd9fa0ef          	jal	4778 <memset>
    9aa4:	00b00613          	li	x12,11
    9aa8:	000b8593          	mv	x11,x23
    9aac:	03c4a503          	lw	x10,60(x9)
    9ab0:	c4dfa0ef          	jal	46fc <memcpy>
    9ab4:	03c4a703          	lw	x14,60(x9)
    9ab8:	04b4c783          	lbu	x15,75(x9)
    9abc:	0187f793          	and	x15,x15,24
    9ac0:	00f70623          	sb	x15,12(x14)
    9ac4:	00100793          	li	x15,1
    9ac8:	00fb0223          	sb	x15,4(x22)
    9acc:	08412483          	lw	x9,132(x2)
    9ad0:	07412a83          	lw	x21,116(x2)
    9ad4:	07012b03          	lw	x22,112(x2)
    9ad8:	06c12b83          	lw	x23,108(x2)
    9adc:	2500006f          	j	9d2c <dir_register+0x79c>
    9ae0:	0006c603          	lbu	x12,0(x13)
    9ae4:	00c58633          	add	x12,x11,x12
    9ae8:	01460023          	sb	x20,0(x12)
    9aec:	014600a3          	sb	x20,1(x12)
    9af0:	00168693          	add	x13,x13,1
    9af4:	ec6680e3          	beq	x13,x6,99b4 <dir_register+0x424>
    9af8:	fe8704e3          	beq	x14,x8,9ae0 <dir_register+0x550>
    9afc:	00178613          	add	x12,x15,1
    9b00:	00179793          	sll	x15,x15,0x1
    9b04:	00f807b3          	add	x15,x16,x15
    9b08:	0007d703          	lhu	x14,0(x15)
    9b0c:	0006c783          	lbu	x15,0(x13)
    9b10:	00f587b3          	add	x15,x11,x15
    9b14:	00e78023          	sb	x14,0(x15)
    9b18:	00875513          	srl	x10,x14,0x8
    9b1c:	00a780a3          	sb	x10,1(x15)
    9b20:	00060793          	mv	x15,x12
    9b24:	fc0716e3          	bnez	x14,9af0 <dir_register+0x560>
    9b28:	00040713          	mv	x14,x8
    9b2c:	fc5ff06f          	j	9af0 <dir_register+0x560>
    9b30:	00100593          	li	x11,1
    9b34:	00048513          	mv	x10,x9
    9b38:	944fe0ef          	jal	7c7c <dir_alloc>
    9b3c:	00050913          	mv	x18,x10
    9b40:	f20506e3          	beqz	x10,9a6c <dir_register+0x4dc>
    9b44:	08412483          	lw	x9,132(x2)
    9b48:	07412a83          	lw	x21,116(x2)
    9b4c:	07012b03          	lw	x22,112(x2)
    9b50:	06c12b83          	lw	x23,108(x2)
    9b54:	1d80006f          	j	9d2c <dir_register+0x79c>
    9b58:	00400793          	li	x15,4
    9b5c:	1af51a63          	bne	x10,x15,9d10 <dir_register+0x780>
    9b60:	05f14783          	lbu	x15,95(x2)
    9b64:	04f485a3          	sb	x15,75(x9)
    9b68:	07c12983          	lw	x19,124(x2)
    9b6c:	07812a03          	lw	x20,120(x2)
    9b70:	06812c03          	lw	x24,104(x2)
    9b74:	05f14783          	lbu	x15,95(x2)
    9b78:	0027f793          	and	x15,x15,2
    9b7c:	fa078ae3          	beqz	x15,9b30 <dir_register+0x5a0>
    9b80:	07312e23          	sw	x19,124(x2)
    9b84:	00ca8a93          	add	x21,x21,12
    9b88:	00d00593          	li	x11,13
    9b8c:	000a8513          	mv	x10,x21
    9b90:	47d030ef          	jal	d80c <__hidden___udivsi3>
    9b94:	00050993          	mv	x19,x10
    9b98:	00150593          	add	x11,x10,1
    9b9c:	00048513          	mv	x10,x9
    9ba0:	8dcfe0ef          	jal	7c7c <dir_alloc>
    9ba4:	00050913          	mv	x18,x10
    9ba8:	0e051463          	bnez	x10,9c90 <dir_register+0x700>
    9bac:	00c00793          	li	x15,12
    9bb0:	eb57fce3          	bgeu	x15,x21,9a68 <dir_register+0x4d8>
    9bb4:	00599793          	sll	x15,x19,0x5
    9bb8:	0304a583          	lw	x11,48(x9)
    9bbc:	40f585b3          	sub	x11,x11,x15
    9bc0:	00048513          	mv	x10,x9
    9bc4:	c7cfd0ef          	jal	7040 <dir_sdi>
    9bc8:	00050913          	mv	x18,x10
    9bcc:	0c051e63          	bnez	x10,9ca8 <dir_register+0x718>
    9bd0:	07412c23          	sw	x20,120(x2)
    9bd4:	07812423          	sw	x24,104(x2)
    9bd8:	07912223          	sw	x25,100(x2)
    9bdc:	07a12023          	sw	x26,96(x2)
    9be0:	000b8513          	mv	x10,x23
    9be4:	e81fb0ef          	jal	5a64 <sum_sfn>
    9be8:	00050a93          	mv	x21,x10
    9bec:	00f00d13          	li	x26,15
    9bf0:	00012cb7          	lui	x25,0x12
    9bf4:	00000c13          	li	x24,0
    9bf8:	00010437          	lui	x8,0x10
    9bfc:	fff40413          	add	x8,x8,-1 # ffff <__muldf3+0x63b>
    9c00:	fff00a13          	li	x20,-1
    9c04:	df1ff06f          	j	99f4 <dir_register+0x464>
    9c08:	07e00793          	li	x15,126
    9c0c:	00f10023          	sb	x15,0(x2)
    9c10:	00070793          	mv	x15,x14
    9c14:	0340006f          	j	9c48 <dir_register+0x6b8>
    9c18:	07e00693          	li	x13,126
    9c1c:	06070793          	add	x15,x14,96
    9c20:	002787b3          	add	x15,x15,x2
    9c24:	fad78023          	sb	x13,-96(x15)
    9c28:	00000793          	li	x15,0
    9c2c:	02000613          	li	x12,32
    9c30:	00f486b3          	add	x13,x9,x15
    9c34:	0406c683          	lbu	x13,64(x13)
    9c38:	00c68863          	beq	x13,x12,9c48 <dir_register+0x6b8>
    9c3c:	00178793          	add	x15,x15,1
    9c40:	fef718e3          	bne	x14,x15,9c30 <dir_register+0x6a0>
    9c44:	00070793          	mv	x15,x14
    9c48:	00700613          	li	x12,7
    9c4c:	02000513          	li	x10,32
    9c50:	cddff06f          	j	992c <dir_register+0x39c>
    9c54:	08412483          	lw	x9,132(x2)
    9c58:	07c12983          	lw	x19,124(x2)
    9c5c:	07412a83          	lw	x21,116(x2)
    9c60:	07012b03          	lw	x22,112(x2)
    9c64:	0c80006f          	j	9d2c <dir_register+0x79c>
    9c68:	08412483          	lw	x9,132(x2)
    9c6c:	07c12983          	lw	x19,124(x2)
    9c70:	07412a83          	lw	x21,116(x2)
    9c74:	07012b03          	lw	x22,112(x2)
    9c78:	0b40006f          	j	9d2c <dir_register+0x79c>
    9c7c:	08412483          	lw	x9,132(x2)
    9c80:	07c12983          	lw	x19,124(x2)
    9c84:	07412a83          	lw	x21,116(x2)
    9c88:	07012b03          	lw	x22,112(x2)
    9c8c:	0a00006f          	j	9d2c <dir_register+0x79c>
    9c90:	08412483          	lw	x9,132(x2)
    9c94:	07c12983          	lw	x19,124(x2)
    9c98:	07412a83          	lw	x21,116(x2)
    9c9c:	07012b03          	lw	x22,112(x2)
    9ca0:	06c12b83          	lw	x23,108(x2)
    9ca4:	0880006f          	j	9d2c <dir_register+0x79c>
    9ca8:	08412483          	lw	x9,132(x2)
    9cac:	07c12983          	lw	x19,124(x2)
    9cb0:	07412a83          	lw	x21,116(x2)
    9cb4:	07012b03          	lw	x22,112(x2)
    9cb8:	06c12b83          	lw	x23,108(x2)
    9cbc:	0700006f          	j	9d2c <dir_register+0x79c>
    9cc0:	08412483          	lw	x9,132(x2)
    9cc4:	07c12983          	lw	x19,124(x2)
    9cc8:	07812a03          	lw	x20,120(x2)
    9ccc:	07412a83          	lw	x21,116(x2)
    9cd0:	07012b03          	lw	x22,112(x2)
    9cd4:	06c12b83          	lw	x23,108(x2)
    9cd8:	06812c03          	lw	x24,104(x2)
    9cdc:	06412c83          	lw	x25,100(x2)
    9ce0:	06012d03          	lw	x26,96(x2)
    9ce4:	0480006f          	j	9d2c <dir_register+0x79c>
    9ce8:	08412483          	lw	x9,132(x2)
    9cec:	07c12983          	lw	x19,124(x2)
    9cf0:	07812a03          	lw	x20,120(x2)
    9cf4:	07412a83          	lw	x21,116(x2)
    9cf8:	07012b03          	lw	x22,112(x2)
    9cfc:	06c12b83          	lw	x23,108(x2)
    9d00:	06812c03          	lw	x24,104(x2)
    9d04:	06412c83          	lw	x25,100(x2)
    9d08:	06012d03          	lw	x26,96(x2)
    9d0c:	0200006f          	j	9d2c <dir_register+0x79c>
    9d10:	08412483          	lw	x9,132(x2)
    9d14:	07c12983          	lw	x19,124(x2)
    9d18:	07812a03          	lw	x20,120(x2)
    9d1c:	07412a83          	lw	x21,116(x2)
    9d20:	07012b03          	lw	x22,112(x2)
    9d24:	06c12b83          	lw	x23,108(x2)
    9d28:	06812c03          	lw	x24,104(x2)
    9d2c:	00090513          	mv	x10,x18
    9d30:	08c12083          	lw	x1,140(x2)
    9d34:	08812403          	lw	x8,136(x2)
    9d38:	08012903          	lw	x18,128(x2)
    9d3c:	09010113          	add	x2,x2,144
    9d40:	00008067          	ret

00009d44 <ld_clust>:
    9d44:	01b5c783          	lbu	x15,27(x11)
    9d48:	00879793          	sll	x15,x15,0x8
    9d4c:	01a5c703          	lbu	x14,26(x11)
    9d50:	00e7e7b3          	or	x15,x15,x14
    9d54:	01079793          	sll	x15,x15,0x10
    9d58:	0107d793          	srl	x15,x15,0x10
    9d5c:	00054683          	lbu	x13,0(x10)
    9d60:	00300713          	li	x14,3
    9d64:	00e68663          	beq	x13,x14,9d70 <ld_clust+0x2c>
    9d68:	00078513          	mv	x10,x15
    9d6c:	00008067          	ret
    9d70:	0155c703          	lbu	x14,21(x11)
    9d74:	00871713          	sll	x14,x14,0x8
    9d78:	0145c683          	lbu	x13,20(x11)
    9d7c:	00d76733          	or	x14,x14,x13
    9d80:	01071713          	sll	x14,x14,0x10
    9d84:	00e7e7b3          	or	x15,x15,x14
    9d88:	fe1ff06f          	j	9d68 <ld_clust+0x24>

00009d8c <follow_path>:
    9d8c:	fb010113          	add	x2,x2,-80
    9d90:	04112623          	sw	x1,76(x2)
    9d94:	05212023          	sw	x18,64(x2)
    9d98:	03712623          	sw	x23,44(x2)
    9d9c:	00050b93          	mv	x23,x10
    9da0:	00058913          	mv	x18,x11
    9da4:	00052783          	lw	x15,0(x10)
    9da8:	00f12223          	sw	x15,4(x2)
    9dac:	02f00713          	li	x14,47
    9db0:	05c00693          	li	x13,92
    9db4:	0080006f          	j	9dbc <follow_path+0x30>
    9db8:	00190913          	add	x18,x18,1
    9dbc:	00094783          	lbu	x15,0(x18)
    9dc0:	fee78ce3          	beq	x15,x14,9db8 <follow_path+0x2c>
    9dc4:	fed78ae3          	beq	x15,x13,9db8 <follow_path+0x2c>
    9dc8:	000ba423          	sw	x0,8(x23)
    9dcc:	000bae23          	sw	x0,28(x23)
    9dd0:	00094703          	lbu	x14,0(x18)
    9dd4:	01f00793          	li	x15,31
    9dd8:	04e7f063          	bgeu	x15,x14,9e18 <follow_path+0x8c>
    9ddc:	04812423          	sw	x8,72(x2)
    9de0:	04912223          	sw	x9,68(x2)
    9de4:	03312e23          	sw	x19,60(x2)
    9de8:	03412c23          	sw	x20,56(x2)
    9dec:	03512a23          	sw	x21,52(x2)
    9df0:	03612823          	sw	x22,48(x2)
    9df4:	03812423          	sw	x24,40(x2)
    9df8:	03912223          	sw	x25,36(x2)
    9dfc:	03a12023          	sw	x26,32(x2)
    9e00:	01b12e23          	sw	x27,28(x2)
    9e04:	01f00c13          	li	x24,31
    9e08:	02f00a13          	li	x20,47
    9e0c:	05c00a93          	li	x21,92
    9e10:	00012d37          	lui	x26,0x12
    9e14:	29c0006f          	j	a0b0 <follow_path+0x324>
    9e18:	f8000793          	li	x15,-128
    9e1c:	04fb85a3          	sb	x15,75(x23)
    9e20:	00000593          	li	x11,0
    9e24:	000b8513          	mv	x10,x23
    9e28:	a18fd0ef          	jal	7040 <dir_sdi>
    9e2c:	04c12083          	lw	x1,76(x2)
    9e30:	04012903          	lw	x18,64(x2)
    9e34:	02c12b83          	lw	x23,44(x2)
    9e38:	05010113          	add	x2,x2,80
    9e3c:	00008067          	ret
    9e40:	1b500593          	li	x11,437
    9e44:	02d030ef          	jal	d670 <ff_oem2uni>
    9e48:	00050413          	mv	x8,x10
    9e4c:	52050c63          	beqz	x10,a384 <follow_path+0x5f8>
    9e50:	02ac7663          	bgeu	x24,x10,9e7c <follow_path+0xf0>
    9e54:	05450463          	beq	x10,x20,9e9c <follow_path+0x110>
    9e58:	05550263          	beq	x10,x21,9e9c <follow_path+0x110>
    9e5c:	02ab7463          	bgeu	x22,x10,9e84 <follow_path+0xf8>
    9e60:	53b48263          	beq	x9,x27,a384 <follow_path+0x5f8>
    9e64:	00148493          	add	x9,x9,1
    9e68:	00899023          	sh	x8,0(x19)
    9e6c:	00298993          	add	x19,x19,2
    9e70:	00190913          	add	x18,x18,1
    9e74:	fff94503          	lbu	x10,-1(x18)
    9e78:	fc0514e3          	bnez	x10,9e40 <follow_path+0xb4>
    9e7c:	00400413          	li	x8,4
    9e80:	0300006f          	j	9eb0 <follow_path+0x124>
    9e84:	00050593          	mv	x11,x10
    9e88:	8dcd0513          	add	x10,x26,-1828 # 118dc <__clzsi2+0xcf0>
    9e8c:	bb1fa0ef          	jal	4a3c <strchr>
    9e90:	fc0508e3          	beqz	x10,9e60 <follow_path+0xd4>
    9e94:	4f00006f          	j	a384 <follow_path+0x5f8>
    9e98:	00190913          	add	x18,x18,1
    9e9c:	00094403          	lbu	x8,0(x18)
    9ea0:	ff440ce3          	beq	x8,x20,9e98 <follow_path+0x10c>
    9ea4:	ff540ae3          	beq	x8,x21,9e98 <follow_path+0x10c>
    9ea8:	02043413          	sltiu	x8,x8,32
    9eac:	00241413          	sll	x8,x8,0x2
    9eb0:	48048a63          	beqz	x9,a344 <follow_path+0x5b8>
    9eb4:	00149793          	sll	x15,x9,0x1
    9eb8:	00fc87b3          	add	x15,x25,x15
    9ebc:	02000693          	li	x13,32
    9ec0:	02e00613          	li	x12,46
    9ec4:	0100006f          	j	9ed4 <follow_path+0x148>
    9ec8:	fff48493          	add	x9,x9,-1
    9ecc:	ffe78793          	add	x15,x15,-2
    9ed0:	4a048863          	beqz	x9,a380 <follow_path+0x5f4>
    9ed4:	ffe7d703          	lhu	x14,-2(x15)
    9ed8:	fed708e3          	beq	x14,x13,9ec8 <follow_path+0x13c>
    9edc:	fec706e3          	beq	x14,x12,9ec8 <follow_path+0x13c>
    9ee0:	00149793          	sll	x15,x9,0x1
    9ee4:	00fc87b3          	add	x15,x25,x15
    9ee8:	00079023          	sh	x0,0(x15)
    9eec:	48048c63          	beqz	x9,a384 <follow_path+0x5f8>
    9ef0:	000cd683          	lhu	x13,0(x25) # 12000 <nes_bsram_size+0x138>
    9ef4:	02000713          	li	x14,32
    9ef8:	06e69c63          	bne	x13,x14,9f70 <follow_path+0x1e4>
    9efc:	002c8713          	add	x14,x25,2
    9f00:	00000993          	li	x19,0
    9f04:	02000613          	li	x12,32
    9f08:	00198993          	add	x19,x19,1
    9f0c:	00270713          	add	x14,x14,2
    9f10:	ffe75683          	lhu	x13,-2(x14)
    9f14:	fec68ae3          	beq	x13,x12,9f08 <follow_path+0x17c>
    9f18:	04098c63          	beqz	x19,9f70 <follow_path+0x1e4>
    9f1c:	00346413          	or	x8,x8,3
    9f20:	0ff47413          	zext.b	x8,x8
    9f24:	02e00693          	li	x13,46
    9f28:	ffe7d703          	lhu	x14,-2(x15)
    9f2c:	00d70863          	beq	x14,x13,9f3c <follow_path+0x1b0>
    9f30:	fff48493          	add	x9,x9,-1
    9f34:	ffe78793          	add	x15,x15,-2
    9f38:	fe0498e3          	bnez	x9,9f28 <follow_path+0x19c>
    9f3c:	00b00613          	li	x12,11
    9f40:	02000593          	li	x11,32
    9f44:	040b8513          	add	x10,x23,64
    9f48:	831fa0ef          	jal	4778 <memset>
    9f4c:	00198b13          	add	x22,x19,1
    9f50:	00199993          	sll	x19,x19,0x1
    9f54:	013c89b3          	add	x19,x25,x19
    9f58:	0009d983          	lhu	x19,0(x19)
    9f5c:	3c098a63          	beqz	x19,a330 <follow_path+0x5a4>
    9f60:	00012423          	sw	x0,8(x2)
    9f64:	00800d93          	li	x27,8
    9f68:	00012023          	sw	x0,0(x2)
    9f6c:	0380006f          	j	9fa4 <follow_path+0x218>
    9f70:	02e00713          	li	x14,46
    9f74:	00000993          	li	x19,0
    9f78:	fae696e3          	bne	x13,x14,9f24 <follow_path+0x198>
    9f7c:	fa1ff06f          	j	9f1c <follow_path+0x190>
    9f80:	029b0a63          	beq	x22,x9,9fb4 <follow_path+0x228>
    9f84:	00346413          	or	x8,x8,3
    9f88:	0ff47413          	zext.b	x8,x8
    9f8c:	000b0793          	mv	x15,x22
    9f90:	00178b13          	add	x22,x15,1
    9f94:	00179793          	sll	x15,x15,0x1
    9f98:	00fc87b3          	add	x15,x25,x15
    9f9c:	0007d983          	lhu	x19,0(x15)
    9fa0:	04098e63          	beqz	x19,9ffc <follow_path+0x270>
    9fa4:	02000793          	li	x15,32
    9fa8:	fcf98ee3          	beq	x19,x15,9f84 <follow_path+0x1f8>
    9fac:	02e00793          	li	x15,46
    9fb0:	fcf988e3          	beq	x19,x15,9f80 <follow_path+0x1f4>
    9fb4:	00012783          	lw	x15,0(x2)
    9fb8:	03b7f663          	bgeu	x15,x27,9fe4 <follow_path+0x258>
    9fbc:	389b0c63          	beq	x22,x9,a354 <follow_path+0x5c8>
    9fc0:	07f00793          	li	x15,127
    9fc4:	1337e663          	bltu	x15,x19,a0f0 <follow_path+0x364>
    9fc8:	00098593          	mv	x11,x19
    9fcc:	00012537          	lui	x10,0x12
    9fd0:	8e850513          	add	x10,x10,-1816 # 118e8 <__clzsi2+0xcfc>
    9fd4:	a69fa0ef          	jal	4a3c <strchr>
    9fd8:	1c050663          	beqz	x10,a1a4 <follow_path+0x418>
    9fdc:	00812623          	sw	x8,12(x2)
    9fe0:	14c0006f          	j	a12c <follow_path+0x3a0>
    9fe4:	00b00793          	li	x15,11
    9fe8:	0efd8263          	beq	x27,x15,a0cc <follow_path+0x340>
    9fec:	369b0863          	beq	x22,x9,a35c <follow_path+0x5d0>
    9ff0:	00346413          	or	x8,x8,3
    9ff4:	0ff47413          	zext.b	x8,x8
    9ff8:	3764f263          	bgeu	x9,x22,a35c <follow_path+0x5d0>
    9ffc:	040bc703          	lbu	x14,64(x23)
    a000:	0e500793          	li	x15,229
    a004:	0ef70063          	beq	x14,x15,a0e4 <follow_path+0x358>
    a008:	00800793          	li	x15,8
    a00c:	20fd8463          	beq	x27,x15,a214 <follow_path+0x488>
    a010:	00812683          	lw	x13,8(x2)
    a014:	00c6f793          	and	x15,x13,12
    a018:	00c00713          	li	x14,12
    a01c:	00e78863          	beq	x15,x14,a02c <follow_path+0x2a0>
    a020:	0036f793          	and	x15,x13,3
    a024:	00300713          	li	x14,3
    a028:	00e79663          	bne	x15,x14,a034 <follow_path+0x2a8>
    a02c:	00246413          	or	x8,x8,2
    a030:	0ff47413          	zext.b	x8,x8
    a034:	00247793          	and	x15,x8,2
    a038:	02079263          	bnez	x15,a05c <follow_path+0x2d0>
    a03c:	00812703          	lw	x14,8(x2)
    a040:	00177793          	and	x15,x14,1
    a044:	00479793          	sll	x15,x15,0x4
    a048:	00f467b3          	or	x15,x8,x15
    a04c:	0ff7f413          	zext.b	x8,x15
    a050:	00477793          	and	x15,x14,4
    a054:	00078463          	beqz	x15,a05c <follow_path+0x2d0>
    a058:	00846413          	or	x8,x8,8
    a05c:	048b85a3          	sb	x8,75(x23)
    a060:	000b8513          	mv	x10,x23
    a064:	8dcff0ef          	jal	9140 <dir_find>
    a068:	04bbc783          	lbu	x15,75(x23)
    a06c:	1c051463          	bnez	x10,a234 <follow_path+0x4a8>
    a070:	0047f793          	and	x15,x15,4
    a074:	34079063          	bnez	x15,a3b4 <follow_path+0x628>
    a078:	006bc783          	lbu	x15,6(x23)
    a07c:	0107f793          	and	x15,x15,16
    a080:	28078063          	beqz	x15,a300 <follow_path+0x574>
    a084:	00412783          	lw	x15,4(x2)
    a088:	0007c703          	lbu	x14,0(x15)
    a08c:	00400793          	li	x15,4
    a090:	20f70663          	beq	x14,x15,a29c <follow_path+0x510>
    a094:	00412503          	lw	x10,4(x2)
    a098:	03c50593          	add	x11,x10,60
    a09c:	030ba783          	lw	x15,48(x23)
    a0a0:	1ff7f793          	and	x15,x15,511
    a0a4:	00f585b3          	add	x11,x11,x15
    a0a8:	c9dff0ef          	jal	9d44 <ld_clust>
    a0ac:	00aba423          	sw	x10,8(x23)
    a0b0:	000ba783          	lw	x15,0(x23)
    a0b4:	00c7ac83          	lw	x25,12(x15)
    a0b8:	000c8993          	mv	x19,x25
    a0bc:	00000493          	li	x9,0
    a0c0:	07f00b13          	li	x22,127
    a0c4:	0ff00d93          	li	x27,255
    a0c8:	da9ff06f          	j	9e70 <follow_path+0xe4>
    a0cc:	00346413          	or	x8,x8,3
    a0d0:	0ff47413          	zext.b	x8,x8
    a0d4:	040bc703          	lbu	x14,64(x23)
    a0d8:	0e500793          	li	x15,229
    a0dc:	f2f71ae3          	bne	x14,x15,a010 <follow_path+0x284>
    a0e0:	00b00d93          	li	x27,11
    a0e4:	00500793          	li	x15,5
    a0e8:	04fb8023          	sb	x15,64(x23)
    a0ec:	f1dff06f          	j	a008 <follow_path+0x27c>
    a0f0:	00246793          	or	x15,x8,2
    a0f4:	0ff7f793          	zext.b	x15,x15
    a0f8:	00f12623          	sw	x15,12(x2)
    a0fc:	1b500593          	li	x11,437
    a100:	00098513          	mv	x10,x19
    a104:	504030ef          	jal	d608 <ff_uni2oem>
    a108:	00050993          	mv	x19,x10
    a10c:	08057793          	and	x15,x10,128
    a110:	04078463          	beqz	x15,a158 <follow_path+0x3cc>
    a114:	07f57993          	and	x19,x10,127
    a118:	000127b7          	lui	x15,0x12
    a11c:	a6478793          	add	x15,x15,-1436 # 11a64 <LfnOfs>
    a120:	013787b3          	add	x15,x15,x19
    a124:	0107c983          	lbu	x19,16(x15)
    a128:	06099a63          	bnez	x19,a19c <follow_path+0x410>
    a12c:	00c12783          	lw	x15,12(x2)
    a130:	0037e793          	or	x15,x15,3
    a134:	0ff7f413          	zext.b	x8,x15
    a138:	00012783          	lw	x15,0(x2)
    a13c:	05f00993          	li	x19,95
    a140:	00178713          	add	x14,x15,1
    a144:	00e12023          	sw	x14,0(x2)
    a148:	00fb87b3          	add	x15,x23,x15
    a14c:	05378023          	sb	x19,64(x15)
    a150:	000b0793          	mv	x15,x22
    a154:	e3dff06f          	j	9f90 <follow_path+0x204>
    a158:	0ff00793          	li	x15,255
    a15c:	fca7f6e3          	bgeu	x15,x10,a128 <follow_path+0x39c>
    a160:	fffd8793          	add	x15,x27,-1
    a164:	00012703          	lw	x14,0(x2)
    a168:	02f77063          	bgeu	x14,x15,a188 <follow_path+0x3fc>
    a16c:	00012703          	lw	x14,0(x2)
    a170:	00170793          	add	x15,x14,1
    a174:	00eb8733          	add	x14,x23,x14
    a178:	00855693          	srl	x13,x10,0x8
    a17c:	04d70023          	sb	x13,64(x14)
    a180:	00c12403          	lw	x8,12(x2)
    a184:	fbdff06f          	j	a140 <follow_path+0x3b4>
    a188:	00346413          	or	x8,x8,3
    a18c:	0ff47413          	zext.b	x8,x8
    a190:	000b0793          	mv	x15,x22
    a194:	01b12023          	sw	x27,0(x2)
    a198:	df9ff06f          	j	9f90 <follow_path+0x204>
    a19c:	00c12403          	lw	x8,12(x2)
    a1a0:	e29ff06f          	j	9fc8 <follow_path+0x23c>
    a1a4:	fbf98793          	add	x15,x19,-65
    a1a8:	01079793          	sll	x15,x15,0x10
    a1ac:	0107d793          	srl	x15,x15,0x10
    a1b0:	01900713          	li	x14,25
    a1b4:	00f76c63          	bltu	x14,x15,a1cc <follow_path+0x440>
    a1b8:	00812783          	lw	x15,8(x2)
    a1bc:	0027e793          	or	x15,x15,2
    a1c0:	00f12423          	sw	x15,8(x2)
    a1c4:	00012783          	lw	x15,0(x2)
    a1c8:	f79ff06f          	j	a140 <follow_path+0x3b4>
    a1cc:	f9f98793          	add	x15,x19,-97
    a1d0:	01079793          	sll	x15,x15,0x10
    a1d4:	0107d793          	srl	x15,x15,0x10
    a1d8:	01900713          	li	x14,25
    a1dc:	02f76263          	bltu	x14,x15,a200 <follow_path+0x474>
    a1e0:	00812783          	lw	x15,8(x2)
    a1e4:	0017e793          	or	x15,x15,1
    a1e8:	00f12423          	sw	x15,8(x2)
    a1ec:	fe098993          	add	x19,x19,-32
    a1f0:	01099993          	sll	x19,x19,0x10
    a1f4:	0109d993          	srl	x19,x19,0x10
    a1f8:	00012783          	lw	x15,0(x2)
    a1fc:	f45ff06f          	j	a140 <follow_path+0x3b4>
    a200:	00012783          	lw	x15,0(x2)
    a204:	f3dff06f          	j	a140 <follow_path+0x3b4>
    a208:	00012423          	sw	x0,8(x2)
    a20c:	00800d93          	li	x27,8
    a210:	ed5ff06f          	j	a0e4 <follow_path+0x358>
    a214:	00812783          	lw	x15,8(x2)
    a218:	00279793          	sll	x15,x15,0x2
    a21c:	0ff7f713          	zext.b	x14,x15
    a220:	00e12423          	sw	x14,8(x2)
    a224:	00c7f793          	and	x15,x15,12
    a228:	00c00713          	li	x14,12
    a22c:	e0e794e3          	bne	x15,x14,a034 <follow_path+0x2a8>
    a230:	dfdff06f          	j	a02c <follow_path+0x2a0>
    a234:	00400713          	li	x14,4
    a238:	02e50863          	beq	x10,x14,a268 <follow_path+0x4dc>
    a23c:	04812403          	lw	x8,72(x2)
    a240:	04412483          	lw	x9,68(x2)
    a244:	03c12983          	lw	x19,60(x2)
    a248:	03812a03          	lw	x20,56(x2)
    a24c:	03412a83          	lw	x21,52(x2)
    a250:	03012b03          	lw	x22,48(x2)
    a254:	02812c03          	lw	x24,40(x2)
    a258:	02412c83          	lw	x25,36(x2)
    a25c:	02012d03          	lw	x26,32(x2)
    a260:	01c12d83          	lw	x27,28(x2)
    a264:	bc9ff06f          	j	9e2c <follow_path+0xa0>
    a268:	0047f793          	and	x15,x15,4
    a26c:	06078263          	beqz	x15,a2d0 <follow_path+0x544>
    a270:	04812403          	lw	x8,72(x2)
    a274:	04412483          	lw	x9,68(x2)
    a278:	03c12983          	lw	x19,60(x2)
    a27c:	03812a03          	lw	x20,56(x2)
    a280:	03412a83          	lw	x21,52(x2)
    a284:	03012b03          	lw	x22,48(x2)
    a288:	02812c03          	lw	x24,40(x2)
    a28c:	02412c83          	lw	x25,36(x2)
    a290:	02012d03          	lw	x26,32(x2)
    a294:	01c12d83          	lw	x27,28(x2)
    a298:	b95ff06f          	j	9e2c <follow_path+0xa0>
    a29c:	008ba783          	lw	x15,8(x23)
    a2a0:	02fba023          	sw	x15,32(x23)
    a2a4:	010ba783          	lw	x15,16(x23)
    a2a8:	f007f793          	and	x15,x15,-256
    a2ac:	007bc703          	lbu	x14,7(x23)
    a2b0:	00e7e7b3          	or	x15,x15,x14
    a2b4:	02fba223          	sw	x15,36(x23)
    a2b8:	04cba783          	lw	x15,76(x23)
    a2bc:	02fba423          	sw	x15,40(x23)
    a2c0:	000b8593          	mv	x11,x23
    a2c4:	00412503          	lw	x10,4(x2)
    a2c8:	821fb0ef          	jal	5ae8 <init_alloc_info>
    a2cc:	de5ff06f          	j	a0b0 <follow_path+0x324>
    a2d0:	00500513          	li	x10,5
    a2d4:	04812403          	lw	x8,72(x2)
    a2d8:	04412483          	lw	x9,68(x2)
    a2dc:	03c12983          	lw	x19,60(x2)
    a2e0:	03812a03          	lw	x20,56(x2)
    a2e4:	03412a83          	lw	x21,52(x2)
    a2e8:	03012b03          	lw	x22,48(x2)
    a2ec:	02812c03          	lw	x24,40(x2)
    a2f0:	02412c83          	lw	x25,36(x2)
    a2f4:	02012d03          	lw	x26,32(x2)
    a2f8:	01c12d83          	lw	x27,28(x2)
    a2fc:	b31ff06f          	j	9e2c <follow_path+0xa0>
    a300:	00500513          	li	x10,5
    a304:	04812403          	lw	x8,72(x2)
    a308:	04412483          	lw	x9,68(x2)
    a30c:	03c12983          	lw	x19,60(x2)
    a310:	03812a03          	lw	x20,56(x2)
    a314:	03412a83          	lw	x21,52(x2)
    a318:	03012b03          	lw	x22,48(x2)
    a31c:	02812c03          	lw	x24,40(x2)
    a320:	02412c83          	lw	x25,36(x2)
    a324:	02012d03          	lw	x26,32(x2)
    a328:	01c12d83          	lw	x27,28(x2)
    a32c:	b01ff06f          	j	9e2c <follow_path+0xa0>
    a330:	040bc703          	lbu	x14,64(x23)
    a334:	0e500793          	li	x15,229
    a338:	ecf708e3          	beq	x14,x15,a208 <follow_path+0x47c>
    a33c:	00012423          	sw	x0,8(x2)
    a340:	cf5ff06f          	j	a034 <follow_path+0x2a8>
    a344:	00149793          	sll	x15,x9,0x1
    a348:	00fc87b3          	add	x15,x25,x15
    a34c:	00079023          	sh	x0,0(x15)
    a350:	0340006f          	j	a384 <follow_path+0x5f8>
    a354:	00b00793          	li	x15,11
    a358:	d6fd8ae3          	beq	x27,x15,a0cc <follow_path+0x340>
    a35c:	00812783          	lw	x15,8(x2)
    a360:	00279793          	sll	x15,x15,0x2
    a364:	0ff7f793          	zext.b	x15,x15
    a368:	00f12423          	sw	x15,8(x2)
    a36c:	00048793          	mv	x15,x9
    a370:	00b00d93          	li	x27,11
    a374:	00800713          	li	x14,8
    a378:	00e12023          	sw	x14,0(x2)
    a37c:	c15ff06f          	j	9f90 <follow_path+0x204>
    a380:	000c9023          	sh	x0,0(x25)
    a384:	00600513          	li	x10,6
    a388:	04812403          	lw	x8,72(x2)
    a38c:	04412483          	lw	x9,68(x2)
    a390:	03c12983          	lw	x19,60(x2)
    a394:	03812a03          	lw	x20,56(x2)
    a398:	03412a83          	lw	x21,52(x2)
    a39c:	03012b03          	lw	x22,48(x2)
    a3a0:	02812c03          	lw	x24,40(x2)
    a3a4:	02412c83          	lw	x25,36(x2)
    a3a8:	02012d03          	lw	x26,32(x2)
    a3ac:	01c12d83          	lw	x27,28(x2)
    a3b0:	a7dff06f          	j	9e2c <follow_path+0xa0>
    a3b4:	04812403          	lw	x8,72(x2)
    a3b8:	04412483          	lw	x9,68(x2)
    a3bc:	03c12983          	lw	x19,60(x2)
    a3c0:	03812a03          	lw	x20,56(x2)
    a3c4:	03412a83          	lw	x21,52(x2)
    a3c8:	03012b03          	lw	x22,48(x2)
    a3cc:	02812c03          	lw	x24,40(x2)
    a3d0:	02412c83          	lw	x25,36(x2)
    a3d4:	02012d03          	lw	x26,32(x2)
    a3d8:	01c12d83          	lw	x27,28(x2)
    a3dc:	a51ff06f          	j	9e2c <follow_path+0xa0>

0000a3e0 <f_mount>:
    a3e0:	fd010113          	add	x2,x2,-48
    a3e4:	02112623          	sw	x1,44(x2)
    a3e8:	02812423          	sw	x8,40(x2)
    a3ec:	00a12623          	sw	x10,12(x2)
    a3f0:	00b12423          	sw	x11,8(x2)
    a3f4:	00060413          	mv	x8,x12
    a3f8:	00b12e23          	sw	x11,28(x2)
    a3fc:	01c10513          	add	x10,x2,28
    a400:	f4cfb0ef          	jal	5b4c <get_ldnumber>
    a404:	08054263          	bltz	x10,a488 <f_mount+0xa8>
    a408:	00251793          	sll	x15,x10,0x2
    a40c:	0001d737          	lui	x14,0x1d
    a410:	eec70713          	add	x14,x14,-276 # 1ceec <FatFs>
    a414:	00e787b3          	add	x15,x15,x14
    a418:	0007a683          	lw	x13,0(x15)
    a41c:	00068e63          	beqz	x13,a438 <f_mount+0x58>
    a420:	00251793          	sll	x15,x10,0x2
    a424:	0001d737          	lui	x14,0x1d
    a428:	eec70713          	add	x14,x14,-276 # 1ceec <FatFs>
    a42c:	00e787b3          	add	x15,x15,x14
    a430:	0007a023          	sw	x0,0(x15)
    a434:	00068023          	sb	x0,0(x13)
    a438:	00c12783          	lw	x15,12(x2)
    a43c:	02078063          	beqz	x15,a45c <f_mount+0x7c>
    a440:	00a780a3          	sb	x10,1(x15)
    a444:	00078023          	sb	x0,0(x15)
    a448:	00251513          	sll	x10,x10,0x2
    a44c:	0001d737          	lui	x14,0x1d
    a450:	eec70713          	add	x14,x14,-276 # 1ceec <FatFs>
    a454:	00e50533          	add	x10,x10,x14
    a458:	00f52023          	sw	x15,0(x10)
    a45c:	00000513          	li	x10,0
    a460:	00041a63          	bnez	x8,a474 <f_mount+0x94>
    a464:	02c12083          	lw	x1,44(x2)
    a468:	02812403          	lw	x8,40(x2)
    a46c:	03010113          	add	x2,x2,48
    a470:	00008067          	ret
    a474:	00000613          	li	x12,0
    a478:	00c10593          	add	x11,x2,12
    a47c:	00810513          	add	x10,x2,8
    a480:	f45fd0ef          	jal	83c4 <mount_volume>
    a484:	fe1ff06f          	j	a464 <f_mount+0x84>
    a488:	00b00513          	li	x10,11
    a48c:	fd9ff06f          	j	a464 <f_mount+0x84>

0000a490 <f_open>:
    a490:	f6010113          	add	x2,x2,-160
    a494:	08112e23          	sw	x1,156(x2)
    a498:	08912a23          	sw	x9,148(x2)
    a49c:	00b12623          	sw	x11,12(x2)
    a4a0:	42050463          	beqz	x10,a8c8 <f_open+0x438>
    a4a4:	08812c23          	sw	x8,152(x2)
    a4a8:	09212823          	sw	x18,144(x2)
    a4ac:	09412423          	sw	x20,136(x2)
    a4b0:	00050413          	mv	x8,x10
    a4b4:	00060913          	mv	x18,x12
    a4b8:	03f67a13          	and	x20,x12,63
    a4bc:	000a0613          	mv	x12,x20
    a4c0:	01c10593          	add	x11,x2,28
    a4c4:	00c10513          	add	x10,x2,12
    a4c8:	efdfd0ef          	jal	83c4 <mount_volume>
    a4cc:	00050493          	mv	x9,x10
    a4d0:	02050463          	beqz	x10,a4f8 <f_open+0x68>
    a4d4:	00042023          	sw	x0,0(x8)
    a4d8:	09812403          	lw	x8,152(x2)
    a4dc:	09012903          	lw	x18,144(x2)
    a4e0:	08812a03          	lw	x20,136(x2)
    a4e4:	00048513          	mv	x10,x9
    a4e8:	09c12083          	lw	x1,156(x2)
    a4ec:	09412483          	lw	x9,148(x2)
    a4f0:	0a010113          	add	x2,x2,160
    a4f4:	00008067          	ret
    a4f8:	09312623          	sw	x19,140(x2)
    a4fc:	01c12983          	lw	x19,28(x2)
    a500:	03312023          	sw	x19,32(x2)
    a504:	00c12583          	lw	x11,12(x2)
    a508:	02010513          	add	x10,x2,32
    a50c:	881ff0ef          	jal	9d8c <follow_path>
    a510:	46051263          	bnez	x10,a974 <f_open+0x4e4>
    a514:	06b10783          	lb	x15,107(x2)
    a518:	4407c863          	bltz	x15,a968 <f_open+0x4d8>
    a51c:	01c97793          	and	x15,x18,28
    a520:	1a079463          	bnez	x15,a6c8 <f_open+0x238>
    a524:	02614783          	lbu	x15,38(x2)
    a528:	0107f713          	and	x14,x15,16
    a52c:	38071863          	bnez	x14,a8bc <f_open+0x42c>
    a530:	00297913          	and	x18,x18,2
    a534:	2a090663          	beqz	x18,a7e0 <f_open+0x350>
    a538:	0017f793          	and	x15,x15,1
    a53c:	34079e63          	bnez	x15,a898 <f_open+0x408>
    a540:	07812c23          	sw	x24,120(x2)
    a544:	0bc0006f          	j	a600 <f_open+0x170>
    a548:	00400793          	li	x15,4
    a54c:	42f51e63          	bne	x10,x15,a988 <f_open+0x4f8>
    a550:	02010513          	add	x10,x2,32
    a554:	83cff0ef          	jal	9590 <dir_register>
    a558:	30051e63          	bnez	x10,a874 <f_open+0x3e4>
    a55c:	008a6a13          	or	x20,x20,8
    a560:	008a7793          	and	x15,x20,8
    a564:	26078a63          	beqz	x15,a7d8 <f_open+0x348>
    a568:	0009c703          	lbu	x14,0(x19)
    a56c:	00400793          	li	x15,4
    a570:	16f70c63          	beq	x14,x15,a6e8 <f_open+0x258>
    a574:	09512223          	sw	x21,132(x2)
    a578:	05c12783          	lw	x15,92(x2)
    a57c:	00078723          	sb	x0,14(x15)
    a580:	000787a3          	sb	x0,15(x15)
    a584:	03500693          	li	x13,53
    a588:	00d78823          	sb	x13,16(x15)
    a58c:	05800713          	li	x14,88
    a590:	00e788a3          	sb	x14,17(x15)
    a594:	05c12783          	lw	x15,92(x2)
    a598:	00078b23          	sb	x0,22(x15)
    a59c:	00078ba3          	sb	x0,23(x15)
    a5a0:	00d78c23          	sb	x13,24(x15)
    a5a4:	00e78ca3          	sb	x14,25(x15)
    a5a8:	05c12a83          	lw	x21,92(x2)
    a5ac:	000a8593          	mv	x11,x21
    a5b0:	00098513          	mv	x10,x19
    a5b4:	f90ff0ef          	jal	9d44 <ld_clust>
    a5b8:	00050913          	mv	x18,x10
    a5bc:	02000793          	li	x15,32
    a5c0:	00fa85a3          	sb	x15,11(x21)
    a5c4:	00000613          	li	x12,0
    a5c8:	05c12583          	lw	x11,92(x2)
    a5cc:	00098513          	mv	x10,x19
    a5d0:	ae0fc0ef          	jal	68b0 <st_clust>
    a5d4:	05c12783          	lw	x15,92(x2)
    a5d8:	00078e23          	sb	x0,28(x15)
    a5dc:	00078ea3          	sb	x0,29(x15)
    a5e0:	00078f23          	sb	x0,30(x15)
    a5e4:	00078fa3          	sb	x0,31(x15)
    a5e8:	00100793          	li	x15,1
    a5ec:	00f98223          	sb	x15,4(x19)
    a5f0:	18091a63          	bnez	x18,a784 <f_open+0x2f4>
    a5f4:	08412a83          	lw	x21,132(x2)
    a5f8:	07812c23          	sw	x24,120(x2)
    a5fc:	040a6a13          	or	x20,x20,64
    a600:	0389a783          	lw	x15,56(x19)
    a604:	04f42423          	sw	x15,72(x8)
    a608:	05c12903          	lw	x18,92(x2)
    a60c:	05242623          	sw	x18,76(x8)
    a610:	0009c703          	lbu	x14,0(x19)
    a614:	00400793          	li	x15,4
    a618:	1cf70863          	beq	x14,x15,a7e8 <f_open+0x358>
    a61c:	00090593          	mv	x11,x18
    a620:	00098513          	mv	x10,x19
    a624:	f20ff0ef          	jal	9d44 <ld_clust>
    a628:	00a42423          	sw	x10,8(x8)
    a62c:	01c90513          	add	x10,x18,28
    a630:	b00fb0ef          	jal	5930 <ld_dword>
    a634:	00a42823          	sw	x10,16(x8)
    a638:	00042a23          	sw	x0,20(x8)
    a63c:	01342023          	sw	x19,0(x8)
    a640:	0069d783          	lhu	x15,6(x19)
    a644:	00f41223          	sh	x15,4(x8)
    a648:	03440823          	sb	x20,48(x8)
    a64c:	020408a3          	sb	x0,49(x8)
    a650:	04042223          	sw	x0,68(x8)
    a654:	00000793          	li	x15,0
    a658:	00000813          	li	x16,0
    a65c:	02f42c23          	sw	x15,56(x8)
    a660:	03042e23          	sw	x16,60(x8)
    a664:	05040c13          	add	x24,x8,80
    a668:	20000613          	li	x12,512
    a66c:	00000593          	li	x11,0
    a670:	000c0513          	mv	x10,x24
    a674:	904fa0ef          	jal	4778 <memset>
    a678:	020a7a13          	and	x20,x20,32
    a67c:	300a0c63          	beqz	x20,a994 <f_open+0x504>
    a680:	01042a03          	lw	x20,16(x8)
    a684:	01442903          	lw	x18,20(x8)
    a688:	012a67b3          	or	x15,x20,x18
    a68c:	32078063          	beqz	x15,a9ac <f_open+0x51c>
    a690:	09512223          	sw	x21,132(x2)
    a694:	07712e23          	sw	x23,124(x2)
    a698:	03442c23          	sw	x20,56(x8)
    a69c:	03242e23          	sw	x18,60(x8)
    a6a0:	00842583          	lw	x11,8(x8)
    a6a4:	00a9da83          	lhu	x21,10(x19)
    a6a8:	009a9a93          	sll	x21,x21,0x9
    a6ac:	00000b93          	li	x23,0
    a6b0:	16090663          	beqz	x18,a81c <f_open+0x38c>
    a6b4:	09612023          	sw	x22,128(x2)
    a6b8:	07912a23          	sw	x25,116(x2)
    a6bc:	00100b13          	li	x22,1
    a6c0:	fff00c93          	li	x25,-1
    a6c4:	2440006f          	j	a908 <f_open+0x478>
    a6c8:	02614783          	lbu	x15,38(x2)
    a6cc:	0117f793          	and	x15,x15,17
    a6d0:	1a079863          	bnez	x15,a880 <f_open+0x3f0>
    a6d4:	00497913          	and	x18,x18,4
    a6d8:	e80904e3          	beqz	x18,a560 <f_open+0xd0>
    a6dc:	00800493          	li	x9,8
    a6e0:	08c12983          	lw	x19,140(x2)
    a6e4:	df1ff06f          	j	a4d4 <f_open+0x44>
    a6e8:	01342023          	sw	x19,0(x8)
    a6ec:	00040593          	mv	x11,x8
    a6f0:	00098513          	mv	x10,x19
    a6f4:	bf4fb0ef          	jal	5ae8 <init_alloc_info>
    a6f8:	0109a503          	lw	x10,16(x19)
    a6fc:	01e00613          	li	x12,30
    a700:	00000593          	li	x11,0
    a704:	00250513          	add	x10,x10,2
    a708:	870fa0ef          	jal	4778 <memset>
    a70c:	0109a503          	lw	x10,16(x19)
    a710:	01a00613          	li	x12,26
    a714:	00000593          	li	x11,0
    a718:	02650513          	add	x10,x10,38
    a71c:	85cfa0ef          	jal	4778 <memset>
    a720:	0109a783          	lw	x15,16(x19)
    a724:	02000713          	li	x14,32
    a728:	00e78223          	sb	x14,4(x15)
    a72c:	0109a783          	lw	x15,16(x19)
    a730:	00078423          	sb	x0,8(x15)
    a734:	000784a3          	sb	x0,9(x15)
    a738:	03500713          	li	x14,53
    a73c:	00e78523          	sb	x14,10(x15)
    a740:	05800713          	li	x14,88
    a744:	00e785a3          	sb	x14,11(x15)
    a748:	0109a783          	lw	x15,16(x19)
    a74c:	00100713          	li	x14,1
    a750:	02e780a3          	sb	x14,33(x15)
    a754:	02010513          	add	x10,x2,32
    a758:	955fd0ef          	jal	80ac <store_xdir>
    a75c:	12051863          	bnez	x10,a88c <f_open+0x3fc>
    a760:	00842583          	lw	x11,8(x8)
    a764:	e8058ae3          	beqz	x11,a5f8 <f_open+0x168>
    a768:	00000613          	li	x12,0
    a76c:	00040513          	mv	x10,x8
    a770:	f29fc0ef          	jal	7698 <remove_chain>
    a774:	00050793          	mv	x15,x10
    a778:	00842903          	lw	x18,8(x8)
    a77c:	fff90913          	add	x18,x18,-1
    a780:	0440006f          	j	a7c4 <f_open+0x334>
    a784:	0389aa83          	lw	x21,56(x19)
    a788:	00000613          	li	x12,0
    a78c:	00090593          	mv	x11,x18
    a790:	02010513          	add	x10,x2,32
    a794:	f05fc0ef          	jal	7698 <remove_chain>
    a798:	00050a63          	beqz	x10,a7ac <f_open+0x31c>
    a79c:	00050493          	mv	x9,x10
    a7a0:	08c12983          	lw	x19,140(x2)
    a7a4:	08412a83          	lw	x21,132(x2)
    a7a8:	d2dff06f          	j	a4d4 <f_open+0x44>
    a7ac:	000a8593          	mv	x11,x21
    a7b0:	00098513          	mv	x10,x19
    a7b4:	879fb0ef          	jal	602c <move_window>
    a7b8:	00050793          	mv	x15,x10
    a7bc:	fff90913          	add	x18,x18,-1
    a7c0:	08412a83          	lw	x21,132(x2)
    a7c4:	0129aa23          	sw	x18,20(x19)
    a7c8:	e20788e3          	beqz	x15,a5f8 <f_open+0x168>
    a7cc:	00078493          	mv	x9,x15
    a7d0:	08c12983          	lw	x19,140(x2)
    a7d4:	d01ff06f          	j	a4d4 <f_open+0x44>
    a7d8:	07812c23          	sw	x24,120(x2)
    a7dc:	e25ff06f          	j	a600 <f_open+0x170>
    a7e0:	07812c23          	sw	x24,120(x2)
    a7e4:	e1dff06f          	j	a600 <f_open+0x170>
    a7e8:	02812783          	lw	x15,40(x2)
    a7ec:	02f42023          	sw	x15,32(x8)
    a7f0:	03012783          	lw	x15,48(x2)
    a7f4:	f007f793          	and	x15,x15,-256
    a7f8:	02714703          	lbu	x14,39(x2)
    a7fc:	00e7e7b3          	or	x15,x15,x14
    a800:	02f42223          	sw	x15,36(x8)
    a804:	06c12783          	lw	x15,108(x2)
    a808:	02f42423          	sw	x15,40(x8)
    a80c:	00040593          	mv	x11,x8
    a810:	00098513          	mv	x10,x19
    a814:	ad4fb0ef          	jal	5ae8 <init_alloc_info>
    a818:	e25ff06f          	j	a63c <f_open+0x1ac>
    a81c:	01791463          	bne	x18,x23,a824 <f_open+0x394>
    a820:	e94aeae3          	bltu	x21,x20,a6b4 <f_open+0x224>
    a824:	00058793          	mv	x15,x11
    a828:	1100006f          	j	a938 <f_open+0x4a8>
    a82c:	01791913          	sll	x18,x18,0x17
    a830:	009a5a13          	srl	x20,x20,0x9
    a834:	01496a33          	or	x20,x18,x20
    a838:	01450633          	add	x12,x10,x20
    a83c:	04c42223          	sw	x12,68(x8)
    a840:	00100693          	li	x13,1
    a844:	000c0593          	mv	x11,x24
    a848:	0019c503          	lbu	x10,1(x19)
    a84c:	82cfb0ef          	jal	5878 <disk_read>
    a850:	04051a63          	bnez	x10,a8a4 <f_open+0x414>
    a854:	09812403          	lw	x8,152(x2)
    a858:	09012903          	lw	x18,144(x2)
    a85c:	08c12983          	lw	x19,140(x2)
    a860:	08812a03          	lw	x20,136(x2)
    a864:	08412a83          	lw	x21,132(x2)
    a868:	07c12b83          	lw	x23,124(x2)
    a86c:	07812c03          	lw	x24,120(x2)
    a870:	c75ff06f          	j	a4e4 <f_open+0x54>
    a874:	00050493          	mv	x9,x10
    a878:	08c12983          	lw	x19,140(x2)
    a87c:	c59ff06f          	j	a4d4 <f_open+0x44>
    a880:	00700493          	li	x9,7
    a884:	08c12983          	lw	x19,140(x2)
    a888:	c4dff06f          	j	a4d4 <f_open+0x44>
    a88c:	00050493          	mv	x9,x10
    a890:	08c12983          	lw	x19,140(x2)
    a894:	c41ff06f          	j	a4d4 <f_open+0x44>
    a898:	00700493          	li	x9,7
    a89c:	08c12983          	lw	x19,140(x2)
    a8a0:	c35ff06f          	j	a4d4 <f_open+0x44>
    a8a4:	00100493          	li	x9,1
    a8a8:	08c12983          	lw	x19,140(x2)
    a8ac:	08412a83          	lw	x21,132(x2)
    a8b0:	07c12b83          	lw	x23,124(x2)
    a8b4:	07812c03          	lw	x24,120(x2)
    a8b8:	c1dff06f          	j	a4d4 <f_open+0x44>
    a8bc:	00400493          	li	x9,4
    a8c0:	08c12983          	lw	x19,140(x2)
    a8c4:	c11ff06f          	j	a4d4 <f_open+0x44>
    a8c8:	00900493          	li	x9,9
    a8cc:	c19ff06f          	j	a4e4 <f_open+0x54>
    a8d0:	00200493          	li	x9,2
    a8d4:	04b42023          	sw	x11,64(x8)
    a8d8:	08c12983          	lw	x19,140(x2)
    a8dc:	08412a83          	lw	x21,132(x2)
    a8e0:	08012b03          	lw	x22,128(x2)
    a8e4:	07c12b83          	lw	x23,124(x2)
    a8e8:	07812c03          	lw	x24,120(x2)
    a8ec:	07412c83          	lw	x25,116(x2)
    a8f0:	be5ff06f          	j	a4d4 <f_open+0x44>
    a8f4:	415a07b3          	sub	x15,x20,x21
    a8f8:	00fa3733          	sltu	x14,x20,x15
    a8fc:	00078a13          	mv	x20,x15
    a900:	40e90933          	sub	x18,x18,x14
    a904:	032bf063          	bgeu	x23,x18,a924 <f_open+0x494>
    a908:	00040513          	mv	x10,x8
    a90c:	c70fc0ef          	jal	6d7c <get_fat>
    a910:	00050593          	mv	x11,x10
    a914:	faab7ee3          	bgeu	x22,x10,a8d0 <f_open+0x440>
    a918:	fd951ee3          	bne	x10,x25,a8f4 <f_open+0x464>
    a91c:	00100493          	li	x9,1
    a920:	fb5ff06f          	j	a8d4 <f_open+0x444>
    a924:	01791463          	bne	x18,x23,a92c <f_open+0x49c>
    a928:	fefae0e3          	bltu	x21,x15,a908 <f_open+0x478>
    a92c:	00058793          	mv	x15,x11
    a930:	08012b03          	lw	x22,128(x2)
    a934:	07412c83          	lw	x25,116(x2)
    a938:	04f42023          	sw	x15,64(x8)
    a93c:	1ffa7793          	and	x15,x20,511
    a940:	08078263          	beqz	x15,a9c4 <f_open+0x534>
    a944:	00098513          	mv	x10,x19
    a948:	8d4fb0ef          	jal	5a1c <clst2sect>
    a94c:	ee0510e3          	bnez	x10,a82c <f_open+0x39c>
    a950:	00200493          	li	x9,2
    a954:	08c12983          	lw	x19,140(x2)
    a958:	08412a83          	lw	x21,132(x2)
    a95c:	07c12b83          	lw	x23,124(x2)
    a960:	07812c03          	lw	x24,120(x2)
    a964:	b71ff06f          	j	a4d4 <f_open+0x44>
    a968:	00600493          	li	x9,6
    a96c:	08c12983          	lw	x19,140(x2)
    a970:	b65ff06f          	j	a4d4 <f_open+0x44>
    a974:	01c97913          	and	x18,x18,28
    a978:	bc0918e3          	bnez	x18,a548 <f_open+0xb8>
    a97c:	00050493          	mv	x9,x10
    a980:	08c12983          	lw	x19,140(x2)
    a984:	b51ff06f          	j	a4d4 <f_open+0x44>
    a988:	00050493          	mv	x9,x10
    a98c:	08c12983          	lw	x19,140(x2)
    a990:	b45ff06f          	j	a4d4 <f_open+0x44>
    a994:	09812403          	lw	x8,152(x2)
    a998:	09012903          	lw	x18,144(x2)
    a99c:	08c12983          	lw	x19,140(x2)
    a9a0:	08812a03          	lw	x20,136(x2)
    a9a4:	07812c03          	lw	x24,120(x2)
    a9a8:	b3dff06f          	j	a4e4 <f_open+0x54>
    a9ac:	09812403          	lw	x8,152(x2)
    a9b0:	09012903          	lw	x18,144(x2)
    a9b4:	08c12983          	lw	x19,140(x2)
    a9b8:	08812a03          	lw	x20,136(x2)
    a9bc:	07812c03          	lw	x24,120(x2)
    a9c0:	b25ff06f          	j	a4e4 <f_open+0x54>
    a9c4:	09812403          	lw	x8,152(x2)
    a9c8:	09012903          	lw	x18,144(x2)
    a9cc:	08c12983          	lw	x19,140(x2)
    a9d0:	08812a03          	lw	x20,136(x2)
    a9d4:	08412a83          	lw	x21,132(x2)
    a9d8:	07c12b83          	lw	x23,124(x2)
    a9dc:	07812c03          	lw	x24,120(x2)
    a9e0:	b05ff06f          	j	a4e4 <f_open+0x54>

0000a9e4 <f_read>:
    a9e4:	fb010113          	add	x2,x2,-80
    a9e8:	04112623          	sw	x1,76(x2)
    a9ec:	04812423          	sw	x8,72(x2)
    a9f0:	05212023          	sw	x18,64(x2)
    a9f4:	03512a23          	sw	x21,52(x2)
    a9f8:	03612823          	sw	x22,48(x2)
    a9fc:	00050413          	mv	x8,x10
    aa00:	00058a93          	mv	x21,x11
    aa04:	00060913          	mv	x18,x12
    aa08:	00068b13          	mv	x22,x13
    aa0c:	0006a023          	sw	x0,0(x13)
    aa10:	00c10593          	add	x11,x2,12
    aa14:	cb8fb0ef          	jal	5ecc <validate>
    aa18:	28051863          	bnez	x10,aca8 <f_read+0x2c4>
    aa1c:	03144503          	lbu	x10,49(x8)
    aa20:	28051463          	bnez	x10,aca8 <f_read+0x2c4>
    aa24:	03044783          	lbu	x15,48(x8)
    aa28:	0017f793          	and	x15,x15,1
    aa2c:	00700513          	li	x10,7
    aa30:	26078c63          	beqz	x15,aca8 <f_read+0x2c4>
    aa34:	01042703          	lw	x14,16(x8)
    aa38:	01442683          	lw	x13,20(x8)
    aa3c:	03842783          	lw	x15,56(x8)
    aa40:	03c42603          	lw	x12,60(x8)
    aa44:	40f707b3          	sub	x15,x14,x15
    aa48:	00f73733          	sltu	x14,x14,x15
    aa4c:	40c686b3          	sub	x13,x13,x12
    aa50:	00e69663          	bne	x13,x14,aa5c <f_read+0x78>
    aa54:	0127f463          	bgeu	x15,x18,aa5c <f_read+0x78>
    aa58:	00078913          	mv	x18,x15
    aa5c:	30090a63          	beqz	x18,ad70 <f_read+0x38c>
    aa60:	04912223          	sw	x9,68(x2)
    aa64:	03312e23          	sw	x19,60(x2)
    aa68:	03412c23          	sw	x20,56(x2)
    aa6c:	03712623          	sw	x23,44(x2)
    aa70:	03812423          	sw	x24,40(x2)
    aa74:	03912223          	sw	x25,36(x2)
    aa78:	03a12023          	sw	x26,32(x2)
    aa7c:	01b12e23          	sw	x27,28(x2)
    aa80:	20000c93          	li	x25,512
    aa84:	05040c13          	add	x24,x8,80
    aa88:	1ff00d13          	li	x26,511
    aa8c:	00100d93          	li	x27,1
    aa90:	15c0006f          	j	abec <f_read+0x208>
    aa94:	04042583          	lw	x11,64(x8)
    aa98:	00040513          	mv	x10,x8
    aa9c:	ae0fc0ef          	jal	6d7c <get_fat>
    aaa0:	1880006f          	j	ac28 <f_read+0x244>
    aaa4:	00200793          	li	x15,2
    aaa8:	02f408a3          	sb	x15,49(x8)
    aaac:	00200513          	li	x10,2
    aab0:	04412483          	lw	x9,68(x2)
    aab4:	03c12983          	lw	x19,60(x2)
    aab8:	03812a03          	lw	x20,56(x2)
    aabc:	02c12b83          	lw	x23,44(x2)
    aac0:	02812c03          	lw	x24,40(x2)
    aac4:	02412c83          	lw	x25,36(x2)
    aac8:	02012d03          	lw	x26,32(x2)
    aacc:	01c12d83          	lw	x27,28(x2)
    aad0:	1d80006f          	j	aca8 <f_read+0x2c4>
    aad4:	00100793          	li	x15,1
    aad8:	02f408a3          	sb	x15,49(x8)
    aadc:	00100513          	li	x10,1
    aae0:	04412483          	lw	x9,68(x2)
    aae4:	03c12983          	lw	x19,60(x2)
    aae8:	03812a03          	lw	x20,56(x2)
    aaec:	02c12b83          	lw	x23,44(x2)
    aaf0:	02812c03          	lw	x24,40(x2)
    aaf4:	02412c83          	lw	x25,36(x2)
    aaf8:	02012d03          	lw	x26,32(x2)
    aafc:	01c12d83          	lw	x27,28(x2)
    ab00:	1a80006f          	j	aca8 <f_read+0x2c4>
    ab04:	00200793          	li	x15,2
    ab08:	02f408a3          	sb	x15,49(x8)
    ab0c:	00200513          	li	x10,2
    ab10:	04412483          	lw	x9,68(x2)
    ab14:	03c12983          	lw	x19,60(x2)
    ab18:	03812a03          	lw	x20,56(x2)
    ab1c:	02c12b83          	lw	x23,44(x2)
    ab20:	02812c03          	lw	x24,40(x2)
    ab24:	02412c83          	lw	x25,36(x2)
    ab28:	02012d03          	lw	x26,32(x2)
    ab2c:	01c12d83          	lw	x27,28(x2)
    ab30:	1780006f          	j	aca8 <f_read+0x2c4>
    ab34:	03040783          	lb	x15,48(x8)
    ab38:	0007c663          	bltz	x15,ab44 <f_read+0x160>
    ab3c:	00949493          	sll	x9,x9,0x9
    ab40:	0780006f          	j	abb8 <f_read+0x1d4>
    ab44:	04442503          	lw	x10,68(x8)
    ab48:	41350533          	sub	x10,x10,x19
    ab4c:	fe9578e3          	bgeu	x10,x9,ab3c <f_read+0x158>
    ab50:	00951513          	sll	x10,x10,0x9
    ab54:	20000613          	li	x12,512
    ab58:	05040593          	add	x11,x8,80
    ab5c:	00aa8533          	add	x10,x21,x10
    ab60:	b9df90ef          	jal	46fc <memcpy>
    ab64:	fd9ff06f          	j	ab3c <f_read+0x158>
    ab68:	04442603          	lw	x12,68(x8)
    ab6c:	03360263          	beq	x12,x19,ab90 <f_read+0x1ac>
    ab70:	03040783          	lb	x15,48(x8)
    ab74:	1407c863          	bltz	x15,acc4 <f_read+0x2e0>
    ab78:	00100693          	li	x13,1
    ab7c:	00098613          	mv	x12,x19
    ab80:	05040593          	add	x11,x8,80
    ab84:	001bc503          	lbu	x10,1(x23)
    ab88:	cf1fa0ef          	jal	5878 <disk_read>
    ab8c:	18051663          	bnez	x10,ad18 <f_read+0x334>
    ab90:	05342223          	sw	x19,68(x8)
    ab94:	03842583          	lw	x11,56(x8)
    ab98:	1ff5f593          	and	x11,x11,511
    ab9c:	40bc84b3          	sub	x9,x25,x11
    aba0:	00997463          	bgeu	x18,x9,aba8 <f_read+0x1c4>
    aba4:	00090493          	mv	x9,x18
    aba8:	00048613          	mv	x12,x9
    abac:	00bc05b3          	add	x11,x24,x11
    abb0:	000a8513          	mv	x10,x21
    abb4:	b49f90ef          	jal	46fc <memcpy>
    abb8:	40990933          	sub	x18,x18,x9
    abbc:	000b2783          	lw	x15,0(x22)
    abc0:	009787b3          	add	x15,x15,x9
    abc4:	00fb2023          	sw	x15,0(x22)
    abc8:	009a8ab3          	add	x21,x21,x9
    abcc:	03842783          	lw	x15,56(x8)
    abd0:	03c42703          	lw	x14,60(x8)
    abd4:	009784b3          	add	x9,x15,x9
    abd8:	00f4b7b3          	sltu	x15,x9,x15
    abdc:	00e787b3          	add	x15,x15,x14
    abe0:	02942c23          	sw	x9,56(x8)
    abe4:	02f42e23          	sw	x15,60(x8)
    abe8:	16090063          	beqz	x18,ad48 <f_read+0x364>
    abec:	03842783          	lw	x15,56(x8)
    abf0:	03c42603          	lw	x12,60(x8)
    abf4:	1ff7f713          	and	x14,x15,511
    abf8:	f8071ee3          	bnez	x14,ab94 <f_read+0x1b0>
    abfc:	00c12b83          	lw	x23,12(x2)
    ac00:	00abda03          	lhu	x20,10(x23)
    ac04:	fffa0a13          	add	x20,x20,-1
    ac08:	01761693          	sll	x13,x12,0x17
    ac0c:	0097d713          	srl	x14,x15,0x9
    ac10:	00e6e733          	or	x14,x13,x14
    ac14:	00ea7a33          	and	x20,x20,x14
    ac18:	020a1063          	bnez	x20,ac38 <f_read+0x254>
    ac1c:	00c7e7b3          	or	x15,x15,x12
    ac20:	e6079ae3          	bnez	x15,aa94 <f_read+0xb0>
    ac24:	00842503          	lw	x10,8(x8)
    ac28:	e6adfee3          	bgeu	x27,x10,aaa4 <f_read+0xc0>
    ac2c:	fff00793          	li	x15,-1
    ac30:	eaf502e3          	beq	x10,x15,aad4 <f_read+0xf0>
    ac34:	04a42023          	sw	x10,64(x8)
    ac38:	04042583          	lw	x11,64(x8)
    ac3c:	000b8513          	mv	x10,x23
    ac40:	dddfa0ef          	jal	5a1c <clst2sect>
    ac44:	ec0500e3          	beqz	x10,ab04 <f_read+0x120>
    ac48:	00aa09b3          	add	x19,x20,x10
    ac4c:	f12d7ee3          	bgeu	x26,x18,ab68 <f_read+0x184>
    ac50:	00995493          	srl	x9,x18,0x9
    ac54:	00abd783          	lhu	x15,10(x23)
    ac58:	009a0733          	add	x14,x20,x9
    ac5c:	00e7f463          	bgeu	x15,x14,ac64 <f_read+0x280>
    ac60:	414784b3          	sub	x9,x15,x20
    ac64:	00048693          	mv	x13,x9
    ac68:	00098613          	mv	x12,x19
    ac6c:	000a8593          	mv	x11,x21
    ac70:	001bc503          	lbu	x10,1(x23)
    ac74:	c05fa0ef          	jal	5878 <disk_read>
    ac78:	ea050ee3          	beqz	x10,ab34 <f_read+0x150>
    ac7c:	00100793          	li	x15,1
    ac80:	02f408a3          	sb	x15,49(x8)
    ac84:	00100513          	li	x10,1
    ac88:	04412483          	lw	x9,68(x2)
    ac8c:	03c12983          	lw	x19,60(x2)
    ac90:	03812a03          	lw	x20,56(x2)
    ac94:	02c12b83          	lw	x23,44(x2)
    ac98:	02812c03          	lw	x24,40(x2)
    ac9c:	02412c83          	lw	x25,36(x2)
    aca0:	02012d03          	lw	x26,32(x2)
    aca4:	01c12d83          	lw	x27,28(x2)
    aca8:	04c12083          	lw	x1,76(x2)
    acac:	04812403          	lw	x8,72(x2)
    acb0:	04012903          	lw	x18,64(x2)
    acb4:	03412a83          	lw	x21,52(x2)
    acb8:	03012b03          	lw	x22,48(x2)
    acbc:	05010113          	add	x2,x2,80
    acc0:	00008067          	ret
    acc4:	00100693          	li	x13,1
    acc8:	05040593          	add	x11,x8,80
    accc:	001bc503          	lbu	x10,1(x23)
    acd0:	bf1fa0ef          	jal	58c0 <disk_write>
    acd4:	00051a63          	bnez	x10,ace8 <f_read+0x304>
    acd8:	03044783          	lbu	x15,48(x8)
    acdc:	07f7f793          	and	x15,x15,127
    ace0:	02f40823          	sb	x15,48(x8)
    ace4:	e95ff06f          	j	ab78 <f_read+0x194>
    ace8:	00100793          	li	x15,1
    acec:	02f408a3          	sb	x15,49(x8)
    acf0:	00100513          	li	x10,1
    acf4:	04412483          	lw	x9,68(x2)
    acf8:	03c12983          	lw	x19,60(x2)
    acfc:	03812a03          	lw	x20,56(x2)
    ad00:	02c12b83          	lw	x23,44(x2)
    ad04:	02812c03          	lw	x24,40(x2)
    ad08:	02412c83          	lw	x25,36(x2)
    ad0c:	02012d03          	lw	x26,32(x2)
    ad10:	01c12d83          	lw	x27,28(x2)
    ad14:	f95ff06f          	j	aca8 <f_read+0x2c4>
    ad18:	00100793          	li	x15,1
    ad1c:	02f408a3          	sb	x15,49(x8)
    ad20:	00100513          	li	x10,1
    ad24:	04412483          	lw	x9,68(x2)
    ad28:	03c12983          	lw	x19,60(x2)
    ad2c:	03812a03          	lw	x20,56(x2)
    ad30:	02c12b83          	lw	x23,44(x2)
    ad34:	02812c03          	lw	x24,40(x2)
    ad38:	02412c83          	lw	x25,36(x2)
    ad3c:	02012d03          	lw	x26,32(x2)
    ad40:	01c12d83          	lw	x27,28(x2)
    ad44:	f65ff06f          	j	aca8 <f_read+0x2c4>
    ad48:	00090513          	mv	x10,x18
    ad4c:	04412483          	lw	x9,68(x2)
    ad50:	03c12983          	lw	x19,60(x2)
    ad54:	03812a03          	lw	x20,56(x2)
    ad58:	02c12b83          	lw	x23,44(x2)
    ad5c:	02812c03          	lw	x24,40(x2)
    ad60:	02412c83          	lw	x25,36(x2)
    ad64:	02012d03          	lw	x26,32(x2)
    ad68:	01c12d83          	lw	x27,28(x2)
    ad6c:	f3dff06f          	j	aca8 <f_read+0x2c4>
    ad70:	00090513          	mv	x10,x18
    ad74:	f35ff06f          	j	aca8 <f_read+0x2c4>

0000ad78 <f_write>:
    ad78:	fb010113          	add	x2,x2,-80
    ad7c:	04112623          	sw	x1,76(x2)
    ad80:	04812423          	sw	x8,72(x2)
    ad84:	05212023          	sw	x18,64(x2)
    ad88:	03512a23          	sw	x21,52(x2)
    ad8c:	03612823          	sw	x22,48(x2)
    ad90:	03712623          	sw	x23,44(x2)
    ad94:	00050413          	mv	x8,x10
    ad98:	00058a93          	mv	x21,x11
    ad9c:	00060913          	mv	x18,x12
    ada0:	00068b93          	mv	x23,x13
    ada4:	0006a023          	sw	x0,0(x13)
    ada8:	00c10593          	add	x11,x2,12
    adac:	920fb0ef          	jal	5ecc <validate>
    adb0:	00050b13          	mv	x22,x10
    adb4:	10051663          	bnez	x10,aec0 <f_write+0x148>
    adb8:	03144b03          	lbu	x22,49(x8)
    adbc:	100b1263          	bnez	x22,aec0 <f_write+0x148>
    adc0:	03044783          	lbu	x15,48(x8)
    adc4:	0027f793          	and	x15,x15,2
    adc8:	3a078a63          	beqz	x15,b17c <f_write+0x404>
    adcc:	03812423          	sw	x24,40(x2)
    add0:	00c12c03          	lw	x24,12(x2)
    add4:	000c4703          	lbu	x14,0(x24)
    add8:	00400793          	li	x15,4
    addc:	00f70a63          	beq	x14,x15,adf0 <f_write+0x78>
    ade0:	03842783          	lw	x15,56(x8)
    ade4:	01278733          	add	x14,x15,x18
    ade8:	00f77463          	bgeu	x14,x15,adf0 <f_write+0x78>
    adec:	fff7c913          	not	x18,x15
    adf0:	34090e63          	beqz	x18,b14c <f_write+0x3d4>
    adf4:	04912223          	sw	x9,68(x2)
    adf8:	03312e23          	sw	x19,60(x2)
    adfc:	03412c23          	sw	x20,56(x2)
    ae00:	03912223          	sw	x25,36(x2)
    ae04:	03a12023          	sw	x26,32(x2)
    ae08:	01b12e23          	sw	x27,28(x2)
    ae0c:	20000d13          	li	x26,512
    ae10:	05040c93          	add	x25,x8,80
    ae14:	1ff00d93          	li	x27,511
    ae18:	2800006f          	j	b098 <f_write+0x320>
    ae1c:	04042583          	lw	x11,64(x8)
    ae20:	00040513          	mv	x10,x8
    ae24:	bc4fc0ef          	jal	71e8 <create_chain>
    ae28:	32050c63          	beqz	x10,b160 <f_write+0x3e8>
    ae2c:	00100793          	li	x15,1
    ae30:	0af50a63          	beq	x10,x15,aee4 <f_write+0x16c>
    ae34:	fff00793          	li	x15,-1
    ae38:	0cf50c63          	beq	x10,x15,af10 <f_write+0x198>
    ae3c:	04a42023          	sw	x10,64(x8)
    ae40:	00842783          	lw	x15,8(x8)
    ae44:	00079463          	bnez	x15,ae4c <f_write+0xd4>
    ae48:	00a42423          	sw	x10,8(x8)
    ae4c:	03040783          	lb	x15,48(x8)
    ae50:	0e07c663          	bltz	x15,af3c <f_write+0x1c4>
    ae54:	04042583          	lw	x11,64(x8)
    ae58:	000c0513          	mv	x10,x24
    ae5c:	bc1fa0ef          	jal	5a1c <clst2sect>
    ae60:	12050863          	beqz	x10,af90 <f_write+0x218>
    ae64:	00a98a33          	add	x20,x19,x10
    ae68:	192df663          	bgeu	x27,x18,aff4 <f_write+0x27c>
    ae6c:	00995493          	srl	x9,x18,0x9
    ae70:	00ac5783          	lhu	x15,10(x24)
    ae74:	00998733          	add	x14,x19,x9
    ae78:	00e7f463          	bgeu	x15,x14,ae80 <f_write+0x108>
    ae7c:	413784b3          	sub	x9,x15,x19
    ae80:	00048693          	mv	x13,x9
    ae84:	000a0613          	mv	x12,x20
    ae88:	000a8593          	mv	x11,x21
    ae8c:	001c4503          	lbu	x10,1(x24)
    ae90:	a31fa0ef          	jal	58c0 <disk_write>
    ae94:	12050463          	beqz	x10,afbc <f_write+0x244>
    ae98:	00100793          	li	x15,1
    ae9c:	02f408a3          	sb	x15,49(x8)
    aea0:	00100b13          	li	x22,1
    aea4:	04412483          	lw	x9,68(x2)
    aea8:	03c12983          	lw	x19,60(x2)
    aeac:	03812a03          	lw	x20,56(x2)
    aeb0:	02812c03          	lw	x24,40(x2)
    aeb4:	02412c83          	lw	x25,36(x2)
    aeb8:	02012d03          	lw	x26,32(x2)
    aebc:	01c12d83          	lw	x27,28(x2)
    aec0:	000b0513          	mv	x10,x22
    aec4:	04c12083          	lw	x1,76(x2)
    aec8:	04812403          	lw	x8,72(x2)
    aecc:	04012903          	lw	x18,64(x2)
    aed0:	03412a83          	lw	x21,52(x2)
    aed4:	03012b03          	lw	x22,48(x2)
    aed8:	02c12b83          	lw	x23,44(x2)
    aedc:	05010113          	add	x2,x2,80
    aee0:	00008067          	ret
    aee4:	00200793          	li	x15,2
    aee8:	02f408a3          	sb	x15,49(x8)
    aeec:	00200b13          	li	x22,2
    aef0:	04412483          	lw	x9,68(x2)
    aef4:	03c12983          	lw	x19,60(x2)
    aef8:	03812a03          	lw	x20,56(x2)
    aefc:	02812c03          	lw	x24,40(x2)
    af00:	02412c83          	lw	x25,36(x2)
    af04:	02012d03          	lw	x26,32(x2)
    af08:	01c12d83          	lw	x27,28(x2)
    af0c:	fb5ff06f          	j	aec0 <f_write+0x148>
    af10:	00100793          	li	x15,1
    af14:	02f408a3          	sb	x15,49(x8)
    af18:	00100b13          	li	x22,1
    af1c:	04412483          	lw	x9,68(x2)
    af20:	03c12983          	lw	x19,60(x2)
    af24:	03812a03          	lw	x20,56(x2)
    af28:	02812c03          	lw	x24,40(x2)
    af2c:	02412c83          	lw	x25,36(x2)
    af30:	02012d03          	lw	x26,32(x2)
    af34:	01c12d83          	lw	x27,28(x2)
    af38:	f89ff06f          	j	aec0 <f_write+0x148>
    af3c:	00100693          	li	x13,1
    af40:	04442603          	lw	x12,68(x8)
    af44:	05040593          	add	x11,x8,80
    af48:	001c4503          	lbu	x10,1(x24)
    af4c:	975fa0ef          	jal	58c0 <disk_write>
    af50:	00051a63          	bnez	x10,af64 <f_write+0x1ec>
    af54:	03044783          	lbu	x15,48(x8)
    af58:	07f7f793          	and	x15,x15,127
    af5c:	02f40823          	sb	x15,48(x8)
    af60:	ef5ff06f          	j	ae54 <f_write+0xdc>
    af64:	00100793          	li	x15,1
    af68:	02f408a3          	sb	x15,49(x8)
    af6c:	00100b13          	li	x22,1
    af70:	04412483          	lw	x9,68(x2)
    af74:	03c12983          	lw	x19,60(x2)
    af78:	03812a03          	lw	x20,56(x2)
    af7c:	02812c03          	lw	x24,40(x2)
    af80:	02412c83          	lw	x25,36(x2)
    af84:	02012d03          	lw	x26,32(x2)
    af88:	01c12d83          	lw	x27,28(x2)
    af8c:	f35ff06f          	j	aec0 <f_write+0x148>
    af90:	00200793          	li	x15,2
    af94:	02f408a3          	sb	x15,49(x8)
    af98:	00200b13          	li	x22,2
    af9c:	04412483          	lw	x9,68(x2)
    afa0:	03c12983          	lw	x19,60(x2)
    afa4:	03812a03          	lw	x20,56(x2)
    afa8:	02812c03          	lw	x24,40(x2)
    afac:	02412c83          	lw	x25,36(x2)
    afb0:	02012d03          	lw	x26,32(x2)
    afb4:	01c12d83          	lw	x27,28(x2)
    afb8:	f09ff06f          	j	aec0 <f_write+0x148>
    afbc:	04442583          	lw	x11,68(x8)
    afc0:	414585b3          	sub	x11,x11,x20
    afc4:	0095e663          	bltu	x11,x9,afd0 <f_write+0x258>
    afc8:	00949493          	sll	x9,x9,0x9
    afcc:	0740006f          	j	b040 <f_write+0x2c8>
    afd0:	00959593          	sll	x11,x11,0x9
    afd4:	20000613          	li	x12,512
    afd8:	00ba85b3          	add	x11,x21,x11
    afdc:	05040513          	add	x10,x8,80
    afe0:	f1cf90ef          	jal	46fc <memcpy>
    afe4:	03044783          	lbu	x15,48(x8)
    afe8:	07f7f793          	and	x15,x15,127
    afec:	02f40823          	sb	x15,48(x8)
    aff0:	fd9ff06f          	j	afc8 <f_write+0x250>
    aff4:	04442783          	lw	x15,68(x8)
    aff8:	01478a63          	beq	x15,x20,b00c <f_write+0x294>
    affc:	01442703          	lw	x14,20(x8)
    b000:	03c42783          	lw	x15,60(x8)
    b004:	0ee7e663          	bltu	x15,x14,b0f0 <f_write+0x378>
    b008:	0cf70e63          	beq	x14,x15,b0e4 <f_write+0x36c>
    b00c:	05442223          	sw	x20,68(x8)
    b010:	03842503          	lw	x10,56(x8)
    b014:	1ff57513          	and	x10,x10,511
    b018:	40ad04b3          	sub	x9,x26,x10
    b01c:	00997463          	bgeu	x18,x9,b024 <f_write+0x2ac>
    b020:	00090493          	mv	x9,x18
    b024:	00048613          	mv	x12,x9
    b028:	000a8593          	mv	x11,x21
    b02c:	00ac8533          	add	x10,x25,x10
    b030:	eccf90ef          	jal	46fc <memcpy>
    b034:	03044783          	lbu	x15,48(x8)
    b038:	f807e793          	or	x15,x15,-128
    b03c:	02f40823          	sb	x15,48(x8)
    b040:	40990933          	sub	x18,x18,x9
    b044:	000ba783          	lw	x15,0(x23)
    b048:	009787b3          	add	x15,x15,x9
    b04c:	00fba023          	sw	x15,0(x23)
    b050:	009a8ab3          	add	x21,x21,x9
    b054:	03842783          	lw	x15,56(x8)
    b058:	03c42703          	lw	x14,60(x8)
    b05c:	00f487b3          	add	x15,x9,x15
    b060:	0097b4b3          	sltu	x9,x15,x9
    b064:	00e484b3          	add	x9,x9,x14
    b068:	02f42c23          	sw	x15,56(x8)
    b06c:	02942e23          	sw	x9,60(x8)
    b070:	01042683          	lw	x13,16(x8)
    b074:	01442703          	lw	x14,20(x8)
    b078:	00976663          	bltu	x14,x9,b084 <f_write+0x30c>
    b07c:	00e49863          	bne	x9,x14,b08c <f_write+0x314>
    b080:	00f6f663          	bgeu	x13,x15,b08c <f_write+0x314>
    b084:	00078693          	mv	x13,x15
    b088:	00048713          	mv	x14,x9
    b08c:	00d42823          	sw	x13,16(x8)
    b090:	00e42a23          	sw	x14,20(x8)
    b094:	0a090063          	beqz	x18,b134 <f_write+0x3bc>
    b098:	03842783          	lw	x15,56(x8)
    b09c:	03c42603          	lw	x12,60(x8)
    b0a0:	1ff7f713          	and	x14,x15,511
    b0a4:	f60716e3          	bnez	x14,b010 <f_write+0x298>
    b0a8:	00ac5983          	lhu	x19,10(x24)
    b0ac:	fff98993          	add	x19,x19,-1
    b0b0:	01761693          	sll	x13,x12,0x17
    b0b4:	0097d713          	srl	x14,x15,0x9
    b0b8:	00e6e733          	or	x14,x13,x14
    b0bc:	00e9f9b3          	and	x19,x19,x14
    b0c0:	d80996e3          	bnez	x19,ae4c <f_write+0xd4>
    b0c4:	00c7e7b3          	or	x15,x15,x12
    b0c8:	d4079ae3          	bnez	x15,ae1c <f_write+0xa4>
    b0cc:	00842503          	lw	x10,8(x8)
    b0d0:	d4051ee3          	bnez	x10,ae2c <f_write+0xb4>
    b0d4:	00000593          	li	x11,0
    b0d8:	00040513          	mv	x10,x8
    b0dc:	90cfc0ef          	jal	71e8 <create_chain>
    b0e0:	d49ff06f          	j	ae28 <f_write+0xb0>
    b0e4:	01042703          	lw	x14,16(x8)
    b0e8:	03842783          	lw	x15,56(x8)
    b0ec:	f2e7f0e3          	bgeu	x15,x14,b00c <f_write+0x294>
    b0f0:	00100693          	li	x13,1
    b0f4:	000a0613          	mv	x12,x20
    b0f8:	05040593          	add	x11,x8,80
    b0fc:	001c4503          	lbu	x10,1(x24)
    b100:	f78fa0ef          	jal	5878 <disk_read>
    b104:	f00504e3          	beqz	x10,b00c <f_write+0x294>
    b108:	00100793          	li	x15,1
    b10c:	02f408a3          	sb	x15,49(x8)
    b110:	00100b13          	li	x22,1
    b114:	04412483          	lw	x9,68(x2)
    b118:	03c12983          	lw	x19,60(x2)
    b11c:	03812a03          	lw	x20,56(x2)
    b120:	02812c03          	lw	x24,40(x2)
    b124:	02412c83          	lw	x25,36(x2)
    b128:	02012d03          	lw	x26,32(x2)
    b12c:	01c12d83          	lw	x27,28(x2)
    b130:	d91ff06f          	j	aec0 <f_write+0x148>
    b134:	04412483          	lw	x9,68(x2)
    b138:	03c12983          	lw	x19,60(x2)
    b13c:	03812a03          	lw	x20,56(x2)
    b140:	02412c83          	lw	x25,36(x2)
    b144:	02012d03          	lw	x26,32(x2)
    b148:	01c12d83          	lw	x27,28(x2)
    b14c:	03044783          	lbu	x15,48(x8)
    b150:	0407e793          	or	x15,x15,64
    b154:	02f40823          	sb	x15,48(x8)
    b158:	02812c03          	lw	x24,40(x2)
    b15c:	d65ff06f          	j	aec0 <f_write+0x148>
    b160:	04412483          	lw	x9,68(x2)
    b164:	03c12983          	lw	x19,60(x2)
    b168:	03812a03          	lw	x20,56(x2)
    b16c:	02412c83          	lw	x25,36(x2)
    b170:	02012d03          	lw	x26,32(x2)
    b174:	01c12d83          	lw	x27,28(x2)
    b178:	fd5ff06f          	j	b14c <f_write+0x3d4>
    b17c:	00700b13          	li	x22,7
    b180:	d41ff06f          	j	aec0 <f_write+0x148>

0000b184 <putc_bfd>:
    b184:	fd010113          	add	x2,x2,-48
    b188:	02112623          	sw	x1,44(x2)
    b18c:	02812423          	sw	x8,40(x2)
    b190:	02912223          	sw	x9,36(x2)
    b194:	00050413          	mv	x8,x10
    b198:	00058493          	mv	x9,x11
    b19c:	00a00793          	li	x15,10
    b1a0:	04f58a63          	beq	x11,x15,b1f4 <putc_bfd+0x70>
    b1a4:	00442783          	lw	x15,4(x8)
    b1a8:	0207cc63          	bltz	x15,b1e0 <putc_bfd+0x5c>
    b1ac:	03212023          	sw	x18,32(x2)
    b1b0:	01312e23          	sw	x19,28(x2)
    b1b4:	00842903          	lw	x18,8(x8)
    b1b8:	00178993          	add	x19,x15,1
    b1bc:	00f407b3          	add	x15,x8,x15
    b1c0:	00978623          	sb	x9,12(x15)
    b1c4:	03b00793          	li	x15,59
    b1c8:	0337cc63          	blt	x15,x19,b200 <putc_bfd+0x7c>
    b1cc:	01342223          	sw	x19,4(x8)
    b1d0:	00190913          	add	x18,x18,1
    b1d4:	01242423          	sw	x18,8(x8)
    b1d8:	02012903          	lw	x18,32(x2)
    b1dc:	01c12983          	lw	x19,28(x2)
    b1e0:	02c12083          	lw	x1,44(x2)
    b1e4:	02812403          	lw	x8,40(x2)
    b1e8:	02412483          	lw	x9,36(x2)
    b1ec:	03010113          	add	x2,x2,48
    b1f0:	00008067          	ret
    b1f4:	00d00593          	li	x11,13
    b1f8:	f8dff0ef          	jal	b184 <putc_bfd>
    b1fc:	fa9ff06f          	j	b1a4 <putc_bfd+0x20>
    b200:	00c10693          	add	x13,x2,12
    b204:	00098613          	mv	x12,x19
    b208:	00c40593          	add	x11,x8,12
    b20c:	00042503          	lw	x10,0(x8)
    b210:	b69ff0ef          	jal	ad78 <f_write>
    b214:	00c12783          	lw	x15,12(x2)
    b218:	413787b3          	sub	x15,x15,x19
    b21c:	00f037b3          	snez	x15,x15
    b220:	40f009b3          	neg	x19,x15
    b224:	fa9ff06f          	j	b1cc <putc_bfd+0x48>

0000b228 <putc_flush>:
    b228:	00452603          	lw	x12,4(x10)
    b22c:	04064463          	bltz	x12,b274 <putc_flush+0x4c>
    b230:	fe010113          	add	x2,x2,-32
    b234:	00112e23          	sw	x1,28(x2)
    b238:	00812c23          	sw	x8,24(x2)
    b23c:	00050413          	mv	x8,x10
    b240:	00c10693          	add	x13,x2,12
    b244:	00c50593          	add	x11,x10,12
    b248:	00052503          	lw	x10,0(x10)
    b24c:	b2dff0ef          	jal	ad78 <f_write>
    b250:	02051663          	bnez	x10,b27c <putc_flush+0x54>
    b254:	00442703          	lw	x14,4(x8)
    b258:	00c12783          	lw	x15,12(x2)
    b25c:	02f71463          	bne	x14,x15,b284 <putc_flush+0x5c>
    b260:	00842503          	lw	x10,8(x8)
    b264:	01c12083          	lw	x1,28(x2)
    b268:	01812403          	lw	x8,24(x2)
    b26c:	02010113          	add	x2,x2,32
    b270:	00008067          	ret
    b274:	fff00513          	li	x10,-1
    b278:	00008067          	ret
    b27c:	fff00513          	li	x10,-1
    b280:	fe5ff06f          	j	b264 <putc_flush+0x3c>
    b284:	fff00513          	li	x10,-1
    b288:	fddff06f          	j	b264 <putc_flush+0x3c>

0000b28c <f_sync>:
    b28c:	f9010113          	add	x2,x2,-112
    b290:	06112623          	sw	x1,108(x2)
    b294:	06812423          	sw	x8,104(x2)
    b298:	00050413          	mv	x8,x10
    b29c:	05c10593          	add	x11,x2,92
    b2a0:	c2dfa0ef          	jal	5ecc <validate>
    b2a4:	04051263          	bnez	x10,b2e8 <f_sync+0x5c>
    b2a8:	03044783          	lbu	x15,48(x8)
    b2ac:	0407f713          	and	x14,x15,64
    b2b0:	02070c63          	beqz	x14,b2e8 <f_sync+0x5c>
    b2b4:	01879793          	sll	x15,x15,0x18
    b2b8:	4187d793          	sra	x15,x15,0x18
    b2bc:	0207ce63          	bltz	x15,b2f8 <f_sync+0x6c>
    b2c0:	06912223          	sw	x9,100(x2)
    b2c4:	05c12483          	lw	x9,92(x2)
    b2c8:	0004c703          	lbu	x14,0(x9)
    b2cc:	00400793          	li	x15,4
    b2d0:	06f70063          	beq	x14,x15,b330 <f_sync+0xa4>
    b2d4:	04842583          	lw	x11,72(x8)
    b2d8:	00048513          	mv	x10,x9
    b2dc:	d51fa0ef          	jal	602c <move_window>
    b2e0:	1a050263          	beqz	x10,b484 <f_sync+0x1f8>
    b2e4:	06412483          	lw	x9,100(x2)
    b2e8:	06c12083          	lw	x1,108(x2)
    b2ec:	06812403          	lw	x8,104(x2)
    b2f0:	07010113          	add	x2,x2,112
    b2f4:	00008067          	ret
    b2f8:	00100693          	li	x13,1
    b2fc:	04442603          	lw	x12,68(x8)
    b300:	05040593          	add	x11,x8,80
    b304:	05c12783          	lw	x15,92(x2)
    b308:	0017c503          	lbu	x10,1(x15)
    b30c:	db4fa0ef          	jal	58c0 <disk_write>
    b310:	00050793          	mv	x15,x10
    b314:	00100513          	li	x10,1
    b318:	fc0798e3          	bnez	x15,b2e8 <f_sync+0x5c>
    b31c:	06912223          	sw	x9,100(x2)
    b320:	03044783          	lbu	x15,48(x8)
    b324:	07f7f793          	and	x15,x15,127
    b328:	02f40823          	sb	x15,48(x8)
    b32c:	f99ff06f          	j	b2c4 <f_sync+0x38>
    b330:	00040513          	mv	x10,x8
    b334:	d04fb0ef          	jal	6838 <fill_first_frag>
    b338:	00050663          	beqz	x10,b344 <f_sync+0xb8>
    b33c:	06412483          	lw	x9,100(x2)
    b340:	fa9ff06f          	j	b2e8 <f_sync+0x5c>
    b344:	fff00613          	li	x12,-1
    b348:	04042583          	lw	x11,64(x8)
    b34c:	00040513          	mv	x10,x8
    b350:	c54fb0ef          	jal	67a4 <fill_last_frag>
    b354:	00050663          	beqz	x10,b360 <f_sync+0xd4>
    b358:	06412483          	lw	x9,100(x2)
    b35c:	f8dff06f          	j	b2e8 <f_sync+0x5c>
    b360:	00042783          	lw	x15,0(x8)
    b364:	00f12423          	sw	x15,8(x2)
    b368:	02042783          	lw	x15,32(x8)
    b36c:	00f12823          	sw	x15,16(x2)
    b370:	02442783          	lw	x15,36(x8)
    b374:	00f107a3          	sb	x15,15(x2)
    b378:	f007f793          	and	x15,x15,-256
    b37c:	00f12c23          	sw	x15,24(x2)
    b380:	00012e23          	sw	x0,28(x2)
    b384:	02012223          	sw	x0,36(x2)
    b388:	02842583          	lw	x11,40(x8)
    b38c:	04b12a23          	sw	x11,84(x2)
    b390:	00810513          	add	x10,x2,8
    b394:	cadfb0ef          	jal	7040 <dir_sdi>
    b398:	00050663          	beqz	x10,b3a4 <f_sync+0x118>
    b39c:	06412483          	lw	x9,100(x2)
    b3a0:	f49ff06f          	j	b2e8 <f_sync+0x5c>
    b3a4:	00810513          	add	x10,x2,8
    b3a8:	ac9fc0ef          	jal	7e70 <load_xdir>
    b3ac:	16051263          	bnez	x10,b510 <f_sync+0x284>
    b3b0:	0104a703          	lw	x14,16(x9)
    b3b4:	00474783          	lbu	x15,4(x14)
    b3b8:	0207e793          	or	x15,x15,32
    b3bc:	00f70223          	sb	x15,4(x14)
    b3c0:	0104a703          	lw	x14,16(x9)
    b3c4:	00744783          	lbu	x15,7(x8)
    b3c8:	0017e793          	or	x15,x15,1
    b3cc:	02f700a3          	sb	x15,33(x14)
    b3d0:	0104a703          	lw	x14,16(x9)
    b3d4:	00842783          	lw	x15,8(x8)
    b3d8:	02f70a23          	sb	x15,52(x14)
    b3dc:	0087d693          	srl	x13,x15,0x8
    b3e0:	02d70aa3          	sb	x13,53(x14)
    b3e4:	0107d693          	srl	x13,x15,0x10
    b3e8:	02d70b23          	sb	x13,54(x14)
    b3ec:	0187d793          	srl	x15,x15,0x18
    b3f0:	02f70ba3          	sb	x15,55(x14)
    b3f4:	0104a503          	lw	x10,16(x9)
    b3f8:	01042583          	lw	x11,16(x8)
    b3fc:	01442603          	lw	x12,20(x8)
    b400:	03850513          	add	x10,x10,56
    b404:	ddcfa0ef          	jal	59e0 <st_qword>
    b408:	0104a503          	lw	x10,16(x9)
    b40c:	01042583          	lw	x11,16(x8)
    b410:	01442603          	lw	x12,20(x8)
    b414:	02850513          	add	x10,x10,40
    b418:	dc8fa0ef          	jal	59e0 <st_qword>
    b41c:	0104a783          	lw	x15,16(x9)
    b420:	00078623          	sb	x0,12(x15)
    b424:	000786a3          	sb	x0,13(x15)
    b428:	03500713          	li	x14,53
    b42c:	00e78723          	sb	x14,14(x15)
    b430:	05800713          	li	x14,88
    b434:	00e787a3          	sb	x14,15(x15)
    b438:	0104a783          	lw	x15,16(x9)
    b43c:	00078aa3          	sb	x0,21(x15)
    b440:	0104a783          	lw	x15,16(x9)
    b444:	00078823          	sb	x0,16(x15)
    b448:	000788a3          	sb	x0,17(x15)
    b44c:	00078923          	sb	x0,18(x15)
    b450:	000789a3          	sb	x0,19(x15)
    b454:	00810513          	add	x10,x2,8
    b458:	c55fc0ef          	jal	80ac <store_xdir>
    b45c:	00050663          	beqz	x10,b468 <f_sync+0x1dc>
    b460:	06412483          	lw	x9,100(x2)
    b464:	e85ff06f          	j	b2e8 <f_sync+0x5c>
    b468:	00048513          	mv	x10,x9
    b46c:	f31fa0ef          	jal	639c <sync_fs>
    b470:	03044783          	lbu	x15,48(x8)
    b474:	fbf7f793          	and	x15,x15,-65
    b478:	02f40823          	sb	x15,48(x8)
    b47c:	06412483          	lw	x9,100(x2)
    b480:	e69ff06f          	j	b2e8 <f_sync+0x5c>
    b484:	07212023          	sw	x18,96(x2)
    b488:	04c42903          	lw	x18,76(x8)
    b48c:	00b94783          	lbu	x15,11(x18)
    b490:	0207e793          	or	x15,x15,32
    b494:	00f905a3          	sb	x15,11(x18)
    b498:	00842603          	lw	x12,8(x8)
    b49c:	00090593          	mv	x11,x18
    b4a0:	00042503          	lw	x10,0(x8)
    b4a4:	c0cfb0ef          	jal	68b0 <st_clust>
    b4a8:	01042783          	lw	x15,16(x8)
    b4ac:	00f90e23          	sb	x15,28(x18)
    b4b0:	0087d713          	srl	x14,x15,0x8
    b4b4:	00e90ea3          	sb	x14,29(x18)
    b4b8:	0107d713          	srl	x14,x15,0x10
    b4bc:	00e90f23          	sb	x14,30(x18)
    b4c0:	0187d793          	srl	x15,x15,0x18
    b4c4:	00f90fa3          	sb	x15,31(x18)
    b4c8:	00090b23          	sb	x0,22(x18)
    b4cc:	00090ba3          	sb	x0,23(x18)
    b4d0:	03500793          	li	x15,53
    b4d4:	00f90c23          	sb	x15,24(x18)
    b4d8:	05800793          	li	x15,88
    b4dc:	00f90ca3          	sb	x15,25(x18)
    b4e0:	00090923          	sb	x0,18(x18)
    b4e4:	000909a3          	sb	x0,19(x18)
    b4e8:	00100793          	li	x15,1
    b4ec:	00f48223          	sb	x15,4(x9)
    b4f0:	00048513          	mv	x10,x9
    b4f4:	ea9fa0ef          	jal	639c <sync_fs>
    b4f8:	03044783          	lbu	x15,48(x8)
    b4fc:	fbf7f793          	and	x15,x15,-65
    b500:	02f40823          	sb	x15,48(x8)
    b504:	06412483          	lw	x9,100(x2)
    b508:	06012903          	lw	x18,96(x2)
    b50c:	dddff06f          	j	b2e8 <f_sync+0x5c>
    b510:	06412483          	lw	x9,100(x2)
    b514:	dd5ff06f          	j	b2e8 <f_sync+0x5c>

0000b518 <f_close>:
    b518:	fe010113          	add	x2,x2,-32
    b51c:	00112e23          	sw	x1,28(x2)
    b520:	00812c23          	sw	x8,24(x2)
    b524:	00050413          	mv	x8,x10
    b528:	d65ff0ef          	jal	b28c <f_sync>
    b52c:	00050a63          	beqz	x10,b540 <f_close+0x28>
    b530:	01c12083          	lw	x1,28(x2)
    b534:	01812403          	lw	x8,24(x2)
    b538:	02010113          	add	x2,x2,32
    b53c:	00008067          	ret
    b540:	00c10593          	add	x11,x2,12
    b544:	00040513          	mv	x10,x8
    b548:	985fa0ef          	jal	5ecc <validate>
    b54c:	fe0512e3          	bnez	x10,b530 <f_close+0x18>
    b550:	00042023          	sw	x0,0(x8)
    b554:	fddff06f          	j	b530 <f_close+0x18>

0000b558 <f_lseek>:
    b558:	fc010113          	add	x2,x2,-64
    b55c:	02112e23          	sw	x1,60(x2)
    b560:	02812c23          	sw	x8,56(x2)
    b564:	03212823          	sw	x18,48(x2)
    b568:	03312623          	sw	x19,44(x2)
    b56c:	03412423          	sw	x20,40(x2)
    b570:	00050413          	mv	x8,x10
    b574:	00058993          	mv	x19,x11
    b578:	00060913          	mv	x18,x12
    b57c:	00c10593          	add	x11,x2,12
    b580:	94dfa0ef          	jal	5ecc <validate>
    b584:	00050a13          	mv	x20,x10
    b588:	08051e63          	bnez	x10,b624 <f_lseek+0xcc>
    b58c:	03144a03          	lbu	x20,49(x8)
    b590:	080a1a63          	bnez	x20,b624 <f_lseek+0xcc>
    b594:	03612023          	sw	x22,32(x2)
    b598:	00c12b03          	lw	x22,12(x2)
    b59c:	000b4703          	lbu	x14,0(x22)
    b5a0:	00400793          	li	x15,4
    b5a4:	00f70a63          	beq	x14,x15,b5b8 <f_lseek+0x60>
    b5a8:	02090863          	beqz	x18,b5d8 <f_lseek+0x80>
    b5ac:	fff00993          	li	x19,-1
    b5b0:	00000913          	li	x18,0
    b5b4:	0240006f          	j	b5d8 <f_lseek+0x80>
    b5b8:	fff00613          	li	x12,-1
    b5bc:	04042583          	lw	x11,64(x8)
    b5c0:	00040513          	mv	x10,x8
    b5c4:	9e0fb0ef          	jal	67a4 <fill_last_frag>
    b5c8:	46051463          	bnez	x10,ba30 <f_lseek+0x4d8>
    b5cc:	000b4703          	lbu	x14,0(x22)
    b5d0:	00400793          	li	x15,4
    b5d4:	fcf71ae3          	bne	x14,x15,b5a8 <f_lseek+0x50>
    b5d8:	01042683          	lw	x13,16(x8)
    b5dc:	01442783          	lw	x15,20(x8)
    b5e0:	0127e663          	bltu	x15,x18,b5ec <f_lseek+0x94>
    b5e4:	00f91e63          	bne	x18,x15,b600 <f_lseek+0xa8>
    b5e8:	0136fc63          	bgeu	x13,x19,b600 <f_lseek+0xa8>
    b5ec:	03044703          	lbu	x14,48(x8)
    b5f0:	00277713          	and	x14,x14,2
    b5f4:	44071463          	bnez	x14,ba3c <f_lseek+0x4e4>
    b5f8:	00068993          	mv	x19,x13
    b5fc:	00078913          	mv	x18,x15
    b600:	03842703          	lw	x14,56(x8)
    b604:	03c42783          	lw	x15,60(x8)
    b608:	00000613          	li	x12,0
    b60c:	00000693          	li	x13,0
    b610:	02c42c23          	sw	x12,56(x8)
    b614:	02d42e23          	sw	x13,60(x8)
    b618:	0129e6b3          	or	x13,x19,x18
    b61c:	02069463          	bnez	x13,b644 <f_lseek+0xec>
    b620:	02012b03          	lw	x22,32(x2)
    b624:	000a0513          	mv	x10,x20
    b628:	03c12083          	lw	x1,60(x2)
    b62c:	03812403          	lw	x8,56(x2)
    b630:	03012903          	lw	x18,48(x2)
    b634:	02c12983          	lw	x19,44(x2)
    b638:	02812a03          	lw	x20,40(x2)
    b63c:	04010113          	add	x2,x2,64
    b640:	00008067          	ret
    b644:	02912a23          	sw	x9,52(x2)
    b648:	03512223          	sw	x21,36(x2)
    b64c:	00ab5a83          	lhu	x21,10(x22)
    b650:	009a9a93          	sll	x21,x21,0x9
    b654:	00f766b3          	or	x13,x14,x15
    b658:	0a068063          	beqz	x13,b6f8 <f_lseek+0x1a0>
    b65c:	01712e23          	sw	x23,28(x2)
    b660:	01812c23          	sw	x24,24(x2)
    b664:	01912a23          	sw	x25,20(x2)
    b668:	fff70b93          	add	x23,x14,-1
    b66c:	00173713          	seqz	x14,x14
    b670:	40e784b3          	sub	x9,x15,x14
    b674:	000a8613          	mv	x12,x21
    b678:	00000693          	li	x13,0
    b67c:	000b8513          	mv	x10,x23
    b680:	00048593          	mv	x11,x9
    b684:	234020ef          	jal	d8b8 <_end>
    b688:	00050c93          	mv	x25,x10
    b68c:	00058c13          	mv	x24,x11
    b690:	0019b593          	seqz	x11,x19
    b694:	000a8613          	mv	x12,x21
    b698:	00000693          	li	x13,0
    b69c:	fff98513          	add	x10,x19,-1
    b6a0:	40b905b3          	sub	x11,x18,x11
    b6a4:	214020ef          	jal	d8b8 <_end>
    b6a8:	0585e263          	bltu	x11,x24,b6ec <f_lseek+0x194>
    b6ac:	00bc1463          	bne	x24,x11,b6b4 <f_lseek+0x15c>
    b6b0:	09956063          	bltu	x10,x25,b730 <f_lseek+0x1d8>
    b6b4:	41500733          	neg	x14,x21
    b6b8:	01777733          	and	x14,x14,x23
    b6bc:	02e42c23          	sw	x14,56(x8)
    b6c0:	02942e23          	sw	x9,60(x8)
    b6c4:	40e98733          	sub	x14,x19,x14
    b6c8:	00e9b6b3          	sltu	x13,x19,x14
    b6cc:	409907b3          	sub	x15,x18,x9
    b6d0:	00070993          	mv	x19,x14
    b6d4:	40d78933          	sub	x18,x15,x13
    b6d8:	04042483          	lw	x9,64(x8)
    b6dc:	01c12b83          	lw	x23,28(x2)
    b6e0:	01812c03          	lw	x24,24(x2)
    b6e4:	01412c83          	lw	x25,20(x2)
    b6e8:	01c0006f          	j	b704 <f_lseek+0x1ac>
    b6ec:	01c12b83          	lw	x23,28(x2)
    b6f0:	01812c03          	lw	x24,24(x2)
    b6f4:	01412c83          	lw	x25,20(x2)
    b6f8:	00842483          	lw	x9,8(x8)
    b6fc:	04048263          	beqz	x9,b740 <f_lseek+0x1e8>
    b700:	04942023          	sw	x9,64(x8)
    b704:	14048263          	beqz	x9,b848 <f_lseek+0x2f0>
    b708:	01912a23          	sw	x25,20(x2)
    b70c:	01a12823          	sw	x26,16(x2)
    b710:	000a8d13          	mv	x26,x21
    b714:	00000c93          	li	x25,0
    b718:	08090463          	beqz	x18,b7a0 <f_lseek+0x248>
    b71c:	01712e23          	sw	x23,28(x2)
    b720:	01812c23          	sw	x24,24(x2)
    b724:	fff00b93          	li	x23,-1
    b728:	00100c13          	li	x24,1
    b72c:	0bc0006f          	j	b7e8 <f_lseek+0x290>
    b730:	01c12b83          	lw	x23,28(x2)
    b734:	01812c03          	lw	x24,24(x2)
    b738:	01412c83          	lw	x25,20(x2)
    b73c:	fbdff06f          	j	b6f8 <f_lseek+0x1a0>
    b740:	00000593          	li	x11,0
    b744:	00040513          	mv	x10,x8
    b748:	aa1fb0ef          	jal	71e8 <create_chain>
    b74c:	00050493          	mv	x9,x10
    b750:	00100793          	li	x15,1
    b754:	00f50a63          	beq	x10,x15,b768 <f_lseek+0x210>
    b758:	fff00793          	li	x15,-1
    b75c:	02f50463          	beq	x10,x15,b784 <f_lseek+0x22c>
    b760:	00a42423          	sw	x10,8(x8)
    b764:	f9dff06f          	j	b700 <f_lseek+0x1a8>
    b768:	00200793          	li	x15,2
    b76c:	02f408a3          	sb	x15,49(x8)
    b770:	00200a13          	li	x20,2
    b774:	03412483          	lw	x9,52(x2)
    b778:	02412a83          	lw	x21,36(x2)
    b77c:	02012b03          	lw	x22,32(x2)
    b780:	ea5ff06f          	j	b624 <f_lseek+0xcc>
    b784:	00100793          	li	x15,1
    b788:	02f408a3          	sb	x15,49(x8)
    b78c:	00100a13          	li	x20,1
    b790:	03412483          	lw	x9,52(x2)
    b794:	02412a83          	lw	x21,36(x2)
    b798:	02012b03          	lw	x22,32(x2)
    b79c:	e89ff06f          	j	b624 <f_lseek+0xcc>
    b7a0:	19991e63          	bne	x18,x25,b93c <f_lseek+0x3e4>
    b7a4:	f73aece3          	bltu	x21,x19,b71c <f_lseek+0x1c4>
    b7a8:	1940006f          	j	b93c <f_lseek+0x3e4>
    b7ac:	00f42823          	sw	x15,16(x8)
    b7b0:	00e42a23          	sw	x14,20(x8)
    b7b4:	0406e693          	or	x13,x13,64
    b7b8:	02d40823          	sb	x13,48(x8)
    b7bc:	00048593          	mv	x11,x9
    b7c0:	00040513          	mv	x10,x8
    b7c4:	a25fb0ef          	jal	71e8 <create_chain>
    b7c8:	00050493          	mv	x9,x10
    b7cc:	06050663          	beqz	x10,b838 <f_lseek+0x2e0>
    b7d0:	0f748c63          	beq	x9,x23,b8c8 <f_lseek+0x370>
    b7d4:	129c7063          	bgeu	x24,x9,b8f4 <f_lseek+0x39c>
    b7d8:	01cb2783          	lw	x15,28(x22)
    b7dc:	10f4fc63          	bgeu	x9,x15,b8f4 <f_lseek+0x39c>
    b7e0:	04942023          	sw	x9,64(x8)
    b7e4:	132cfe63          	bgeu	x25,x18,b920 <f_lseek+0x3c8>
    b7e8:	415987b3          	sub	x15,x19,x21
    b7ec:	00f9b733          	sltu	x14,x19,x15
    b7f0:	00078993          	mv	x19,x15
    b7f4:	40e90933          	sub	x18,x18,x14
    b7f8:	03842783          	lw	x15,56(x8)
    b7fc:	00fa87b3          	add	x15,x21,x15
    b800:	0157b733          	sltu	x14,x15,x21
    b804:	03c42683          	lw	x13,60(x8)
    b808:	00d70733          	add	x14,x14,x13
    b80c:	02f42c23          	sw	x15,56(x8)
    b810:	02e42e23          	sw	x14,60(x8)
    b814:	03044683          	lbu	x13,48(x8)
    b818:	0026f593          	and	x11,x13,2
    b81c:	08058c63          	beqz	x11,b8b4 <f_lseek+0x35c>
    b820:	01442583          	lw	x11,20(x8)
    b824:	f8e5e4e3          	bltu	x11,x14,b7ac <f_lseek+0x254>
    b828:	f8e59ae3          	bne	x11,x14,b7bc <f_lseek+0x264>
    b82c:	01042603          	lw	x12,16(x8)
    b830:	f8f676e3          	bgeu	x12,x15,b7bc <f_lseek+0x264>
    b834:	f79ff06f          	j	b7ac <f_lseek+0x254>
    b838:	01c12b83          	lw	x23,28(x2)
    b83c:	01812c03          	lw	x24,24(x2)
    b840:	01412c83          	lw	x25,20(x2)
    b844:	01012d03          	lw	x26,16(x2)
    b848:	03842783          	lw	x15,56(x8)
    b84c:	03c42703          	lw	x14,60(x8)
    b850:	01442683          	lw	x13,20(x8)
    b854:	16e6f863          	bgeu	x13,x14,b9c4 <f_lseek+0x46c>
    b858:	00f42823          	sw	x15,16(x8)
    b85c:	00e42a23          	sw	x14,20(x8)
    b860:	03044703          	lbu	x14,48(x8)
    b864:	04076713          	or	x14,x14,64
    b868:	02e40823          	sb	x14,48(x8)
    b86c:	1ff7f793          	and	x15,x15,511
    b870:	1e078863          	beqz	x15,ba60 <f_lseek+0x508>
    b874:	04442603          	lw	x12,68(x8)
    b878:	1e960c63          	beq	x12,x9,ba70 <f_lseek+0x518>
    b87c:	03040783          	lb	x15,48(x8)
    b880:	1407ca63          	bltz	x15,b9d4 <f_lseek+0x47c>
    b884:	00100693          	li	x13,1
    b888:	00048613          	mv	x12,x9
    b88c:	05040593          	add	x11,x8,80
    b890:	001b4503          	lbu	x10,1(x22)
    b894:	fe5f90ef          	jal	5878 <disk_read>
    b898:	00050a13          	mv	x20,x10
    b89c:	16051c63          	bnez	x10,ba14 <f_lseek+0x4bc>
    b8a0:	04942223          	sw	x9,68(x8)
    b8a4:	03412483          	lw	x9,52(x2)
    b8a8:	02412a83          	lw	x21,36(x2)
    b8ac:	02012b03          	lw	x22,32(x2)
    b8b0:	d75ff06f          	j	b624 <f_lseek+0xcc>
    b8b4:	00048593          	mv	x11,x9
    b8b8:	00040513          	mv	x10,x8
    b8bc:	cc0fb0ef          	jal	6d7c <get_fat>
    b8c0:	00050493          	mv	x9,x10
    b8c4:	f0dff06f          	j	b7d0 <f_lseek+0x278>
    b8c8:	00100793          	li	x15,1
    b8cc:	02f408a3          	sb	x15,49(x8)
    b8d0:	00100a13          	li	x20,1
    b8d4:	03412483          	lw	x9,52(x2)
    b8d8:	02412a83          	lw	x21,36(x2)
    b8dc:	02012b03          	lw	x22,32(x2)
    b8e0:	01c12b83          	lw	x23,28(x2)
    b8e4:	01812c03          	lw	x24,24(x2)
    b8e8:	01412c83          	lw	x25,20(x2)
    b8ec:	01012d03          	lw	x26,16(x2)
    b8f0:	d35ff06f          	j	b624 <f_lseek+0xcc>
    b8f4:	00200793          	li	x15,2
    b8f8:	02f408a3          	sb	x15,49(x8)
    b8fc:	00200a13          	li	x20,2
    b900:	03412483          	lw	x9,52(x2)
    b904:	02412a83          	lw	x21,36(x2)
    b908:	02012b03          	lw	x22,32(x2)
    b90c:	01c12b83          	lw	x23,28(x2)
    b910:	01812c03          	lw	x24,24(x2)
    b914:	01412c83          	lw	x25,20(x2)
    b918:	01012d03          	lw	x26,16(x2)
    b91c:	d09ff06f          	j	b624 <f_lseek+0xcc>
    b920:	01991a63          	bne	x18,x25,b934 <f_lseek+0x3dc>
    b924:	ed3d62e3          	bltu	x26,x19,b7e8 <f_lseek+0x290>
    b928:	01c12b83          	lw	x23,28(x2)
    b92c:	01812c03          	lw	x24,24(x2)
    b930:	00c0006f          	j	b93c <f_lseek+0x3e4>
    b934:	01c12b83          	lw	x23,28(x2)
    b938:	01812c03          	lw	x24,24(x2)
    b93c:	03842783          	lw	x15,56(x8)
    b940:	03c42703          	lw	x14,60(x8)
    b944:	013786b3          	add	x13,x15,x19
    b948:	00f6b7b3          	sltu	x15,x13,x15
    b94c:	01270733          	add	x14,x14,x18
    b950:	00e787b3          	add	x15,x15,x14
    b954:	02d42c23          	sw	x13,56(x8)
    b958:	02f42e23          	sw	x15,60(x8)
    b95c:	1ff9f793          	and	x15,x19,511
    b960:	04078a63          	beqz	x15,b9b4 <f_lseek+0x45c>
    b964:	00048593          	mv	x11,x9
    b968:	000b0513          	mv	x10,x22
    b96c:	8b0fa0ef          	jal	5a1c <clst2sect>
    b970:	02050063          	beqz	x10,b990 <f_lseek+0x438>
    b974:	01791913          	sll	x18,x18,0x17
    b978:	0099d993          	srl	x19,x19,0x9
    b97c:	013969b3          	or	x19,x18,x19
    b980:	013504b3          	add	x9,x10,x19
    b984:	01412c83          	lw	x25,20(x2)
    b988:	01012d03          	lw	x26,16(x2)
    b98c:	ebdff06f          	j	b848 <f_lseek+0x2f0>
    b990:	00200793          	li	x15,2
    b994:	02f408a3          	sb	x15,49(x8)
    b998:	00200a13          	li	x20,2
    b99c:	03412483          	lw	x9,52(x2)
    b9a0:	02412a83          	lw	x21,36(x2)
    b9a4:	02012b03          	lw	x22,32(x2)
    b9a8:	01412c83          	lw	x25,20(x2)
    b9ac:	01012d03          	lw	x26,16(x2)
    b9b0:	c75ff06f          	j	b624 <f_lseek+0xcc>
    b9b4:	000a0493          	mv	x9,x20
    b9b8:	01412c83          	lw	x25,20(x2)
    b9bc:	01012d03          	lw	x26,16(x2)
    b9c0:	e89ff06f          	j	b848 <f_lseek+0x2f0>
    b9c4:	eae694e3          	bne	x13,x14,b86c <f_lseek+0x314>
    b9c8:	01042683          	lw	x13,16(x8)
    b9cc:	e8f6e6e3          	bltu	x13,x15,b858 <f_lseek+0x300>
    b9d0:	e9dff06f          	j	b86c <f_lseek+0x314>
    b9d4:	00100693          	li	x13,1
    b9d8:	05040593          	add	x11,x8,80
    b9dc:	001b4503          	lbu	x10,1(x22)
    b9e0:	ee1f90ef          	jal	58c0 <disk_write>
    b9e4:	00051a63          	bnez	x10,b9f8 <f_lseek+0x4a0>
    b9e8:	03044783          	lbu	x15,48(x8)
    b9ec:	07f7f793          	and	x15,x15,127
    b9f0:	02f40823          	sb	x15,48(x8)
    b9f4:	e91ff06f          	j	b884 <f_lseek+0x32c>
    b9f8:	00100793          	li	x15,1
    b9fc:	02f408a3          	sb	x15,49(x8)
    ba00:	00100a13          	li	x20,1
    ba04:	03412483          	lw	x9,52(x2)
    ba08:	02412a83          	lw	x21,36(x2)
    ba0c:	02012b03          	lw	x22,32(x2)
    ba10:	c15ff06f          	j	b624 <f_lseek+0xcc>
    ba14:	00100793          	li	x15,1
    ba18:	02f408a3          	sb	x15,49(x8)
    ba1c:	00100a13          	li	x20,1
    ba20:	03412483          	lw	x9,52(x2)
    ba24:	02412a83          	lw	x21,36(x2)
    ba28:	02012b03          	lw	x22,32(x2)
    ba2c:	bf9ff06f          	j	b624 <f_lseek+0xcc>
    ba30:	00050a13          	mv	x20,x10
    ba34:	02012b03          	lw	x22,32(x2)
    ba38:	bedff06f          	j	b624 <f_lseek+0xcc>
    ba3c:	02912a23          	sw	x9,52(x2)
    ba40:	03512223          	sw	x21,36(x2)
    ba44:	03842703          	lw	x14,56(x8)
    ba48:	03c42783          	lw	x15,60(x8)
    ba4c:	00000613          	li	x12,0
    ba50:	00000693          	li	x13,0
    ba54:	02c42c23          	sw	x12,56(x8)
    ba58:	02d42e23          	sw	x13,60(x8)
    ba5c:	bf1ff06f          	j	b64c <f_lseek+0xf4>
    ba60:	03412483          	lw	x9,52(x2)
    ba64:	02412a83          	lw	x21,36(x2)
    ba68:	02012b03          	lw	x22,32(x2)
    ba6c:	bb9ff06f          	j	b624 <f_lseek+0xcc>
    ba70:	03412483          	lw	x9,52(x2)
    ba74:	02412a83          	lw	x21,36(x2)
    ba78:	02012b03          	lw	x22,32(x2)
    ba7c:	ba9ff06f          	j	b624 <f_lseek+0xcc>

0000ba80 <f_opendir>:
    ba80:	fd010113          	add	x2,x2,-48
    ba84:	02112623          	sw	x1,44(x2)
    ba88:	00b12623          	sw	x11,12(x2)
    ba8c:	10050063          	beqz	x10,bb8c <f_opendir+0x10c>
    ba90:	02812423          	sw	x8,40(x2)
    ba94:	00050413          	mv	x8,x10
    ba98:	00000613          	li	x12,0
    ba9c:	01c10593          	add	x11,x2,28
    baa0:	00c10513          	add	x10,x2,12
    baa4:	921fc0ef          	jal	83c4 <mount_volume>
    baa8:	00050c63          	beqz	x10,bac0 <f_opendir+0x40>
    baac:	00042023          	sw	x0,0(x8)
    bab0:	02812403          	lw	x8,40(x2)
    bab4:	02c12083          	lw	x1,44(x2)
    bab8:	03010113          	add	x2,x2,48
    babc:	00008067          	ret
    bac0:	02912223          	sw	x9,36(x2)
    bac4:	01c12483          	lw	x9,28(x2)
    bac8:	00942023          	sw	x9,0(x8)
    bacc:	00c12583          	lw	x11,12(x2)
    bad0:	00040513          	mv	x10,x8
    bad4:	ab8fe0ef          	jal	9d8c <follow_path>
    bad8:	04051463          	bnez	x10,bb20 <f_opendir+0xa0>
    badc:	04b40783          	lb	x15,75(x8)
    bae0:	0207c663          	bltz	x15,bb0c <f_opendir+0x8c>
    bae4:	00644783          	lbu	x15,6(x8)
    bae8:	0107f793          	and	x15,x15,16
    baec:	08078463          	beqz	x15,bb74 <f_opendir+0xf4>
    baf0:	0004c703          	lbu	x14,0(x9)
    baf4:	00400793          	li	x15,4
    baf8:	04f70063          	beq	x14,x15,bb38 <f_opendir+0xb8>
    bafc:	03c42583          	lw	x11,60(x8)
    bb00:	00048513          	mv	x10,x9
    bb04:	a40fe0ef          	jal	9d44 <ld_clust>
    bb08:	00a42423          	sw	x10,8(x8)
    bb0c:	0064d783          	lhu	x15,6(x9)
    bb10:	00f41223          	sh	x15,4(x8)
    bb14:	00000593          	li	x11,0
    bb18:	00040513          	mv	x10,x8
    bb1c:	d24fb0ef          	jal	7040 <dir_sdi>
    bb20:	00400793          	li	x15,4
    bb24:	04f50e63          	beq	x10,x15,bb80 <f_opendir+0x100>
    bb28:	04051263          	bnez	x10,bb6c <f_opendir+0xec>
    bb2c:	02812403          	lw	x8,40(x2)
    bb30:	02412483          	lw	x9,36(x2)
    bb34:	f81ff06f          	j	bab4 <f_opendir+0x34>
    bb38:	00842783          	lw	x15,8(x8)
    bb3c:	02f42023          	sw	x15,32(x8)
    bb40:	01042783          	lw	x15,16(x8)
    bb44:	f007f793          	and	x15,x15,-256
    bb48:	00744703          	lbu	x14,7(x8)
    bb4c:	00e7e7b3          	or	x15,x15,x14
    bb50:	02f42223          	sw	x15,36(x8)
    bb54:	04c42783          	lw	x15,76(x8)
    bb58:	02f42423          	sw	x15,40(x8)
    bb5c:	00040593          	mv	x11,x8
    bb60:	00048513          	mv	x10,x9
    bb64:	f85f90ef          	jal	5ae8 <init_alloc_info>
    bb68:	fa5ff06f          	j	bb0c <f_opendir+0x8c>
    bb6c:	02412483          	lw	x9,36(x2)
    bb70:	f3dff06f          	j	baac <f_opendir+0x2c>
    bb74:	00500513          	li	x10,5
    bb78:	02412483          	lw	x9,36(x2)
    bb7c:	f31ff06f          	j	baac <f_opendir+0x2c>
    bb80:	00500513          	li	x10,5
    bb84:	02412483          	lw	x9,36(x2)
    bb88:	f25ff06f          	j	baac <f_opendir+0x2c>
    bb8c:	00900513          	li	x10,9
    bb90:	f25ff06f          	j	bab4 <f_opendir+0x34>

0000bb94 <f_closedir>:
    bb94:	fe010113          	add	x2,x2,-32
    bb98:	00112e23          	sw	x1,28(x2)
    bb9c:	00812c23          	sw	x8,24(x2)
    bba0:	00050413          	mv	x8,x10
    bba4:	00c10593          	add	x11,x2,12
    bba8:	b24fa0ef          	jal	5ecc <validate>
    bbac:	00051463          	bnez	x10,bbb4 <f_closedir+0x20>
    bbb0:	00042023          	sw	x0,0(x8)
    bbb4:	01c12083          	lw	x1,28(x2)
    bbb8:	01812403          	lw	x8,24(x2)
    bbbc:	02010113          	add	x2,x2,32
    bbc0:	00008067          	ret

0000bbc4 <f_readdir>:
    bbc4:	fe010113          	add	x2,x2,-32
    bbc8:	00112e23          	sw	x1,28(x2)
    bbcc:	00812c23          	sw	x8,24(x2)
    bbd0:	00912a23          	sw	x9,20(x2)
    bbd4:	00050413          	mv	x8,x10
    bbd8:	00058493          	mv	x9,x11
    bbdc:	00c10593          	add	x11,x2,12
    bbe0:	aecfa0ef          	jal	5ecc <validate>
    bbe4:	02051263          	bnez	x10,bc08 <f_readdir+0x44>
    bbe8:	02048a63          	beqz	x9,bc1c <f_readdir+0x58>
    bbec:	01212823          	sw	x18,16(x2)
    bbf0:	00000593          	li	x11,0
    bbf4:	00040513          	mv	x10,x8
    bbf8:	aa0fd0ef          	jal	8e98 <dir_read>
    bbfc:	ffb57913          	and	x18,x10,-5
    bc00:	02090663          	beqz	x18,bc2c <f_readdir+0x68>
    bc04:	01012903          	lw	x18,16(x2)
    bc08:	01c12083          	lw	x1,28(x2)
    bc0c:	01812403          	lw	x8,24(x2)
    bc10:	01412483          	lw	x9,20(x2)
    bc14:	02010113          	add	x2,x2,32
    bc18:	00008067          	ret
    bc1c:	00000593          	li	x11,0
    bc20:	00040513          	mv	x10,x8
    bc24:	c1cfb0ef          	jal	7040 <dir_sdi>
    bc28:	fe1ff06f          	j	bc08 <f_readdir+0x44>
    bc2c:	00048593          	mv	x11,x9
    bc30:	00040513          	mv	x10,x8
    bc34:	cb5fa0ef          	jal	68e8 <get_fileinfo>
    bc38:	00000593          	li	x11,0
    bc3c:	00040513          	mv	x10,x8
    bc40:	e59fb0ef          	jal	7a98 <dir_next>
    bc44:	00400793          	li	x15,4
    bc48:	00f50663          	beq	x10,x15,bc54 <f_readdir+0x90>
    bc4c:	01012903          	lw	x18,16(x2)
    bc50:	fb9ff06f          	j	bc08 <f_readdir+0x44>
    bc54:	00090513          	mv	x10,x18
    bc58:	01012903          	lw	x18,16(x2)
    bc5c:	fadff06f          	j	bc08 <f_readdir+0x44>

0000bc60 <f_stat>:
    bc60:	f9010113          	add	x2,x2,-112
    bc64:	06112623          	sw	x1,108(x2)
    bc68:	06812423          	sw	x8,104(x2)
    bc6c:	06912223          	sw	x9,100(x2)
    bc70:	00a12623          	sw	x10,12(x2)
    bc74:	00058493          	mv	x9,x11
    bc78:	00000613          	li	x12,0
    bc7c:	01010593          	add	x11,x2,16
    bc80:	00c10513          	add	x10,x2,12
    bc84:	f40fc0ef          	jal	83c4 <mount_volume>
    bc88:	00050413          	mv	x8,x10
    bc8c:	00050e63          	beqz	x10,bca8 <f_stat+0x48>
    bc90:	00040513          	mv	x10,x8
    bc94:	06c12083          	lw	x1,108(x2)
    bc98:	06812403          	lw	x8,104(x2)
    bc9c:	06412483          	lw	x9,100(x2)
    bca0:	07010113          	add	x2,x2,112
    bca4:	00008067          	ret
    bca8:	00c12583          	lw	x11,12(x2)
    bcac:	01010513          	add	x10,x2,16
    bcb0:	8dcfe0ef          	jal	9d8c <follow_path>
    bcb4:	00050413          	mv	x8,x10
    bcb8:	fc051ce3          	bnez	x10,bc90 <f_stat+0x30>
    bcbc:	05b10783          	lb	x15,91(x2)
    bcc0:	0007cc63          	bltz	x15,bcd8 <f_stat+0x78>
    bcc4:	fc0486e3          	beqz	x9,bc90 <f_stat+0x30>
    bcc8:	00048593          	mv	x11,x9
    bccc:	01010513          	add	x10,x2,16
    bcd0:	c19fa0ef          	jal	68e8 <get_fileinfo>
    bcd4:	fbdff06f          	j	bc90 <f_stat+0x30>
    bcd8:	00600413          	li	x8,6
    bcdc:	fb5ff06f          	j	bc90 <f_stat+0x30>

0000bce0 <f_getfree>:
    bce0:	f8010113          	add	x2,x2,-128
    bce4:	06112e23          	sw	x1,124(x2)
    bce8:	06812c23          	sw	x8,120(x2)
    bcec:	07312623          	sw	x19,108(x2)
    bcf0:	07412423          	sw	x20,104(x2)
    bcf4:	00a12623          	sw	x10,12(x2)
    bcf8:	00058a13          	mv	x20,x11
    bcfc:	00060413          	mv	x8,x12
    bd00:	00000613          	li	x12,0
    bd04:	04c10593          	add	x11,x2,76
    bd08:	00c10513          	add	x10,x2,12
    bd0c:	eb8fc0ef          	jal	83c4 <mount_volume>
    bd10:	00050993          	mv	x19,x10
    bd14:	02051863          	bnez	x10,bd44 <f_getfree+0x64>
    bd18:	07212823          	sw	x18,112(x2)
    bd1c:	07512223          	sw	x21,100(x2)
    bd20:	04c12903          	lw	x18,76(x2)
    bd24:	01242023          	sw	x18,0(x8)
    bd28:	01892783          	lw	x15,24(x18)
    bd2c:	01c92a83          	lw	x21,28(x18)
    bd30:	ffea8413          	add	x8,x21,-2
    bd34:	02f46663          	bltu	x8,x15,bd60 <f_getfree+0x80>
    bd38:	00fa2023          	sw	x15,0(x20)
    bd3c:	07012903          	lw	x18,112(x2)
    bd40:	06412a83          	lw	x21,100(x2)
    bd44:	00098513          	mv	x10,x19
    bd48:	07c12083          	lw	x1,124(x2)
    bd4c:	07812403          	lw	x8,120(x2)
    bd50:	06c12983          	lw	x19,108(x2)
    bd54:	06812a03          	lw	x20,104(x2)
    bd58:	08010113          	add	x2,x2,128
    bd5c:	00008067          	ret
    bd60:	06912a23          	sw	x9,116(x2)
    bd64:	07612023          	sw	x22,96(x2)
    bd68:	00094783          	lbu	x15,0(x18)
    bd6c:	00100713          	li	x14,1
    bd70:	02e78e63          	beq	x15,x14,bdac <f_getfree+0xcc>
    bd74:	00400713          	li	x14,4
    bd78:	06e78a63          	beq	x15,x14,bdec <f_getfree+0x10c>
    bd7c:	05712e23          	sw	x23,92(x2)
    bd80:	05812c23          	sw	x24,88(x2)
    bd84:	05912a23          	sw	x25,84(x2)
    bd88:	05a12823          	sw	x26,80(x2)
    bd8c:	02892c03          	lw	x24,40(x18)
    bd90:	00050413          	mv	x8,x10
    bd94:	00050493          	mv	x9,x10
    bd98:	00200b93          	li	x23,2
    bd9c:	03c90b13          	add	x22,x18,60
    bda0:	10000cb7          	lui	x25,0x10000
    bda4:	fffc8c93          	add	x25,x25,-1 # fffffff <STACK_TOP+0xfefffff>
    bda8:	1140006f          	j	bebc <f_getfree+0x1dc>
    bdac:	01212c23          	sw	x18,24(x2)
    bdb0:	00050493          	mv	x9,x10
    bdb4:	00200413          	li	x8,2
    bdb8:	fff00a93          	li	x21,-1
    bdbc:	00100b13          	li	x22,1
    bdc0:	00040593          	mv	x11,x8
    bdc4:	01810513          	add	x10,x2,24
    bdc8:	fb5fa0ef          	jal	6d7c <get_fat>
    bdcc:	13550e63          	beq	x10,x21,bf08 <f_getfree+0x228>
    bdd0:	15650863          	beq	x10,x22,bf20 <f_getfree+0x240>
    bdd4:	00153513          	seqz	x10,x10
    bdd8:	00a484b3          	add	x9,x9,x10
    bddc:	00140413          	add	x8,x8,1
    bde0:	01c92783          	lw	x15,28(x18)
    bde4:	fcf46ee3          	bltu	x8,x15,bdc0 <f_getfree+0xe0>
    bde8:	06c0006f          	j	be54 <f_getfree+0x174>
    bdec:	03492583          	lw	x11,52(x18)
    bdf0:	00050a93          	mv	x21,x10
    bdf4:	00050493          	mv	x9,x10
    bdf8:	0280006f          	j	be20 <f_getfree+0x140>
    bdfc:	00158b13          	add	x22,x11,1
    be00:	00090513          	mv	x10,x18
    be04:	a28fa0ef          	jal	602c <move_window>
    be08:	12051863          	bnez	x10,bf38 <f_getfree+0x258>
    be0c:	000b0593          	mv	x11,x22
    be10:	0140006f          	j	be24 <f_getfree+0x144>
    be14:	001a8a93          	add	x21,x21,1
    be18:	1ffafa93          	and	x21,x21,511
    be1c:	02040c63          	beqz	x8,be54 <f_getfree+0x174>
    be20:	fc0a8ee3          	beqz	x21,bdfc <f_getfree+0x11c>
    be24:	015907b3          	add	x15,x18,x21
    be28:	03c7c783          	lbu	x15,60(x15)
    be2c:	fff7c793          	not	x15,x15
    be30:	0ff7f793          	zext.b	x15,x15
    be34:	02040063          	beqz	x8,be54 <f_getfree+0x174>
    be38:	ff840693          	add	x13,x8,-8
    be3c:	0017f713          	and	x14,x15,1
    be40:	00e484b3          	add	x9,x9,x14
    be44:	0017d793          	srl	x15,x15,0x1
    be48:	fff40413          	add	x8,x8,-1
    be4c:	fcd404e3          	beq	x8,x13,be14 <f_getfree+0x134>
    be50:	fe0416e3          	bnez	x8,be3c <f_getfree+0x15c>
    be54:	009a2023          	sw	x9,0(x20)
    be58:	00992c23          	sw	x9,24(x18)
    be5c:	00594783          	lbu	x15,5(x18)
    be60:	0017e793          	or	x15,x15,1
    be64:	00f902a3          	sb	x15,5(x18)
    be68:	07412483          	lw	x9,116(x2)
    be6c:	07012903          	lw	x18,112(x2)
    be70:	06412a83          	lw	x21,100(x2)
    be74:	06012b03          	lw	x22,96(x2)
    be78:	ecdff06f          	j	bd44 <f_getfree+0x64>
    be7c:	001c0d13          	add	x26,x24,1
    be80:	000c0593          	mv	x11,x24
    be84:	00090513          	mv	x10,x18
    be88:	9a4fa0ef          	jal	602c <move_window>
    be8c:	0c051263          	bnez	x10,bf50 <f_getfree+0x270>
    be90:	000d0c13          	mv	x24,x26
    be94:	02c0006f          	j	bec0 <f_getfree+0x1e0>
    be98:	008b0533          	add	x10,x22,x8
    be9c:	a95f90ef          	jal	5930 <ld_dword>
    bea0:	01957533          	and	x10,x10,x25
    bea4:	00153513          	seqz	x10,x10
    bea8:	00a484b3          	add	x9,x9,x10
    beac:	00440413          	add	x8,x8,4
    beb0:	1ff47413          	and	x8,x8,511
    beb4:	fffa8a93          	add	x21,x21,-1
    beb8:	020a8e63          	beqz	x21,bef4 <f_getfree+0x214>
    bebc:	fc0400e3          	beqz	x8,be7c <f_getfree+0x19c>
    bec0:	00094783          	lbu	x15,0(x18)
    bec4:	fd779ae3          	bne	x15,x23,be98 <f_getfree+0x1b8>
    bec8:	008b0733          	add	x14,x22,x8
    becc:	00174783          	lbu	x15,1(x14)
    bed0:	00879793          	sll	x15,x15,0x8
    bed4:	00074703          	lbu	x14,0(x14)
    bed8:	00e7e7b3          	or	x15,x15,x14
    bedc:	01079793          	sll	x15,x15,0x10
    bee0:	4107d793          	sra	x15,x15,0x10
    bee4:	0017b793          	seqz	x15,x15
    bee8:	00f484b3          	add	x9,x9,x15
    beec:	00240413          	add	x8,x8,2
    bef0:	fc1ff06f          	j	beb0 <f_getfree+0x1d0>
    bef4:	05c12b83          	lw	x23,92(x2)
    bef8:	05812c03          	lw	x24,88(x2)
    befc:	05412c83          	lw	x25,84(x2)
    bf00:	05012d03          	lw	x26,80(x2)
    bf04:	f51ff06f          	j	be54 <f_getfree+0x174>
    bf08:	00100993          	li	x19,1
    bf0c:	07412483          	lw	x9,116(x2)
    bf10:	07012903          	lw	x18,112(x2)
    bf14:	06412a83          	lw	x21,100(x2)
    bf18:	06012b03          	lw	x22,96(x2)
    bf1c:	e29ff06f          	j	bd44 <f_getfree+0x64>
    bf20:	00200993          	li	x19,2
    bf24:	07412483          	lw	x9,116(x2)
    bf28:	07012903          	lw	x18,112(x2)
    bf2c:	06412a83          	lw	x21,100(x2)
    bf30:	06012b03          	lw	x22,96(x2)
    bf34:	e11ff06f          	j	bd44 <f_getfree+0x64>
    bf38:	00050993          	mv	x19,x10
    bf3c:	07412483          	lw	x9,116(x2)
    bf40:	07012903          	lw	x18,112(x2)
    bf44:	06412a83          	lw	x21,100(x2)
    bf48:	06012b03          	lw	x22,96(x2)
    bf4c:	df9ff06f          	j	bd44 <f_getfree+0x64>
    bf50:	00050993          	mv	x19,x10
    bf54:	07412483          	lw	x9,116(x2)
    bf58:	07012903          	lw	x18,112(x2)
    bf5c:	06412a83          	lw	x21,100(x2)
    bf60:	06012b03          	lw	x22,96(x2)
    bf64:	05c12b83          	lw	x23,92(x2)
    bf68:	05812c03          	lw	x24,88(x2)
    bf6c:	05412c83          	lw	x25,84(x2)
    bf70:	05012d03          	lw	x26,80(x2)
    bf74:	dd1ff06f          	j	bd44 <f_getfree+0x64>

0000bf78 <f_truncate>:
    bf78:	fe010113          	add	x2,x2,-32
    bf7c:	00112e23          	sw	x1,28(x2)
    bf80:	00812c23          	sw	x8,24(x2)
    bf84:	00912a23          	sw	x9,20(x2)
    bf88:	00050413          	mv	x8,x10
    bf8c:	00c10593          	add	x11,x2,12
    bf90:	f3df90ef          	jal	5ecc <validate>
    bf94:	00050493          	mv	x9,x10
    bf98:	10051e63          	bnez	x10,c0b4 <f_truncate+0x13c>
    bf9c:	03144483          	lbu	x9,49(x8)
    bfa0:	10049a63          	bnez	x9,c0b4 <f_truncate+0x13c>
    bfa4:	03044783          	lbu	x15,48(x8)
    bfa8:	0027f793          	and	x15,x15,2
    bfac:	10078263          	beqz	x15,c0b0 <f_truncate+0x138>
    bfb0:	03842703          	lw	x14,56(x8)
    bfb4:	03c42783          	lw	x15,60(x8)
    bfb8:	01442683          	lw	x13,20(x8)
    bfbc:	00d7e863          	bltu	x15,x13,bfcc <f_truncate+0x54>
    bfc0:	0ef69a63          	bne	x13,x15,c0b4 <f_truncate+0x13c>
    bfc4:	01042683          	lw	x13,16(x8)
    bfc8:	0ed77663          	bgeu	x14,x13,c0b4 <f_truncate+0x13c>
    bfcc:	00f76733          	or	x14,x14,x15
    bfd0:	06071a63          	bnez	x14,c044 <f_truncate+0xcc>
    bfd4:	00000613          	li	x12,0
    bfd8:	00842583          	lw	x11,8(x8)
    bfdc:	00040513          	mv	x10,x8
    bfe0:	eb8fb0ef          	jal	7698 <remove_chain>
    bfe4:	00042423          	sw	x0,8(x8)
    bfe8:	03842703          	lw	x14,56(x8)
    bfec:	03c42783          	lw	x15,60(x8)
    bff0:	00e42823          	sw	x14,16(x8)
    bff4:	00f42a23          	sw	x15,20(x8)
    bff8:	03044783          	lbu	x15,48(x8)
    bffc:	0407e793          	or	x15,x15,64
    c000:	02f40823          	sb	x15,48(x8)
    c004:	08051e63          	bnez	x10,c0a0 <f_truncate+0x128>
    c008:	01879793          	sll	x15,x15,0x18
    c00c:	4187d793          	sra	x15,x15,0x18
    c010:	0a07d263          	bgez	x15,c0b4 <f_truncate+0x13c>
    c014:	00100693          	li	x13,1
    c018:	04442603          	lw	x12,68(x8)
    c01c:	05040593          	add	x11,x8,80
    c020:	00c12783          	lw	x15,12(x2)
    c024:	0017c503          	lbu	x10,1(x15)
    c028:	899f90ef          	jal	58c0 <disk_write>
    c02c:	00050493          	mv	x9,x10
    c030:	06051c63          	bnez	x10,c0a8 <f_truncate+0x130>
    c034:	03044783          	lbu	x15,48(x8)
    c038:	07f7f793          	and	x15,x15,127
    c03c:	02f40823          	sb	x15,48(x8)
    c040:	0740006f          	j	c0b4 <f_truncate+0x13c>
    c044:	04042583          	lw	x11,64(x8)
    c048:	00040513          	mv	x10,x8
    c04c:	d31fa0ef          	jal	6d7c <get_fat>
    c050:	fff00793          	li	x15,-1
    c054:	06f50c63          	beq	x10,x15,c0cc <f_truncate+0x154>
    c058:	00100793          	li	x15,1
    c05c:	08f50c63          	beq	x10,x15,c0f4 <f_truncate+0x17c>
    c060:	00c12783          	lw	x15,12(x2)
    c064:	01c7a783          	lw	x15,28(x15)
    c068:	02f56263          	bltu	x10,x15,c08c <f_truncate+0x114>
    c06c:	03842703          	lw	x14,56(x8)
    c070:	03c42783          	lw	x15,60(x8)
    c074:	00e42823          	sw	x14,16(x8)
    c078:	00f42a23          	sw	x15,20(x8)
    c07c:	03044783          	lbu	x15,48(x8)
    c080:	0407e793          	or	x15,x15,64
    c084:	02f40823          	sb	x15,48(x8)
    c088:	f81ff06f          	j	c008 <f_truncate+0x90>
    c08c:	04042603          	lw	x12,64(x8)
    c090:	00050593          	mv	x11,x10
    c094:	00040513          	mv	x10,x8
    c098:	e00fb0ef          	jal	7698 <remove_chain>
    c09c:	f4dff06f          	j	bfe8 <f_truncate+0x70>
    c0a0:	00050493          	mv	x9,x10
    c0a4:	0480006f          	j	c0ec <f_truncate+0x174>
    c0a8:	00100493          	li	x9,1
    c0ac:	0400006f          	j	c0ec <f_truncate+0x174>
    c0b0:	00700493          	li	x9,7
    c0b4:	00048513          	mv	x10,x9
    c0b8:	01c12083          	lw	x1,28(x2)
    c0bc:	01812403          	lw	x8,24(x2)
    c0c0:	01412483          	lw	x9,20(x2)
    c0c4:	02010113          	add	x2,x2,32
    c0c8:	00008067          	ret
    c0cc:	00100493          	li	x9,1
    c0d0:	03842703          	lw	x14,56(x8)
    c0d4:	03c42783          	lw	x15,60(x8)
    c0d8:	00e42823          	sw	x14,16(x8)
    c0dc:	00f42a23          	sw	x15,20(x8)
    c0e0:	03044783          	lbu	x15,48(x8)
    c0e4:	0407e793          	or	x15,x15,64
    c0e8:	02f40823          	sb	x15,48(x8)
    c0ec:	029408a3          	sb	x9,49(x8)
    c0f0:	fc5ff06f          	j	c0b4 <f_truncate+0x13c>
    c0f4:	00200493          	li	x9,2
    c0f8:	fd9ff06f          	j	c0d0 <f_truncate+0x158>

0000c0fc <f_unlink>:
    c0fc:	f0010113          	add	x2,x2,-256
    c100:	0e112e23          	sw	x1,252(x2)
    c104:	00a12623          	sw	x10,12(x2)
    c108:	00200613          	li	x12,2
    c10c:	0ec10593          	add	x11,x2,236
    c110:	00c10513          	add	x10,x2,12
    c114:	ab0fc0ef          	jal	83c4 <mount_volume>
    c118:	00050863          	beqz	x10,c128 <f_unlink+0x2c>
    c11c:	0fc12083          	lw	x1,252(x2)
    c120:	10010113          	add	x2,x2,256
    c124:	00008067          	ret
    c128:	0e812c23          	sw	x8,248(x2)
    c12c:	0ec12403          	lw	x8,236(x2)
    c130:	08812c23          	sw	x8,152(x2)
    c134:	00c12583          	lw	x11,12(x2)
    c138:	09810513          	add	x10,x2,152
    c13c:	c51fd0ef          	jal	9d8c <follow_path>
    c140:	12051e63          	bnez	x10,c27c <f_unlink+0x180>
    c144:	0e310783          	lb	x15,227(x2)
    c148:	00600513          	li	x10,6
    c14c:	1207cc63          	bltz	x15,c284 <f_unlink+0x188>
    c150:	0e912a23          	sw	x9,244(x2)
    c154:	09e14483          	lbu	x9,158(x2)
    c158:	0014f793          	and	x15,x9,1
    c15c:	00700513          	li	x10,7
    c160:	12079663          	bnez	x15,c28c <f_unlink+0x190>
    c164:	0f212823          	sw	x18,240(x2)
    c168:	00812c23          	sw	x8,24(x2)
    c16c:	00044703          	lbu	x14,0(x8)
    c170:	00400793          	li	x15,4
    c174:	04f70263          	beq	x14,x15,c1b8 <f_unlink+0xbc>
    c178:	0d412583          	lw	x11,212(x2)
    c17c:	00040513          	mv	x10,x8
    c180:	bc5fd0ef          	jal	9d44 <ld_clust>
    c184:	00050913          	mv	x18,x10
    c188:	0104f493          	and	x9,x9,16
    c18c:	0c049463          	bnez	x9,c254 <f_unlink+0x158>
    c190:	09810513          	add	x10,x2,152
    c194:	be9fb0ef          	jal	7d7c <dir_remove>
    c198:	10051063          	bnez	x10,c298 <f_unlink+0x19c>
    c19c:	08091063          	bnez	x18,c21c <f_unlink+0x120>
    c1a0:	00040513          	mv	x10,x8
    c1a4:	9f8fa0ef          	jal	639c <sync_fs>
    c1a8:	0f812403          	lw	x8,248(x2)
    c1ac:	0f412483          	lw	x9,244(x2)
    c1b0:	0f012903          	lw	x18,240(x2)
    c1b4:	f69ff06f          	j	c11c <f_unlink+0x20>
    c1b8:	01810593          	add	x11,x2,24
    c1bc:	00040513          	mv	x10,x8
    c1c0:	929f90ef          	jal	5ae8 <init_alloc_info>
    c1c4:	02012903          	lw	x18,32(x2)
    c1c8:	0104f493          	and	x9,x9,16
    c1cc:	fc0482e3          	beqz	x9,c190 <f_unlink+0x94>
    c1d0:	04812423          	sw	x8,72(x2)
    c1d4:	05212823          	sw	x18,80(x2)
    c1d8:	02812703          	lw	x14,40(x2)
    c1dc:	02c12783          	lw	x15,44(x2)
    c1e0:	04e12c23          	sw	x14,88(x2)
    c1e4:	04f12e23          	sw	x15,92(x2)
    c1e8:	01f14783          	lbu	x15,31(x2)
    c1ec:	04f107a3          	sb	x15,79(x2)
    c1f0:	06c0006f          	j	c25c <f_unlink+0x160>
    c1f4:	00000593          	li	x11,0
    c1f8:	04810513          	add	x10,x2,72
    c1fc:	c9dfc0ef          	jal	8e98 <dir_read>
    c200:	04050063          	beqz	x10,c240 <f_unlink+0x144>
    c204:	00400793          	li	x15,4
    c208:	f8f504e3          	beq	x10,x15,c190 <f_unlink+0x94>
    c20c:	0f812403          	lw	x8,248(x2)
    c210:	0f412483          	lw	x9,244(x2)
    c214:	0f012903          	lw	x18,240(x2)
    c218:	f05ff06f          	j	c11c <f_unlink+0x20>
    c21c:	00000613          	li	x12,0
    c220:	00090593          	mv	x11,x18
    c224:	01810513          	add	x10,x2,24
    c228:	c70fb0ef          	jal	7698 <remove_chain>
    c22c:	f6050ae3          	beqz	x10,c1a0 <f_unlink+0xa4>
    c230:	0f812403          	lw	x8,248(x2)
    c234:	0f412483          	lw	x9,244(x2)
    c238:	0f012903          	lw	x18,240(x2)
    c23c:	ee1ff06f          	j	c11c <f_unlink+0x20>
    c240:	00700513          	li	x10,7
    c244:	0f812403          	lw	x8,248(x2)
    c248:	0f412483          	lw	x9,244(x2)
    c24c:	0f012903          	lw	x18,240(x2)
    c250:	ecdff06f          	j	c11c <f_unlink+0x20>
    c254:	04812423          	sw	x8,72(x2)
    c258:	04a12823          	sw	x10,80(x2)
    c25c:	00000593          	li	x11,0
    c260:	04810513          	add	x10,x2,72
    c264:	dddfa0ef          	jal	7040 <dir_sdi>
    c268:	f80506e3          	beqz	x10,c1f4 <f_unlink+0xf8>
    c26c:	0f812403          	lw	x8,248(x2)
    c270:	0f412483          	lw	x9,244(x2)
    c274:	0f012903          	lw	x18,240(x2)
    c278:	ea5ff06f          	j	c11c <f_unlink+0x20>
    c27c:	0f812403          	lw	x8,248(x2)
    c280:	e9dff06f          	j	c11c <f_unlink+0x20>
    c284:	0f812403          	lw	x8,248(x2)
    c288:	e95ff06f          	j	c11c <f_unlink+0x20>
    c28c:	0f812403          	lw	x8,248(x2)
    c290:	0f412483          	lw	x9,244(x2)
    c294:	e89ff06f          	j	c11c <f_unlink+0x20>
    c298:	0f812403          	lw	x8,248(x2)
    c29c:	0f412483          	lw	x9,244(x2)
    c2a0:	0f012903          	lw	x18,240(x2)
    c2a4:	e79ff06f          	j	c11c <f_unlink+0x20>

0000c2a8 <f_mkdir>:
    c2a8:	f4010113          	add	x2,x2,-192
    c2ac:	0a112e23          	sw	x1,188(x2)
    c2b0:	0a812c23          	sw	x8,184(x2)
    c2b4:	00a12623          	sw	x10,12(x2)
    c2b8:	00200613          	li	x12,2
    c2bc:	09c10593          	add	x11,x2,156
    c2c0:	00c10513          	add	x10,x2,12
    c2c4:	900fc0ef          	jal	83c4 <mount_volume>
    c2c8:	00050413          	mv	x8,x10
    c2cc:	00050c63          	beqz	x10,c2e4 <f_mkdir+0x3c>
    c2d0:	00040513          	mv	x10,x8
    c2d4:	0bc12083          	lw	x1,188(x2)
    c2d8:	0b812403          	lw	x8,184(x2)
    c2dc:	0c010113          	add	x2,x2,192
    c2e0:	00008067          	ret
    c2e4:	0a912a23          	sw	x9,180(x2)
    c2e8:	09c12483          	lw	x9,156(x2)
    c2ec:	04912423          	sw	x9,72(x2)
    c2f0:	00c12583          	lw	x11,12(x2)
    c2f4:	04810513          	add	x10,x2,72
    c2f8:	a95fd0ef          	jal	9d8c <follow_path>
    c2fc:	00050413          	mv	x8,x10
    c300:	24050c63          	beqz	x10,c558 <f_mkdir+0x2b0>
    c304:	00400793          	li	x15,4
    c308:	00f50663          	beq	x10,x15,c314 <f_mkdir+0x6c>
    c30c:	0b412483          	lw	x9,180(x2)
    c310:	fc1ff06f          	j	c2d0 <f_mkdir+0x28>
    c314:	0b212823          	sw	x18,176(x2)
    c318:	00912c23          	sw	x9,24(x2)
    c31c:	00000593          	li	x11,0
    c320:	01810513          	add	x10,x2,24
    c324:	ec5fa0ef          	jal	71e8 <create_chain>
    c328:	00050913          	mv	x18,x10
    c32c:	1e050a63          	beqz	x10,c520 <f_mkdir+0x278>
    c330:	00100793          	li	x15,1
    c334:	20f50663          	beq	x10,x15,c540 <f_mkdir+0x298>
    c338:	fff00793          	li	x15,-1
    c33c:	00100413          	li	x8,1
    c340:	1ef50263          	beq	x10,x15,c524 <f_mkdir+0x27c>
    c344:	0b312623          	sw	x19,172(x2)
    c348:	00090593          	mv	x11,x18
    c34c:	00048513          	mv	x10,x9
    c350:	e89f90ef          	jal	61d8 <dir_clear>
    c354:	00050413          	mv	x8,x10
    c358:	1e051863          	bnez	x10,c548 <f_mkdir+0x2a0>
    c35c:	0004c703          	lbu	x14,0(x9)
    c360:	00400793          	li	x15,4
    c364:	06f71e63          	bne	x14,x15,c3e0 <f_mkdir+0x138>
    c368:	04810513          	add	x10,x2,72
    c36c:	a24fd0ef          	jal	9590 <dir_register>
    c370:	00050413          	mv	x8,x10
    c374:	1c051e63          	bnez	x10,c550 <f_mkdir+0x2a8>
    c378:	0004c703          	lbu	x14,0(x9)
    c37c:	00400793          	li	x15,4
    c380:	0ef70263          	beq	x14,x15,c464 <f_mkdir+0x1bc>
    c384:	08412783          	lw	x15,132(x2)
    c388:	00078b23          	sb	x0,22(x15)
    c38c:	00078ba3          	sb	x0,23(x15)
    c390:	03500713          	li	x14,53
    c394:	00e78c23          	sb	x14,24(x15)
    c398:	05800713          	li	x14,88
    c39c:	00e78ca3          	sb	x14,25(x15)
    c3a0:	00090613          	mv	x12,x18
    c3a4:	08412583          	lw	x11,132(x2)
    c3a8:	00048513          	mv	x10,x9
    c3ac:	d04fa0ef          	jal	68b0 <st_clust>
    c3b0:	08412783          	lw	x15,132(x2)
    c3b4:	01000713          	li	x14,16
    c3b8:	00e785a3          	sb	x14,11(x15)
    c3bc:	00100793          	li	x15,1
    c3c0:	00f48223          	sb	x15,4(x9)
    c3c4:	00048513          	mv	x10,x9
    c3c8:	fd5f90ef          	jal	639c <sync_fs>
    c3cc:	00050413          	mv	x8,x10
    c3d0:	0b412483          	lw	x9,180(x2)
    c3d4:	0b012903          	lw	x18,176(x2)
    c3d8:	0ac12983          	lw	x19,172(x2)
    c3dc:	ef5ff06f          	j	c2d0 <f_mkdir+0x28>
    c3e0:	03c48413          	add	x8,x9,60
    c3e4:	00b00613          	li	x12,11
    c3e8:	02000593          	li	x11,32
    c3ec:	00040513          	mv	x10,x8
    c3f0:	b88f80ef          	jal	4778 <memset>
    c3f4:	02e00993          	li	x19,46
    c3f8:	03348e23          	sb	x19,60(x9)
    c3fc:	01000793          	li	x15,16
    c400:	04f483a3          	sb	x15,71(x9)
    c404:	04048923          	sb	x0,82(x9)
    c408:	040489a3          	sb	x0,83(x9)
    c40c:	03500793          	li	x15,53
    c410:	04f48a23          	sb	x15,84(x9)
    c414:	05800793          	li	x15,88
    c418:	04f48aa3          	sb	x15,85(x9)
    c41c:	00090613          	mv	x12,x18
    c420:	00040593          	mv	x11,x8
    c424:	00048513          	mv	x10,x9
    c428:	c88fa0ef          	jal	68b0 <st_clust>
    c42c:	05c48793          	add	x15,x9,92
    c430:	02000613          	li	x12,32
    c434:	00040593          	mv	x11,x8
    c438:	00078413          	mv	x8,x15
    c43c:	00078513          	mv	x10,x15
    c440:	abcf80ef          	jal	46fc <memcpy>
    c444:	05348ea3          	sb	x19,93(x9)
    c448:	05012603          	lw	x12,80(x2)
    c44c:	00040593          	mv	x11,x8
    c450:	00048513          	mv	x10,x9
    c454:	c5cfa0ef          	jal	68b0 <st_clust>
    c458:	00100793          	li	x15,1
    c45c:	00f48223          	sb	x15,4(x9)
    c460:	f09ff06f          	j	c368 <f_mkdir+0xc0>
    c464:	0104a783          	lw	x15,16(x9)
    c468:	00078623          	sb	x0,12(x15)
    c46c:	000786a3          	sb	x0,13(x15)
    c470:	03500713          	li	x14,53
    c474:	00e78723          	sb	x14,14(x15)
    c478:	05800713          	li	x14,88
    c47c:	00e787a3          	sb	x14,15(x15)
    c480:	0104a783          	lw	x15,16(x9)
    c484:	03278a23          	sb	x18,52(x15)
    c488:	00895713          	srl	x14,x18,0x8
    c48c:	02e78aa3          	sb	x14,53(x15)
    c490:	01095713          	srl	x14,x18,0x10
    c494:	02e78b23          	sb	x14,54(x15)
    c498:	01895913          	srl	x18,x18,0x18
    c49c:	03278ba3          	sb	x18,55(x15)
    c4a0:	0104a703          	lw	x14,16(x9)
    c4a4:	00a4d783          	lhu	x15,10(x9)
    c4a8:	02070c23          	sb	x0,56(x14)
    c4ac:	00179693          	sll	x13,x15,0x1
    c4b0:	02d70ca3          	sb	x13,57(x14)
    c4b4:	0077d693          	srl	x13,x15,0x7
    c4b8:	02d70d23          	sb	x13,58(x14)
    c4bc:	00f7d793          	srl	x15,x15,0xf
    c4c0:	02f70da3          	sb	x15,59(x14)
    c4c4:	0104a703          	lw	x14,16(x9)
    c4c8:	00a4d783          	lhu	x15,10(x9)
    c4cc:	02070423          	sb	x0,40(x14)
    c4d0:	00179693          	sll	x13,x15,0x1
    c4d4:	02d704a3          	sb	x13,41(x14)
    c4d8:	0077d693          	srl	x13,x15,0x7
    c4dc:	02d70523          	sb	x13,42(x14)
    c4e0:	00f7d793          	srl	x15,x15,0xf
    c4e4:	02f705a3          	sb	x15,43(x14)
    c4e8:	0104a783          	lw	x15,16(x9)
    c4ec:	00300713          	li	x14,3
    c4f0:	02e780a3          	sb	x14,33(x15)
    c4f4:	0104a783          	lw	x15,16(x9)
    c4f8:	01000713          	li	x14,16
    c4fc:	00e78223          	sb	x14,4(x15)
    c500:	04810513          	add	x10,x2,72
    c504:	ba9fb0ef          	jal	80ac <store_xdir>
    c508:	00050413          	mv	x8,x10
    c50c:	ea050ce3          	beqz	x10,c3c4 <f_mkdir+0x11c>
    c510:	0b412483          	lw	x9,180(x2)
    c514:	0b012903          	lw	x18,176(x2)
    c518:	0ac12983          	lw	x19,172(x2)
    c51c:	db5ff06f          	j	c2d0 <f_mkdir+0x28>
    c520:	00700413          	li	x8,7
    c524:	00000613          	li	x12,0
    c528:	00090593          	mv	x11,x18
    c52c:	01810513          	add	x10,x2,24
    c530:	968fb0ef          	jal	7698 <remove_chain>
    c534:	0b412483          	lw	x9,180(x2)
    c538:	0b012903          	lw	x18,176(x2)
    c53c:	d95ff06f          	j	c2d0 <f_mkdir+0x28>
    c540:	00200413          	li	x8,2
    c544:	fe1ff06f          	j	c524 <f_mkdir+0x27c>
    c548:	0ac12983          	lw	x19,172(x2)
    c54c:	fd9ff06f          	j	c524 <f_mkdir+0x27c>
    c550:	0ac12983          	lw	x19,172(x2)
    c554:	fd1ff06f          	j	c524 <f_mkdir+0x27c>
    c558:	00800413          	li	x8,8
    c55c:	0b412483          	lw	x9,180(x2)
    c560:	d71ff06f          	j	c2d0 <f_mkdir+0x28>

0000c564 <f_rename>:
    c564:	ee010113          	add	x2,x2,-288
    c568:	10112e23          	sw	x1,284(x2)
    c56c:	00a12623          	sw	x10,12(x2)
    c570:	00b12423          	sw	x11,8(x2)
    c574:	00810513          	add	x10,x2,8
    c578:	dd4f90ef          	jal	5b4c <get_ldnumber>
    c57c:	00200613          	li	x12,2
    c580:	0fc10593          	add	x11,x2,252
    c584:	00c10513          	add	x10,x2,12
    c588:	e3dfb0ef          	jal	83c4 <mount_volume>
    c58c:	00050863          	beqz	x10,c59c <f_rename+0x38>
    c590:	11c12083          	lw	x1,284(x2)
    c594:	12010113          	add	x2,x2,288
    c598:	00008067          	ret
    c59c:	10812c23          	sw	x8,280(x2)
    c5a0:	0fc12403          	lw	x8,252(x2)
    c5a4:	0a812423          	sw	x8,168(x2)
    c5a8:	00c12583          	lw	x11,12(x2)
    c5ac:	0a810513          	add	x10,x2,168
    c5b0:	fdcfd0ef          	jal	9d8c <follow_path>
    c5b4:	2a051063          	bnez	x10,c854 <f_rename+0x2f0>
    c5b8:	0f314783          	lbu	x15,243(x2)
    c5bc:	0a07f793          	and	x15,x15,160
    c5c0:	00600513          	li	x10,6
    c5c4:	28079c63          	bnez	x15,c85c <f_rename+0x2f8>
    c5c8:	00044703          	lbu	x14,0(x8)
    c5cc:	00400793          	li	x15,4
    c5d0:	04f70663          	beq	x14,x15,c61c <f_rename+0xb8>
    c5d4:	02000613          	li	x12,32
    c5d8:	0e412583          	lw	x11,228(x2)
    c5dc:	01810513          	add	x10,x2,24
    c5e0:	91cf80ef          	jal	46fc <memcpy>
    c5e4:	05000613          	li	x12,80
    c5e8:	0a810593          	add	x11,x2,168
    c5ec:	05810513          	add	x10,x2,88
    c5f0:	90cf80ef          	jal	46fc <memcpy>
    c5f4:	00812583          	lw	x11,8(x2)
    c5f8:	05810513          	add	x10,x2,88
    c5fc:	f90fd0ef          	jal	9d8c <follow_path>
    c600:	16051663          	bnez	x10,c76c <f_rename+0x208>
    c604:	06012703          	lw	x14,96(x2)
    c608:	0b012783          	lw	x15,176(x2)
    c60c:	00800513          	li	x10,8
    c610:	14f70463          	beq	x14,x15,c758 <f_rename+0x1f4>
    c614:	11812403          	lw	x8,280(x2)
    c618:	f79ff06f          	j	c590 <f_rename+0x2c>
    c61c:	04000613          	li	x12,64
    c620:	01042583          	lw	x11,16(x8)
    c624:	01810513          	add	x10,x2,24
    c628:	8d4f80ef          	jal	46fc <memcpy>
    c62c:	05000613          	li	x12,80
    c630:	0a810593          	add	x11,x2,168
    c634:	05810513          	add	x10,x2,88
    c638:	8c4f80ef          	jal	46fc <memcpy>
    c63c:	00812583          	lw	x11,8(x2)
    c640:	05810513          	add	x10,x2,88
    c644:	f48fd0ef          	jal	9d8c <follow_path>
    c648:	02051863          	bnez	x10,c678 <f_rename+0x114>
    c64c:	06012703          	lw	x14,96(x2)
    c650:	0b012783          	lw	x15,176(x2)
    c654:	00800513          	li	x10,8
    c658:	00f70663          	beq	x14,x15,c664 <f_rename+0x100>
    c65c:	11812403          	lw	x8,280(x2)
    c660:	f31ff06f          	j	c590 <f_rename+0x2c>
    c664:	08812703          	lw	x14,136(x2)
    c668:	0d812783          	lw	x15,216(x2)
    c66c:	00f70e63          	beq	x14,x15,c688 <f_rename+0x124>
    c670:	11812403          	lw	x8,280(x2)
    c674:	f1dff06f          	j	c590 <f_rename+0x2c>
    c678:	00400793          	li	x15,4
    c67c:	00f50663          	beq	x10,x15,c688 <f_rename+0x124>
    c680:	11812403          	lw	x8,280(x2)
    c684:	f0dff06f          	j	c590 <f_rename+0x2c>
    c688:	05810513          	add	x10,x2,88
    c68c:	f05fc0ef          	jal	9590 <dir_register>
    c690:	00050663          	beqz	x10,c69c <f_rename+0x138>
    c694:	11812403          	lw	x8,280(x2)
    c698:	ef9ff06f          	j	c590 <f_rename+0x2c>
    c69c:	10912a23          	sw	x9,276(x2)
    c6a0:	11212823          	sw	x18,272(x2)
    c6a4:	11312623          	sw	x19,268(x2)
    c6a8:	01042503          	lw	x10,16(x8)
    c6ac:	00154983          	lbu	x19,1(x10)
    c6b0:	02354903          	lbu	x18,35(x10)
    c6b4:	02554483          	lbu	x9,37(x10)
    c6b8:	00849493          	sll	x9,x9,0x8
    c6bc:	02454783          	lbu	x15,36(x10)
    c6c0:	00f4e4b3          	or	x9,x9,x15
    c6c4:	01049493          	sll	x9,x9,0x10
    c6c8:	4104d493          	sra	x9,x9,0x10
    c6cc:	04000613          	li	x12,64
    c6d0:	01810593          	add	x11,x2,24
    c6d4:	828f80ef          	jal	46fc <memcpy>
    c6d8:	01042783          	lw	x15,16(x8)
    c6dc:	013780a3          	sb	x19,1(x15)
    c6e0:	01042783          	lw	x15,16(x8)
    c6e4:	032781a3          	sb	x18,35(x15)
    c6e8:	01042703          	lw	x14,16(x8)
    c6ec:	02970223          	sb	x9,36(x14)
    c6f0:	01049793          	sll	x15,x9,0x10
    c6f4:	0107d793          	srl	x15,x15,0x10
    c6f8:	0087d793          	srl	x15,x15,0x8
    c6fc:	02f702a3          	sb	x15,37(x14)
    c700:	01042703          	lw	x14,16(x8)
    c704:	00474783          	lbu	x15,4(x14)
    c708:	0107f693          	and	x13,x15,16
    c70c:	00069663          	bnez	x13,c718 <f_rename+0x1b4>
    c710:	0207e793          	or	x15,x15,32
    c714:	00f70223          	sb	x15,4(x14)
    c718:	05810513          	add	x10,x2,88
    c71c:	991fb0ef          	jal	80ac <store_xdir>
    c720:	02051263          	bnez	x10,c744 <f_rename+0x1e0>
    c724:	11012903          	lw	x18,272(x2)
    c728:	10c12983          	lw	x19,268(x2)
    c72c:	0a810513          	add	x10,x2,168
    c730:	e4cfb0ef          	jal	7d7c <dir_remove>
    c734:	10050663          	beqz	x10,c840 <f_rename+0x2dc>
    c738:	11812403          	lw	x8,280(x2)
    c73c:	11412483          	lw	x9,276(x2)
    c740:	e51ff06f          	j	c590 <f_rename+0x2c>
    c744:	11812403          	lw	x8,280(x2)
    c748:	11412483          	lw	x9,276(x2)
    c74c:	11012903          	lw	x18,272(x2)
    c750:	10c12983          	lw	x19,268(x2)
    c754:	e3dff06f          	j	c590 <f_rename+0x2c>
    c758:	08812703          	lw	x14,136(x2)
    c75c:	0d812783          	lw	x15,216(x2)
    c760:	00f70e63          	beq	x14,x15,c77c <f_rename+0x218>
    c764:	11812403          	lw	x8,280(x2)
    c768:	e29ff06f          	j	c590 <f_rename+0x2c>
    c76c:	00400793          	li	x15,4
    c770:	00f50663          	beq	x10,x15,c77c <f_rename+0x218>
    c774:	11812403          	lw	x8,280(x2)
    c778:	e19ff06f          	j	c590 <f_rename+0x2c>
    c77c:	05810513          	add	x10,x2,88
    c780:	e11fc0ef          	jal	9590 <dir_register>
    c784:	00050663          	beqz	x10,c790 <f_rename+0x22c>
    c788:	11812403          	lw	x8,280(x2)
    c78c:	e05ff06f          	j	c590 <f_rename+0x2c>
    c790:	10912a23          	sw	x9,276(x2)
    c794:	09412483          	lw	x9,148(x2)
    c798:	01300613          	li	x12,19
    c79c:	02510593          	add	x11,x2,37
    c7a0:	00d48513          	add	x10,x9,13
    c7a4:	f59f70ef          	jal	46fc <memcpy>
    c7a8:	02314783          	lbu	x15,35(x2)
    c7ac:	0107f713          	and	x14,x15,16
    c7b0:	00071463          	bnez	x14,c7b8 <f_rename+0x254>
    c7b4:	0207e793          	or	x15,x15,32
    c7b8:	00f485a3          	sb	x15,11(x9)
    c7bc:	00100793          	li	x15,1
    c7c0:	00f40223          	sb	x15,4(x8)
    c7c4:	00b4c783          	lbu	x15,11(x9)
    c7c8:	0107f793          	and	x15,x15,16
    c7cc:	f60780e3          	beqz	x15,c72c <f_rename+0x1c8>
    c7d0:	0b012703          	lw	x14,176(x2)
    c7d4:	06012783          	lw	x15,96(x2)
    c7d8:	f4f70ae3          	beq	x14,x15,c72c <f_rename+0x1c8>
    c7dc:	00048593          	mv	x11,x9
    c7e0:	00040513          	mv	x10,x8
    c7e4:	d60fd0ef          	jal	9d44 <ld_clust>
    c7e8:	00050593          	mv	x11,x10
    c7ec:	00040513          	mv	x10,x8
    c7f0:	a2cf90ef          	jal	5a1c <clst2sect>
    c7f4:	00050593          	mv	x11,x10
    c7f8:	00200513          	li	x10,2
    c7fc:	00059863          	bnez	x11,c80c <f_rename+0x2a8>
    c800:	11812403          	lw	x8,280(x2)
    c804:	11412483          	lw	x9,276(x2)
    c808:	d89ff06f          	j	c590 <f_rename+0x2c>
    c80c:	00040513          	mv	x10,x8
    c810:	81df90ef          	jal	602c <move_window>
    c814:	04051863          	bnez	x10,c864 <f_rename+0x300>
    c818:	05d44703          	lbu	x14,93(x8)
    c81c:	02e00793          	li	x15,46
    c820:	f0f716e3          	bne	x14,x15,c72c <f_rename+0x1c8>
    c824:	06012603          	lw	x12,96(x2)
    c828:	05c40593          	add	x11,x8,92
    c82c:	00040513          	mv	x10,x8
    c830:	880fa0ef          	jal	68b0 <st_clust>
    c834:	00100793          	li	x15,1
    c838:	00f40223          	sb	x15,4(x8)
    c83c:	ef1ff06f          	j	c72c <f_rename+0x1c8>
    c840:	00040513          	mv	x10,x8
    c844:	b59f90ef          	jal	639c <sync_fs>
    c848:	11812403          	lw	x8,280(x2)
    c84c:	11412483          	lw	x9,276(x2)
    c850:	d41ff06f          	j	c590 <f_rename+0x2c>
    c854:	11812403          	lw	x8,280(x2)
    c858:	d39ff06f          	j	c590 <f_rename+0x2c>
    c85c:	11812403          	lw	x8,280(x2)
    c860:	d31ff06f          	j	c590 <f_rename+0x2c>
    c864:	11812403          	lw	x8,280(x2)
    c868:	11412483          	lw	x9,276(x2)
    c86c:	d25ff06f          	j	c590 <f_rename+0x2c>

0000c870 <f_chmod>:
    c870:	f8010113          	add	x2,x2,-128
    c874:	06112e23          	sw	x1,124(x2)
    c878:	06812c23          	sw	x8,120(x2)
    c87c:	06912a23          	sw	x9,116(x2)
    c880:	00a12623          	sw	x10,12(x2)
    c884:	00058493          	mv	x9,x11
    c888:	00060413          	mv	x8,x12
    c88c:	00200613          	li	x12,2
    c890:	06c10593          	add	x11,x2,108
    c894:	00c10513          	add	x10,x2,12
    c898:	b2dfb0ef          	jal	83c4 <mount_volume>
    c89c:	00050c63          	beqz	x10,c8b4 <f_chmod+0x44>
    c8a0:	07c12083          	lw	x1,124(x2)
    c8a4:	07812403          	lw	x8,120(x2)
    c8a8:	07412483          	lw	x9,116(x2)
    c8ac:	08010113          	add	x2,x2,128
    c8b0:	00008067          	ret
    c8b4:	07212823          	sw	x18,112(x2)
    c8b8:	06c12903          	lw	x18,108(x2)
    c8bc:	01212c23          	sw	x18,24(x2)
    c8c0:	00c12583          	lw	x11,12(x2)
    c8c4:	01810513          	add	x10,x2,24
    c8c8:	cc4fd0ef          	jal	9d8c <follow_path>
    c8cc:	08051063          	bnez	x10,c94c <f_chmod+0xdc>
    c8d0:	06314783          	lbu	x15,99(x2)
    c8d4:	0a07f793          	and	x15,x15,160
    c8d8:	00600513          	li	x10,6
    c8dc:	06079c63          	bnez	x15,c954 <f_chmod+0xe4>
    c8e0:	02747613          	and	x12,x8,39
    c8e4:	00094703          	lbu	x14,0(x18)
    c8e8:	00400793          	li	x15,4
    c8ec:	02f70a63          	beq	x14,x15,c920 <f_chmod+0xb0>
    c8f0:	05412703          	lw	x14,84(x2)
    c8f4:	00b74783          	lbu	x15,11(x14)
    c8f8:	0097c5b3          	xor	x11,x15,x9
    c8fc:	00b67633          	and	x12,x12,x11
    c900:	00c7c7b3          	xor	x15,x15,x12
    c904:	00f705a3          	sb	x15,11(x14)
    c908:	00100793          	li	x15,1
    c90c:	00f90223          	sb	x15,4(x18)
    c910:	00090513          	mv	x10,x18
    c914:	a89f90ef          	jal	639c <sync_fs>
    c918:	07012903          	lw	x18,112(x2)
    c91c:	f85ff06f          	j	c8a0 <f_chmod+0x30>
    c920:	01092703          	lw	x14,16(x18)
    c924:	00474783          	lbu	x15,4(x14)
    c928:	0097c5b3          	xor	x11,x15,x9
    c92c:	00b675b3          	and	x11,x12,x11
    c930:	00b7c7b3          	xor	x15,x15,x11
    c934:	00f70223          	sb	x15,4(x14)
    c938:	01810513          	add	x10,x2,24
    c93c:	f70fb0ef          	jal	80ac <store_xdir>
    c940:	fc0508e3          	beqz	x10,c910 <f_chmod+0xa0>
    c944:	07012903          	lw	x18,112(x2)
    c948:	f59ff06f          	j	c8a0 <f_chmod+0x30>
    c94c:	07012903          	lw	x18,112(x2)
    c950:	f51ff06f          	j	c8a0 <f_chmod+0x30>
    c954:	07012903          	lw	x18,112(x2)
    c958:	f49ff06f          	j	c8a0 <f_chmod+0x30>

0000c95c <f_utime>:
    c95c:	f8010113          	add	x2,x2,-128
    c960:	06112e23          	sw	x1,124(x2)
    c964:	06812c23          	sw	x8,120(x2)
    c968:	00a12623          	sw	x10,12(x2)
    c96c:	00058413          	mv	x8,x11
    c970:	00200613          	li	x12,2
    c974:	06c10593          	add	x11,x2,108
    c978:	00c10513          	add	x10,x2,12
    c97c:	a49fb0ef          	jal	83c4 <mount_volume>
    c980:	00050a63          	beqz	x10,c994 <f_utime+0x38>
    c984:	07c12083          	lw	x1,124(x2)
    c988:	07812403          	lw	x8,120(x2)
    c98c:	08010113          	add	x2,x2,128
    c990:	00008067          	ret
    c994:	06912a23          	sw	x9,116(x2)
    c998:	06c12483          	lw	x9,108(x2)
    c99c:	00912c23          	sw	x9,24(x2)
    c9a0:	00c12583          	lw	x11,12(x2)
    c9a4:	01810513          	add	x10,x2,24
    c9a8:	be4fd0ef          	jal	9d8c <follow_path>
    c9ac:	0a051663          	bnez	x10,ca58 <f_utime+0xfc>
    c9b0:	06314783          	lbu	x15,99(x2)
    c9b4:	0a07f793          	and	x15,x15,160
    c9b8:	00600513          	li	x10,6
    c9bc:	0a079263          	bnez	x15,ca60 <f_utime+0x104>
    c9c0:	0004c703          	lbu	x14,0(x9)
    c9c4:	00400793          	li	x15,4
    c9c8:	04f70663          	beq	x14,x15,ca14 <f_utime+0xb8>
    c9cc:	05412703          	lw	x14,84(x2)
    c9d0:	00845783          	lhu	x15,8(x8)
    c9d4:	01079793          	sll	x15,x15,0x10
    c9d8:	00a45683          	lhu	x13,10(x8)
    c9dc:	00d7e7b3          	or	x15,x15,x13
    c9e0:	00f70b23          	sb	x15,22(x14)
    c9e4:	0087d693          	srl	x13,x15,0x8
    c9e8:	00d70ba3          	sb	x13,23(x14)
    c9ec:	0107d693          	srl	x13,x15,0x10
    c9f0:	00d70c23          	sb	x13,24(x14)
    c9f4:	0187d793          	srl	x15,x15,0x18
    c9f8:	00f70ca3          	sb	x15,25(x14)
    c9fc:	00100793          	li	x15,1
    ca00:	00f48223          	sb	x15,4(x9)
    ca04:	00048513          	mv	x10,x9
    ca08:	995f90ef          	jal	639c <sync_fs>
    ca0c:	07412483          	lw	x9,116(x2)
    ca10:	f75ff06f          	j	c984 <f_utime+0x28>
    ca14:	0104a703          	lw	x14,16(x9)
    ca18:	00845783          	lhu	x15,8(x8)
    ca1c:	01079793          	sll	x15,x15,0x10
    ca20:	00a45683          	lhu	x13,10(x8)
    ca24:	00d7e7b3          	or	x15,x15,x13
    ca28:	00f70623          	sb	x15,12(x14)
    ca2c:	0087d693          	srl	x13,x15,0x8
    ca30:	00d706a3          	sb	x13,13(x14)
    ca34:	0107d693          	srl	x13,x15,0x10
    ca38:	00d70723          	sb	x13,14(x14)
    ca3c:	0187d793          	srl	x15,x15,0x18
    ca40:	00f707a3          	sb	x15,15(x14)
    ca44:	01810513          	add	x10,x2,24
    ca48:	e64fb0ef          	jal	80ac <store_xdir>
    ca4c:	fa050ce3          	beqz	x10,ca04 <f_utime+0xa8>
    ca50:	07412483          	lw	x9,116(x2)
    ca54:	f31ff06f          	j	c984 <f_utime+0x28>
    ca58:	07412483          	lw	x9,116(x2)
    ca5c:	f29ff06f          	j	c984 <f_utime+0x28>
    ca60:	07412483          	lw	x9,116(x2)
    ca64:	f21ff06f          	j	c984 <f_utime+0x28>

0000ca68 <f_gets>:
    ca68:	fd010113          	add	x2,x2,-48
    ca6c:	02112623          	sw	x1,44(x2)
    ca70:	02812423          	sw	x8,40(x2)
    ca74:	02912223          	sw	x9,36(x2)
    ca78:	03212023          	sw	x18,32(x2)
    ca7c:	01312e23          	sw	x19,28(x2)
    ca80:	01412c23          	sw	x20,24(x2)
    ca84:	01512a23          	sw	x21,20(x2)
    ca88:	01612823          	sw	x22,16(x2)
    ca8c:	00050a13          	mv	x20,x10
    ca90:	00060993          	mv	x19,x12
    ca94:	fff58913          	add	x18,x11,-1
    ca98:	00050493          	mv	x9,x10
    ca9c:	00000413          	li	x8,0
    caa0:	00d00a93          	li	x21,13
    caa4:	00a00b13          	li	x22,10
    caa8:	03245e63          	bge	x8,x18,cae4 <f_gets+0x7c>
    caac:	00810693          	add	x13,x2,8
    cab0:	00100613          	li	x12,1
    cab4:	00c10593          	add	x11,x2,12
    cab8:	00098513          	mv	x10,x19
    cabc:	f29fd0ef          	jal	a9e4 <f_read>
    cac0:	00812703          	lw	x14,8(x2)
    cac4:	00100793          	li	x15,1
    cac8:	00f71e63          	bne	x14,x15,cae4 <f_gets+0x7c>
    cacc:	00c14783          	lbu	x15,12(x2)
    cad0:	fd578ce3          	beq	x15,x21,caa8 <f_gets+0x40>
    cad4:	00148493          	add	x9,x9,1
    cad8:	fef48fa3          	sb	x15,-1(x9)
    cadc:	00140413          	add	x8,x8,1
    cae0:	fd6794e3          	bne	x15,x22,caa8 <f_gets+0x40>
    cae4:	00048023          	sb	x0,0(x9)
    cae8:	00803433          	snez	x8,x8
    caec:	40800433          	neg	x8,x8
    caf0:	008a7533          	and	x10,x20,x8
    caf4:	02c12083          	lw	x1,44(x2)
    caf8:	02812403          	lw	x8,40(x2)
    cafc:	02412483          	lw	x9,36(x2)
    cb00:	02012903          	lw	x18,32(x2)
    cb04:	01c12983          	lw	x19,28(x2)
    cb08:	01812a03          	lw	x20,24(x2)
    cb0c:	01412a83          	lw	x21,20(x2)
    cb10:	01012b03          	lw	x22,16(x2)
    cb14:	03010113          	add	x2,x2,48
    cb18:	00008067          	ret

0000cb1c <f_putc>:
    cb1c:	fa010113          	add	x2,x2,-96
    cb20:	04112e23          	sw	x1,92(x2)
    cb24:	04812c23          	sw	x8,88(x2)
    cb28:	04912a23          	sw	x9,84(x2)
    cb2c:	00050413          	mv	x8,x10
    cb30:	00058493          	mv	x9,x11
    cb34:	04c00613          	li	x12,76
    cb38:	00000593          	li	x11,0
    cb3c:	00410513          	add	x10,x2,4
    cb40:	c39f70ef          	jal	4778 <memset>
    cb44:	00912223          	sw	x9,4(x2)
    cb48:	00040593          	mv	x11,x8
    cb4c:	00410513          	add	x10,x2,4
    cb50:	e34fe0ef          	jal	b184 <putc_bfd>
    cb54:	00410513          	add	x10,x2,4
    cb58:	ed0fe0ef          	jal	b228 <putc_flush>
    cb5c:	05c12083          	lw	x1,92(x2)
    cb60:	05812403          	lw	x8,88(x2)
    cb64:	05412483          	lw	x9,84(x2)
    cb68:	06010113          	add	x2,x2,96
    cb6c:	00008067          	ret

0000cb70 <f_puts>:
    cb70:	fa010113          	add	x2,x2,-96
    cb74:	04112e23          	sw	x1,92(x2)
    cb78:	04812c23          	sw	x8,88(x2)
    cb7c:	04912a23          	sw	x9,84(x2)
    cb80:	00050413          	mv	x8,x10
    cb84:	00058493          	mv	x9,x11
    cb88:	04c00613          	li	x12,76
    cb8c:	00000593          	li	x11,0
    cb90:	00410513          	add	x10,x2,4
    cb94:	be5f70ef          	jal	4778 <memset>
    cb98:	00912223          	sw	x9,4(x2)
    cb9c:	00044583          	lbu	x11,0(x8)
    cba0:	00058c63          	beqz	x11,cbb8 <f_puts+0x48>
    cba4:	00140413          	add	x8,x8,1
    cba8:	00410513          	add	x10,x2,4
    cbac:	dd8fe0ef          	jal	b184 <putc_bfd>
    cbb0:	00044583          	lbu	x11,0(x8)
    cbb4:	fe0598e3          	bnez	x11,cba4 <f_puts+0x34>
    cbb8:	00410513          	add	x10,x2,4
    cbbc:	e6cfe0ef          	jal	b228 <putc_flush>
    cbc0:	05c12083          	lw	x1,92(x2)
    cbc4:	05812403          	lw	x8,88(x2)
    cbc8:	05412483          	lw	x9,84(x2)
    cbcc:	06010113          	add	x2,x2,96
    cbd0:	00008067          	ret

0000cbd4 <f_printf>:
    cbd4:	f0010113          	add	x2,x2,-256
    cbd8:	0c112e23          	sw	x1,220(x2)
    cbdc:	0c812c23          	sw	x8,216(x2)
    cbe0:	0d412423          	sw	x20,200(x2)
    cbe4:	00050413          	mv	x8,x10
    cbe8:	00058a13          	mv	x20,x11
    cbec:	0ec12423          	sw	x12,232(x2)
    cbf0:	0ed12623          	sw	x13,236(x2)
    cbf4:	0ee12823          	sw	x14,240(x2)
    cbf8:	0ef12a23          	sw	x15,244(x2)
    cbfc:	0f012c23          	sw	x16,248(x2)
    cc00:	0f112e23          	sw	x17,252(x2)
    cc04:	040107a3          	sb	x0,79(x2)
    cc08:	04c00613          	li	x12,76
    cc0c:	00000593          	li	x11,0
    cc10:	05010513          	add	x10,x2,80
    cc14:	b65f70ef          	jal	4778 <memset>
    cc18:	04812823          	sw	x8,80(x2)
    cc1c:	0e810793          	add	x15,x2,232
    cc20:	08f12e23          	sw	x15,156(x2)
    cc24:	000a4583          	lbu	x11,0(x20)
    cc28:	18058ce3          	beqz	x11,d5c0 <f_printf+0x9ec>
    cc2c:	0c912a23          	sw	x9,212(x2)
    cc30:	0d212823          	sw	x18,208(x2)
    cc34:	0d312623          	sw	x19,204(x2)
    cc38:	0d512223          	sw	x21,196(x2)
    cc3c:	0d612023          	sw	x22,192(x2)
    cc40:	0b712e23          	sw	x23,188(x2)
    cc44:	0b812c23          	sw	x24,184(x2)
    cc48:	0b912a23          	sw	x25,180(x2)
    cc4c:	0ba12823          	sw	x26,176(x2)
    cc50:	0bb12623          	sw	x27,172(x2)
    cc54:	001a0413          	add	x8,x20,1
    cc58:	000127b7          	lui	x15,0x12
    cc5c:	99478793          	add	x15,x15,-1644 # 11994 <__clzsi2+0xda8>
    cc60:	00f12e23          	sw	x15,28(x2)
    cc64:	02000c93          	li	x25,32
    cc68:	02c10793          	add	x15,x2,44
    cc6c:	00f12823          	sw	x15,16(x2)
    cc70:	01c0006f          	j	cc8c <f_printf+0xb8>
    cc74:	05010513          	add	x10,x2,80
    cc78:	d0cfe0ef          	jal	b184 <putc_bfd>
    cc7c:	00040a13          	mv	x20,x8
    cc80:	001a0413          	add	x8,x20,1
    cc84:	000a4583          	lbu	x11,0(x20)
    cc88:	100588e3          	beqz	x11,d598 <f_printf+0x9c4>
    cc8c:	02500793          	li	x15,37
    cc90:	fef592e3          	bne	x11,x15,cc74 <f_printf+0xa0>
    cc94:	001a4403          	lbu	x8,1(x20)
    cc98:	03000793          	li	x15,48
    cc9c:	06f40a63          	beq	x8,x15,cd10 <f_printf+0x13c>
    cca0:	02d00793          	li	x15,45
    cca4:	08f40063          	beq	x8,x15,cd24 <f_printf+0x150>
    cca8:	002a0a13          	add	x20,x20,2
    ccac:	01912423          	sw	x25,8(x2)
    ccb0:	00012a23          	sw	x0,20(x2)
    ccb4:	02a00793          	li	x15,42
    ccb8:	08f41263          	bne	x8,x15,cd3c <f_printf+0x168>
    ccbc:	09c12783          	lw	x15,156(x2)
    ccc0:	00478713          	add	x14,x15,4
    ccc4:	08e12e23          	sw	x14,156(x2)
    ccc8:	0007aa83          	lw	x21,0(x15)
    cccc:	000a4403          	lbu	x8,0(x20)
    ccd0:	001a0a13          	add	x20,x20,1
    ccd4:	02e00793          	li	x15,46
    ccd8:	fff00d13          	li	x26,-1
    ccdc:	0af40263          	beq	x8,x15,cd80 <f_printf+0x1ac>
    cce0:	06c00793          	li	x15,108
    cce4:	10f40663          	beq	x8,x15,cdf0 <f_printf+0x21c>
    cce8:	0e040ae3          	beqz	x8,d5dc <f_printf+0xa08>
    ccec:	fbb40793          	add	x15,x8,-69
    ccf0:	0ff7f693          	zext.b	x13,x15
    ccf4:	03300713          	li	x14,51
    ccf8:	5cd76263          	bltu	x14,x13,d2bc <f_printf+0x6e8>
    ccfc:	00269793          	sll	x15,x13,0x2
    cd00:	01c12703          	lw	x14,28(x2)
    cd04:	00e787b3          	add	x15,x15,x14
    cd08:	0007a783          	lw	x15,0(x15)
    cd0c:	00078067          	jr	x15
    cd10:	00812423          	sw	x8,8(x2)
    cd14:	002a4403          	lbu	x8,2(x20)
    cd18:	003a0a13          	add	x20,x20,3
    cd1c:	00012a23          	sw	x0,20(x2)
    cd20:	f95ff06f          	j	ccb4 <f_printf+0xe0>
    cd24:	002a4403          	lbu	x8,2(x20)
    cd28:	003a0a13          	add	x20,x20,3
    cd2c:	01912423          	sw	x25,8(x2)
    cd30:	00200793          	li	x15,2
    cd34:	00f12a23          	sw	x15,20(x2)
    cd38:	f7dff06f          	j	ccb4 <f_printf+0xe0>
    cd3c:	fd040793          	add	x15,x8,-48
    cd40:	0ff7f793          	zext.b	x15,x15
    cd44:	00900693          	li	x13,9
    cd48:	00000a93          	li	x21,0
    cd4c:	00900713          	li	x14,9
    cd50:	f8f6e2e3          	bltu	x13,x15,ccd4 <f_printf+0x100>
    cd54:	002a9793          	sll	x15,x21,0x2
    cd58:	015787b3          	add	x15,x15,x21
    cd5c:	00179793          	sll	x15,x15,0x1
    cd60:	008787b3          	add	x15,x15,x8
    cd64:	fd078a93          	add	x21,x15,-48
    cd68:	001a0a13          	add	x20,x20,1
    cd6c:	fffa4403          	lbu	x8,-1(x20)
    cd70:	fd040793          	add	x15,x8,-48
    cd74:	0ff7f793          	zext.b	x15,x15
    cd78:	fcf77ee3          	bgeu	x14,x15,cd54 <f_printf+0x180>
    cd7c:	f59ff06f          	j	ccd4 <f_printf+0x100>
    cd80:	000a4403          	lbu	x8,0(x20)
    cd84:	02a00793          	li	x15,42
    cd88:	02f41063          	bne	x8,x15,cda8 <f_printf+0x1d4>
    cd8c:	09c12783          	lw	x15,156(x2)
    cd90:	00478713          	add	x14,x15,4
    cd94:	08e12e23          	sw	x14,156(x2)
    cd98:	0007ad03          	lw	x26,0(x15)
    cd9c:	001a4403          	lbu	x8,1(x20)
    cda0:	002a0a13          	add	x20,x20,2
    cda4:	f3dff06f          	j	cce0 <f_printf+0x10c>
    cda8:	001a0a13          	add	x20,x20,1
    cdac:	fd040793          	add	x15,x8,-48
    cdb0:	0ff7f793          	zext.b	x15,x15
    cdb4:	00900693          	li	x13,9
    cdb8:	00000d13          	li	x26,0
    cdbc:	00900713          	li	x14,9
    cdc0:	f2f6e0e3          	bltu	x13,x15,cce0 <f_printf+0x10c>
    cdc4:	002d1793          	sll	x15,x26,0x2
    cdc8:	01a787b3          	add	x15,x15,x26
    cdcc:	00179793          	sll	x15,x15,0x1
    cdd0:	008787b3          	add	x15,x15,x8
    cdd4:	fd078d13          	add	x26,x15,-48
    cdd8:	001a0a13          	add	x20,x20,1
    cddc:	fffa4403          	lbu	x8,-1(x20)
    cde0:	fd040793          	add	x15,x8,-48
    cde4:	0ff7f793          	zext.b	x15,x15
    cde8:	fcf77ee3          	bgeu	x14,x15,cdc4 <f_printf+0x1f0>
    cdec:	ef5ff06f          	j	cce0 <f_printf+0x10c>
    cdf0:	000a4403          	lbu	x8,0(x20)
    cdf4:	00f40c63          	beq	x8,x15,ce0c <f_printf+0x238>
    cdf8:	01412783          	lw	x15,20(x2)
    cdfc:	0047e793          	or	x15,x15,4
    ce00:	00f12a23          	sw	x15,20(x2)
    ce04:	001a0a13          	add	x20,x20,1
    ce08:	ee1ff06f          	j	cce8 <f_printf+0x114>
    ce0c:	01412783          	lw	x15,20(x2)
    ce10:	00c7e793          	or	x15,x15,12
    ce14:	00f12a23          	sw	x15,20(x2)
    ce18:	001a4403          	lbu	x8,1(x20)
    ce1c:	002a0a13          	add	x20,x20,2
    ce20:	ec9ff06f          	j	cce8 <f_printf+0x114>
    ce24:	09c12783          	lw	x15,156(x2)
    ce28:	00478713          	add	x14,x15,4
    ce2c:	08e12e23          	sw	x14,156(x2)
    ce30:	0007c583          	lbu	x11,0(x15)
    ce34:	05010513          	add	x10,x2,80
    ce38:	b4cfe0ef          	jal	b184 <putc_bfd>
    ce3c:	e45ff06f          	j	cc80 <f_printf+0xac>
    ce40:	09c12783          	lw	x15,156(x2)
    ce44:	00478713          	add	x14,x15,4
    ce48:	08e12e23          	sw	x14,156(x2)
    ce4c:	0007a983          	lw	x19,0(x15)
    ce50:	04098e63          	beqz	x19,ceac <f_printf+0x2d8>
    ce54:	0009c583          	lbu	x11,0(x19)
    ce58:	04058e63          	beqz	x11,ceb4 <f_printf+0x2e0>
    ce5c:	00000413          	li	x8,0
    ce60:	00140413          	add	x8,x8,1
    ce64:	008987b3          	add	x15,x19,x8
    ce68:	0007c783          	lbu	x15,0(x15)
    ce6c:	fe079ae3          	bnez	x15,ce60 <f_printf+0x28c>
    ce70:	000d4663          	bltz	x26,ce7c <f_printf+0x2a8>
    ce74:	008d7463          	bgeu	x26,x8,ce7c <f_printf+0x2a8>
    ce78:	000d0413          	mv	x8,x26
    ce7c:	01412783          	lw	x15,20(x2)
    ce80:	0027f793          	and	x15,x15,2
    ce84:	02079c63          	bnez	x15,cebc <f_printf+0x2e8>
    ce88:	6b547263          	bgeu	x8,x21,d52c <f_printf+0x958>
    ce8c:	00812583          	lw	x11,8(x2)
    ce90:	05010513          	add	x10,x2,80
    ce94:	af0fe0ef          	jal	b184 <putc_bfd>
    ce98:	00140413          	add	x8,x8,1
    ce9c:	fe8a98e3          	bne	x21,x8,ce8c <f_printf+0x2b8>
    cea0:	0009c583          	lbu	x11,0(x19)
    cea4:	02059063          	bnez	x11,cec4 <f_printf+0x2f0>
    cea8:	dd9ff06f          	j	cc80 <f_printf+0xac>
    ceac:	04f10993          	add	x19,x2,79
    ceb0:	fa5ff06f          	j	ce54 <f_printf+0x280>
    ceb4:	00000413          	li	x8,0
    ceb8:	fb9ff06f          	j	ce70 <f_printf+0x29c>
    cebc:	0009c583          	lbu	x11,0(x19)
    cec0:	02058463          	beqz	x11,cee8 <f_printf+0x314>
    cec4:	020d0263          	beqz	x26,cee8 <f_printf+0x314>
    cec8:	00098913          	mv	x18,x19
    cecc:	00190913          	add	x18,x18,1
    ced0:	05010513          	add	x10,x2,80
    ced4:	ab0fe0ef          	jal	b184 <putc_bfd>
    ced8:	00094583          	lbu	x11,0(x18)
    cedc:	00058663          	beqz	x11,cee8 <f_printf+0x314>
    cee0:	41a907b3          	sub	x15,x18,x26
    cee4:	ff3794e3          	bne	x15,x19,cecc <f_printf+0x2f8>
    cee8:	00140493          	add	x9,x8,1
    ceec:	d9547ae3          	bgeu	x8,x21,cc80 <f_printf+0xac>
    cef0:	000c8593          	mv	x11,x25
    cef4:	05010513          	add	x10,x2,80
    cef8:	a8cfe0ef          	jal	b184 <putc_bfd>
    cefc:	00048793          	mv	x15,x9
    cf00:	00148493          	add	x9,x9,1
    cf04:	fefa96e3          	bne	x21,x15,cef0 <f_printf+0x31c>
    cf08:	d79ff06f          	j	cc80 <f_printf+0xac>
    cf0c:	09c12783          	lw	x15,156(x2)
    cf10:	00778793          	add	x15,x15,7
    cf14:	ff87f793          	and	x15,x15,-8
    cf18:	00878713          	add	x14,x15,8
    cf1c:	08e12e23          	sw	x14,156(x2)
    cf20:	0007ab83          	lw	x23,0(x15)
    cf24:	0047ab03          	lw	x22,4(x15)
    cf28:	000b8613          	mv	x12,x23
    cf2c:	000b0693          	mv	x13,x22
    cf30:	000b8513          	mv	x10,x23
    cf34:	000b0593          	mv	x11,x22
    cf38:	325030ef          	jal	10a5c <__unorddf2>
    cf3c:	32051663          	bnez	x10,d268 <f_printf+0x694>
    cf40:	0c0d4463          	bltz	x26,d008 <f_printf+0x434>
    cf44:	00000613          	li	x12,0
    cf48:	00000693          	li	x13,0
    cf4c:	000b8513          	mv	x10,x23
    cf50:	000b0593          	mv	x11,x22
    cf54:	169020ef          	jal	f8bc <__ledf2>
    cf58:	02b00993          	li	x19,43
    cf5c:	0a054a63          	bltz	x10,d010 <f_printf+0x43c>
    cf60:	001b1793          	sll	x15,x22,0x1
    cf64:	0017d913          	srl	x18,x15,0x1
    cf68:	000127b7          	lui	x15,0x12
    cf6c:	ef07a603          	lw	x12,-272(x15) # 11ef0 <nes_bsram_size+0x28>
    cf70:	ef47a683          	lw	x13,-268(x15)
    cf74:	000b8513          	mv	x10,x23
    cf78:	00090593          	mv	x11,x18
    cf7c:	2e1030ef          	jal	10a5c <__unorddf2>
    cf80:	0a051a63          	bnez	x10,d034 <f_printf+0x460>
    cf84:	000127b7          	lui	x15,0x12
    cf88:	ef07a603          	lw	x12,-272(x15) # 11ef0 <nes_bsram_size+0x28>
    cf8c:	ef47a683          	lw	x13,-268(x15)
    cf90:	000b8513          	mv	x10,x23
    cf94:	00090593          	mv	x11,x18
    cf98:	125020ef          	jal	f8bc <__ledf2>
    cf9c:	08a05c63          	blez	x10,d034 <f_printf+0x460>
    cfa0:	000127b7          	lui	x15,0x12
    cfa4:	8f878793          	add	x15,x15,-1800 # 118f8 <__clzsi2+0xd0c>
    cfa8:	03310623          	sb	x19,44(x2)
    cfac:	02d10493          	add	x9,x2,45
    cfb0:	00178793          	add	x15,x15,1
    cfb4:	00148493          	add	x9,x9,1
    cfb8:	fff7c703          	lbu	x14,-1(x15)
    cfbc:	fee48fa3          	sb	x14,-1(x9)
    cfc0:	0007c703          	lbu	x14,0(x15)
    cfc4:	fe0716e3          	bnez	x14,cfb0 <f_printf+0x3dc>
    cfc8:	00048023          	sb	x0,0(x9)
    cfcc:	02c10513          	add	x10,x2,44
    cfd0:	abdf70ef          	jal	4a8c <strlen>
    cfd4:	00050413          	mv	x8,x10
    cfd8:	01412783          	lw	x15,20(x2)
    cfdc:	0027f793          	and	x15,x15,2
    cfe0:	28079c63          	bnez	x15,d278 <f_printf+0x6a4>
    cfe4:	49557e63          	bgeu	x10,x21,d480 <f_printf+0x8ac>
    cfe8:	00812583          	lw	x11,8(x2)
    cfec:	05010513          	add	x10,x2,80
    cff0:	994fe0ef          	jal	b184 <putc_bfd>
    cff4:	00140413          	add	x8,x8,1
    cff8:	fe8a98e3          	bne	x21,x8,cfe8 <f_printf+0x414>
    cffc:	02c14583          	lbu	x11,44(x2)
    d000:	28059063          	bnez	x11,d280 <f_printf+0x6ac>
    d004:	c7dff06f          	j	cc80 <f_printf+0xac>
    d008:	00600d13          	li	x26,6
    d00c:	f39ff06f          	j	cf44 <f_printf+0x370>
    d010:	000b8613          	mv	x12,x23
    d014:	000b0693          	mv	x13,x22
    d018:	00000513          	li	x10,0
    d01c:	00000593          	li	x11,0
    d020:	134030ef          	jal	10154 <__subdf3>
    d024:	00050b93          	mv	x23,x10
    d028:	00058b13          	mv	x22,x11
    d02c:	02d00993          	li	x19,45
    d030:	f31ff06f          	j	cf60 <f_printf+0x38c>
    d034:	06600793          	li	x15,102
    d038:	02f40e63          	beq	x8,x15,d074 <f_printf+0x4a0>
    d03c:	00000613          	li	x12,0
    d040:	00000693          	li	x13,0
    d044:	000b8513          	mv	x10,x23
    d048:	000b0593          	mv	x11,x22
    d04c:	6e4020ef          	jal	f730 <__eqdf2>
    d050:	08051663          	bnez	x10,d0dc <f_printf+0x508>
    d054:	00000913          	li	x18,0
    d058:	00012c23          	sw	x0,24(x2)
    d05c:	02d00793          	li	x15,45
    d060:	10f98863          	beq	x19,x15,d170 <f_printf+0x59c>
    d064:	02c10993          	add	x19,x2,44
    d068:	41a00d33          	neg	x26,x26
    d06c:	fff00d93          	li	x27,-1
    d070:	1140006f          	j	d184 <f_printf+0x5b0>
    d074:	41a00533          	neg	x10,x26
    d078:	d49f80ef          	jal	5dc0 <i10x>
    d07c:	000127b7          	lui	x15,0x12
    d080:	ef87a603          	lw	x12,-264(x15) # 11ef8 <nes_bsram_size+0x30>
    d084:	efc7a683          	lw	x13,-260(x15)
    d088:	13d020ef          	jal	f9c4 <__muldf3>
    d08c:	00050613          	mv	x12,x10
    d090:	00058693          	mv	x13,x11
    d094:	000b8513          	mv	x10,x23
    d098:	000b0593          	mv	x11,x22
    d09c:	520010ef          	jal	e5bc <__adddf3>
    d0a0:	00050713          	mv	x14,x10
    d0a4:	00058793          	mv	x15,x11
    d0a8:	00050b93          	mv	x23,x10
    d0ac:	00058b13          	mv	x22,x11
    d0b0:	00070513          	mv	x10,x14
    d0b4:	00078593          	mv	x11,x15
    d0b8:	b0df80ef          	jal	5bc4 <ilog10>
    d0bc:	fff54793          	not	x15,x10
    d0c0:	41f7d793          	sra	x15,x15,0x1f
    d0c4:	00f57933          	and	x18,x10,x15
    d0c8:	012d0733          	add	x14,x26,x18
    d0cc:	01c00793          	li	x15,28
    d0d0:	3ae7ce63          	blt	x15,x14,d48c <f_printf+0x8b8>
    d0d4:	00012c23          	sw	x0,24(x2)
    d0d8:	f85ff06f          	j	d05c <f_printf+0x488>
    d0dc:	000b8513          	mv	x10,x23
    d0e0:	000b0593          	mv	x11,x22
    d0e4:	ae1f80ef          	jal	5bc4 <ilog10>
    d0e8:	41a50533          	sub	x10,x10,x26
    d0ec:	cd5f80ef          	jal	5dc0 <i10x>
    d0f0:	000127b7          	lui	x15,0x12
    d0f4:	ef87a603          	lw	x12,-264(x15) # 11ef8 <nes_bsram_size+0x30>
    d0f8:	efc7a683          	lw	x13,-260(x15)
    d0fc:	0c9020ef          	jal	f9c4 <__muldf3>
    d100:	000b8613          	mv	x12,x23
    d104:	000b0693          	mv	x13,x22
    d108:	4b4010ef          	jal	e5bc <__adddf3>
    d10c:	00050913          	mv	x18,x10
    d110:	00058b13          	mv	x22,x11
    d114:	ab1f80ef          	jal	5bc4 <ilog10>
    d118:	06300793          	li	x15,99
    d11c:	36a7ce63          	blt	x15,x10,d498 <f_printf+0x8c4>
    d120:	01800793          	li	x15,24
    d124:	01a7d863          	bge	x15,x26,d134 <f_printf+0x560>
    d128:	000127b7          	lui	x15,0x12
    d12c:	8f478793          	add	x15,x15,-1804 # 118f4 <__clzsi2+0xd08>
    d130:	e79ff06f          	j	cfa8 <f_printf+0x3d4>
    d134:	00a12c23          	sw	x10,24(x2)
    d138:	f9d00793          	li	x15,-99
    d13c:	00f55463          	bge	x10,x15,d144 <f_printf+0x570>
    d140:	00f12c23          	sw	x15,24(x2)
    d144:	01812503          	lw	x10,24(x2)
    d148:	c79f80ef          	jal	5dc0 <i10x>
    d14c:	00050613          	mv	x12,x10
    d150:	00058693          	mv	x13,x11
    d154:	00090513          	mv	x10,x18
    d158:	000b0593          	mv	x11,x22
    d15c:	529010ef          	jal	ee84 <__divdf3>
    d160:	00050b93          	mv	x23,x10
    d164:	00058b13          	mv	x22,x11
    d168:	00000913          	li	x18,0
    d16c:	ef1ff06f          	j	d05c <f_printf+0x488>
    d170:	02d00793          	li	x15,45
    d174:	02f10623          	sb	x15,44(x2)
    d178:	02d10993          	add	x19,x2,45
    d17c:	eedff06f          	j	d068 <f_printf+0x494>
    d180:	00048993          	mv	x19,x9
    d184:	00090513          	mv	x10,x18
    d188:	c39f80ef          	jal	5dc0 <i10x>
    d18c:	00050493          	mv	x9,x10
    d190:	00050613          	mv	x12,x10
    d194:	00b12623          	sw	x11,12(x2)
    d198:	00058693          	mv	x13,x11
    d19c:	000b8513          	mv	x10,x23
    d1a0:	000b0593          	mv	x11,x22
    d1a4:	4e1010ef          	jal	ee84 <__divdf3>
    d1a8:	109030ef          	jal	10ab0 <__fixdfsi>
    d1ac:	00050c13          	mv	x24,x10
    d1b0:	185030ef          	jal	10b34 <__floatsidf>
    d1b4:	00048613          	mv	x12,x9
    d1b8:	00c12683          	lw	x13,12(x2)
    d1bc:	009020ef          	jal	f9c4 <__muldf3>
    d1c0:	00050613          	mv	x12,x10
    d1c4:	00058693          	mv	x13,x11
    d1c8:	000b8513          	mv	x10,x23
    d1cc:	000b0593          	mv	x11,x22
    d1d0:	785020ef          	jal	10154 <__subdf3>
    d1d4:	00050b93          	mv	x23,x10
    d1d8:	00058b13          	mv	x22,x11
    d1dc:	00198493          	add	x9,x19,1
    d1e0:	030c0c13          	add	x24,x24,48
    d1e4:	01898023          	sb	x24,0(x19)
    d1e8:	fff90913          	add	x18,x18,-1
    d1ec:	01a94c63          	blt	x18,x26,d204 <f_printf+0x630>
    d1f0:	f9b918e3          	bne	x18,x27,d180 <f_printf+0x5ac>
    d1f4:	00298493          	add	x9,x19,2
    d1f8:	02e00793          	li	x15,46
    d1fc:	00f980a3          	sb	x15,1(x19)
    d200:	f81ff06f          	j	d180 <f_printf+0x5ac>
    d204:	06600793          	li	x15,102
    d208:	dcf400e3          	beq	x8,x15,cfc8 <f_printf+0x3f4>
    d20c:	008980a3          	sb	x8,1(x19)
    d210:	00398413          	add	x8,x19,3
    d214:	02b00793          	li	x15,43
    d218:	01812703          	lw	x14,24(x2)
    d21c:	02074e63          	bltz	x14,d258 <f_printf+0x684>
    d220:	00f98123          	sb	x15,2(x19)
    d224:	00a00593          	li	x11,10
    d228:	01812903          	lw	x18,24(x2)
    d22c:	00090513          	mv	x10,x18
    d230:	5d4000ef          	jal	d804 <__divsi3>
    d234:	03050793          	add	x15,x10,48
    d238:	00f40023          	sb	x15,0(x8)
    d23c:	00240493          	add	x9,x8,2
    d240:	00a00593          	li	x11,10
    d244:	00090513          	mv	x10,x18
    d248:	640000ef          	jal	d888 <__modsi3>
    d24c:	03050793          	add	x15,x10,48
    d250:	00f400a3          	sb	x15,1(x8)
    d254:	d75ff06f          	j	cfc8 <f_printf+0x3f4>
    d258:	40e007b3          	neg	x15,x14
    d25c:	00f12c23          	sw	x15,24(x2)
    d260:	02d00793          	li	x15,45
    d264:	fbdff06f          	j	d220 <f_printf+0x64c>
    d268:	000127b7          	lui	x15,0x12
    d26c:	8f078793          	add	x15,x15,-1808 # 118f0 <__clzsi2+0xd04>
    d270:	02c10493          	add	x9,x2,44
    d274:	d3dff06f          	j	cfb0 <f_printf+0x3dc>
    d278:	02c14583          	lbu	x11,44(x2)
    d27c:	00058e63          	beqz	x11,d298 <f_printf+0x6c4>
    d280:	02d10493          	add	x9,x2,45
    d284:	05010513          	add	x10,x2,80
    d288:	efdfd0ef          	jal	b184 <putc_bfd>
    d28c:	00148493          	add	x9,x9,1
    d290:	fff4c583          	lbu	x11,-1(x9)
    d294:	fe0598e3          	bnez	x11,d284 <f_printf+0x6b0>
    d298:	00140493          	add	x9,x8,1
    d29c:	9f5472e3          	bgeu	x8,x21,cc80 <f_printf+0xac>
    d2a0:	000c8593          	mv	x11,x25
    d2a4:	05010513          	add	x10,x2,80
    d2a8:	eddfd0ef          	jal	b184 <putc_bfd>
    d2ac:	00048793          	mv	x15,x9
    d2b0:	00148493          	add	x9,x9,1
    d2b4:	fefa96e3          	bne	x21,x15,d2a0 <f_printf+0x6cc>
    d2b8:	9c9ff06f          	j	cc80 <f_printf+0xac>
    d2bc:	00040593          	mv	x11,x8
    d2c0:	05010513          	add	x10,x2,80
    d2c4:	ec1fd0ef          	jal	b184 <putc_bfd>
    d2c8:	9b9ff06f          	j	cc80 <f_printf+0xac>
    d2cc:	01412783          	lw	x15,20(x2)
    d2d0:	0087f793          	and	x15,x15,8
    d2d4:	04078863          	beqz	x15,d324 <f_printf+0x750>
    d2d8:	09c12783          	lw	x15,156(x2)
    d2dc:	00778793          	add	x15,x15,7
    d2e0:	ff87f793          	and	x15,x15,-8
    d2e4:	00878713          	add	x14,x15,8
    d2e8:	08e12e23          	sw	x14,156(x2)
    d2ec:	0007a903          	lw	x18,0(x15)
    d2f0:	0047a483          	lw	x9,4(x15)
    d2f4:	06400793          	li	x15,100
    d2f8:	00a00c13          	li	x24,10
    d2fc:	1cf41263          	bne	x8,x15,d4c0 <f_printf+0x8ec>
    d300:	1c04d063          	bgez	x9,d4c0 <f_printf+0x8ec>
    d304:	012037b3          	snez	x15,x18
    d308:	409004b3          	neg	x9,x9
    d30c:	40f484b3          	sub	x9,x9,x15
    d310:	41200933          	neg	x18,x18
    d314:	01412783          	lw	x15,20(x2)
    d318:	0017e793          	or	x15,x15,1
    d31c:	00f12a23          	sw	x15,20(x2)
    d320:	1a00006f          	j	d4c0 <f_printf+0x8ec>
    d324:	00a00c13          	li	x24,10
    d328:	2440006f          	j	d56c <f_printf+0x998>
    d32c:	09c12783          	lw	x15,156(x2)
    d330:	00478713          	add	x14,x15,4
    d334:	08e12e23          	sw	x14,156(x2)
    d338:	0007a903          	lw	x18,0(x15)
    d33c:	00000493          	li	x9,0
    d340:	1800006f          	j	d4c0 <f_printf+0x8ec>
    d344:	09c12783          	lw	x15,156(x2)
    d348:	00478713          	add	x14,x15,4
    d34c:	08e12e23          	sw	x14,156(x2)
    d350:	0007a903          	lw	x18,0(x15)
    d354:	41f95493          	sra	x9,x18,0x1f
    d358:	fa9ff06f          	j	d300 <f_printf+0x72c>
    d35c:	01812783          	lw	x15,24(x2)
    d360:	00878433          	add	x8,x15,x8
    d364:	0ff47413          	zext.b	x8,x8
    d368:	001d0993          	add	x19,x26,1
    d36c:	02c10793          	add	x15,x2,44
    d370:	013787b3          	add	x15,x15,x19
    d374:	03040413          	add	x8,x8,48
    d378:	fe878fa3          	sb	x8,-1(x15)
    d37c:	076be263          	bltu	x23,x22,d3e0 <f_printf+0x80c>
    d380:	057b0863          	beq	x22,x23,d3d0 <f_printf+0x7fc>
    d384:	05998c63          	beq	x19,x25,d3dc <f_printf+0x808>
    d388:	00098d13          	mv	x26,x19
    d38c:	000c0613          	mv	x12,x24
    d390:	000b0693          	mv	x13,x22
    d394:	00090513          	mv	x10,x18
    d398:	00048593          	mv	x11,x9
    d39c:	3c9000ef          	jal	df64 <__umoddi3>
    d3a0:	0ff57413          	zext.b	x8,x10
    d3a4:	01212623          	sw	x18,12(x2)
    d3a8:	00048b93          	mv	x23,x9
    d3ac:	000c0613          	mv	x12,x24
    d3b0:	000b0693          	mv	x13,x22
    d3b4:	00090513          	mv	x10,x18
    d3b8:	00048593          	mv	x11,x9
    d3bc:	4fc000ef          	jal	d8b8 <_end>
    d3c0:	00050913          	mv	x18,x10
    d3c4:	00058493          	mv	x9,x11
    d3c8:	fa8df0e3          	bgeu	x27,x8,d368 <f_printf+0x794>
    d3cc:	f91ff06f          	j	d35c <f_printf+0x788>
    d3d0:	00c12783          	lw	x15,12(x2)
    d3d4:	fb87f8e3          	bgeu	x15,x24,d384 <f_printf+0x7b0>
    d3d8:	0080006f          	j	d3e0 <f_printf+0x80c>
    d3dc:	01f00d13          	li	x26,31
    d3e0:	01412783          	lw	x15,20(x2)
    d3e4:	0017f793          	and	x15,x15,1
    d3e8:	00078e63          	beqz	x15,d404 <f_printf+0x830>
    d3ec:	08098793          	add	x15,x19,128
    d3f0:	02010713          	add	x14,x2,32
    d3f4:	00e789b3          	add	x19,x15,x14
    d3f8:	02d00793          	li	x15,45
    d3fc:	f8f98623          	sb	x15,-116(x19)
    d400:	002d0993          	add	x19,x26,2
    d404:	01412783          	lw	x15,20(x2)
    d408:	0027f793          	and	x15,x15,2
    d40c:	06079263          	bnez	x15,d470 <f_printf+0x89c>
    d410:	0759f463          	bgeu	x19,x21,d478 <f_printf+0x8a4>
    d414:	00098413          	mv	x8,x19
    d418:	00812583          	lw	x11,8(x2)
    d41c:	05010513          	add	x10,x2,80
    d420:	d65fd0ef          	jal	b184 <putc_bfd>
    d424:	00140413          	add	x8,x8,1
    d428:	fe8a98e3          	bne	x21,x8,d418 <f_printf+0x844>
    d42c:	02c10793          	add	x15,x2,44
    d430:	013789b3          	add	x19,x15,x19
    d434:	fff9c583          	lbu	x11,-1(x19)
    d438:	05010513          	add	x10,x2,80
    d43c:	d49fd0ef          	jal	b184 <putc_bfd>
    d440:	fff98993          	add	x19,x19,-1
    d444:	01012783          	lw	x15,16(x2)
    d448:	ff3796e3          	bne	x15,x19,d434 <f_printf+0x860>
    d44c:	00140493          	add	x9,x8,1
    d450:	835478e3          	bgeu	x8,x21,cc80 <f_printf+0xac>
    d454:	000c8593          	mv	x11,x25
    d458:	05010513          	add	x10,x2,80
    d45c:	d29fd0ef          	jal	b184 <putc_bfd>
    d460:	00048793          	mv	x15,x9
    d464:	00148493          	add	x9,x9,1
    d468:	fefa96e3          	bne	x21,x15,d454 <f_printf+0x880>
    d46c:	815ff06f          	j	cc80 <f_printf+0xac>
    d470:	00098413          	mv	x8,x19
    d474:	fb9ff06f          	j	d42c <f_printf+0x858>
    d478:	00098413          	mv	x8,x19
    d47c:	fb1ff06f          	j	d42c <f_printf+0x858>
    d480:	02c14583          	lbu	x11,44(x2)
    d484:	de059ee3          	bnez	x11,d280 <f_printf+0x6ac>
    d488:	ff8ff06f          	j	cc80 <f_printf+0xac>
    d48c:	000127b7          	lui	x15,0x12
    d490:	8f478793          	add	x15,x15,-1804 # 118f4 <__clzsi2+0xd08>
    d494:	b15ff06f          	j	cfa8 <f_printf+0x3d4>
    d498:	000127b7          	lui	x15,0x12
    d49c:	8f478793          	add	x15,x15,-1804 # 118f4 <__clzsi2+0xd08>
    d4a0:	b09ff06f          	j	cfa8 <f_printf+0x3d4>
    d4a4:	09c12783          	lw	x15,156(x2)
    d4a8:	00778793          	add	x15,x15,7
    d4ac:	ff87f793          	and	x15,x15,-8
    d4b0:	00878713          	add	x14,x15,8
    d4b4:	08e12e23          	sw	x14,156(x2)
    d4b8:	0007a903          	lw	x18,0(x15)
    d4bc:	0047a483          	lw	x9,4(x15)
    d4c0:	f8840413          	add	x8,x8,-120
    d4c4:	00700793          	li	x15,7
    d4c8:	00041463          	bnez	x8,d4d0 <f_printf+0x8fc>
    d4cc:	02700793          	li	x15,39
    d4d0:	0ff7f793          	zext.b	x15,x15
    d4d4:	00f12c23          	sw	x15,24(x2)
    d4d8:	00000d13          	li	x26,0
    d4dc:	00000b13          	li	x22,0
    d4e0:	00900d93          	li	x27,9
    d4e4:	ea9ff06f          	j	d38c <f_printf+0x7b8>
    d4e8:	00800c13          	li	x24,8
    d4ec:	0080006f          	j	d4f4 <f_printf+0x920>
    d4f0:	01000c13          	li	x24,16
    d4f4:	01412783          	lw	x15,20(x2)
    d4f8:	0087f793          	and	x15,x15,8
    d4fc:	fa0794e3          	bnez	x15,d4a4 <f_printf+0x8d0>
    d500:	01412783          	lw	x15,20(x2)
    d504:	0047f793          	and	x15,x15,4
    d508:	e20792e3          	bnez	x15,d32c <f_printf+0x758>
    d50c:	06400793          	li	x15,100
    d510:	e2f40ae3          	beq	x8,x15,d344 <f_printf+0x770>
    d514:	09c12783          	lw	x15,156(x2)
    d518:	00478713          	add	x14,x15,4
    d51c:	08e12e23          	sw	x14,156(x2)
    d520:	0007a903          	lw	x18,0(x15)
    d524:	00000493          	li	x9,0
    d528:	f99ff06f          	j	d4c0 <f_printf+0x8ec>
    d52c:	f4058a63          	beqz	x11,cc80 <f_printf+0xac>
    d530:	980d1ce3          	bnez	x26,cec8 <f_printf+0x2f4>
    d534:	f4cff06f          	j	cc80 <f_printf+0xac>
    d538:	09c12783          	lw	x15,156(x2)
    d53c:	00778793          	add	x15,x15,7
    d540:	ff87f793          	and	x15,x15,-8
    d544:	00878713          	add	x14,x15,8
    d548:	08e12e23          	sw	x14,156(x2)
    d54c:	0007a903          	lw	x18,0(x15)
    d550:	0047a483          	lw	x9,4(x15)
    d554:	00200c13          	li	x24,2
    d558:	f69ff06f          	j	d4c0 <f_printf+0x8ec>
    d55c:	01412783          	lw	x15,20(x2)
    d560:	0087f793          	and	x15,x15,8
    d564:	00200c13          	li	x24,2
    d568:	fc0798e3          	bnez	x15,d538 <f_printf+0x964>
    d56c:	01412783          	lw	x15,20(x2)
    d570:	0047f793          	and	x15,x15,4
    d574:	f8078ce3          	beqz	x15,d50c <f_printf+0x938>
    d578:	06400793          	li	x15,100
    d57c:	daf418e3          	bne	x8,x15,d32c <f_printf+0x758>
    d580:	09c12783          	lw	x15,156(x2)
    d584:	00478713          	add	x14,x15,4
    d588:	08e12e23          	sw	x14,156(x2)
    d58c:	0007a903          	lw	x18,0(x15)
    d590:	41f95493          	sra	x9,x18,0x1f
    d594:	d6dff06f          	j	d300 <f_printf+0x72c>
    d598:	0d412483          	lw	x9,212(x2)
    d59c:	0d012903          	lw	x18,208(x2)
    d5a0:	0cc12983          	lw	x19,204(x2)
    d5a4:	0c412a83          	lw	x21,196(x2)
    d5a8:	0c012b03          	lw	x22,192(x2)
    d5ac:	0bc12b83          	lw	x23,188(x2)
    d5b0:	0b812c03          	lw	x24,184(x2)
    d5b4:	0b412c83          	lw	x25,180(x2)
    d5b8:	0b012d03          	lw	x26,176(x2)
    d5bc:	0ac12d83          	lw	x27,172(x2)
    d5c0:	05010513          	add	x10,x2,80
    d5c4:	c65fd0ef          	jal	b228 <putc_flush>
    d5c8:	0dc12083          	lw	x1,220(x2)
    d5cc:	0d812403          	lw	x8,216(x2)
    d5d0:	0c812a03          	lw	x20,200(x2)
    d5d4:	10010113          	add	x2,x2,256
    d5d8:	00008067          	ret
    d5dc:	0d412483          	lw	x9,212(x2)
    d5e0:	0d012903          	lw	x18,208(x2)
    d5e4:	0cc12983          	lw	x19,204(x2)
    d5e8:	0c412a83          	lw	x21,196(x2)
    d5ec:	0c012b03          	lw	x22,192(x2)
    d5f0:	0bc12b83          	lw	x23,188(x2)
    d5f4:	0b812c03          	lw	x24,184(x2)
    d5f8:	0b412c83          	lw	x25,180(x2)
    d5fc:	0b012d03          	lw	x26,176(x2)
    d600:	0ac12d83          	lw	x27,172(x2)
    d604:	fbdff06f          	j	d5c0 <f_printf+0x9ec>

0000d608 <ff_uni2oem>:
    d608:	00050713          	mv	x14,x10
    d60c:	07f00793          	li	x15,127
    d610:	00a7e863          	bltu	x15,x10,d620 <ff_uni2oem+0x18>
    d614:	01051513          	sll	x10,x10,0x10
    d618:	01055513          	srl	x10,x10,0x10
    d61c:	00008067          	ret
    d620:	000107b7          	lui	x15,0x10
    d624:	00000513          	li	x10,0
    d628:	00f77663          	bgeu	x14,x15,d634 <ff_uni2oem+0x2c>
    d62c:	1b500793          	li	x15,437
    d630:	00f58463          	beq	x11,x15,d638 <ff_uni2oem+0x30>
    d634:	00008067          	ret
    d638:	000126b7          	lui	x13,0x12
    d63c:	b1868693          	add	x13,x13,-1256 # 11b18 <uc437>
    d640:	00000793          	li	x15,0
    d644:	08000593          	li	x11,128
    d648:	0006d603          	lhu	x12,0(x13)
    d64c:	00e60c63          	beq	x12,x14,d664 <ff_uni2oem+0x5c>
    d650:	00178793          	add	x15,x15,1 # 10001 <__muldf3+0x63d>
    d654:	01079793          	sll	x15,x15,0x10
    d658:	0107d793          	srl	x15,x15,0x10
    d65c:	00268693          	add	x13,x13,2
    d660:	feb794e3          	bne	x15,x11,d648 <ff_uni2oem+0x40>
    d664:	08078513          	add	x10,x15,128
    d668:	0ff57513          	zext.b	x10,x10
    d66c:	00008067          	ret

0000d670 <ff_oem2uni>:
    d670:	07f00793          	li	x15,127
    d674:	02a7fc63          	bgeu	x15,x10,d6ac <ff_oem2uni+0x3c>
    d678:	1b500793          	li	x15,437
    d67c:	00f58663          	beq	x11,x15,d688 <ff_oem2uni+0x18>
    d680:	00000513          	li	x10,0
    d684:	00008067          	ret
    d688:	0ff00793          	li	x15,255
    d68c:	00a7ee63          	bltu	x15,x10,d6a8 <ff_oem2uni+0x38>
    d690:	00151513          	sll	x10,x10,0x1
    d694:	000127b7          	lui	x15,0x12
    d698:	b1878793          	add	x15,x15,-1256 # 11b18 <uc437>
    d69c:	00a787b3          	add	x15,x15,x10
    d6a0:	f007d503          	lhu	x10,-256(x15)
    d6a4:	00008067          	ret
    d6a8:	00000513          	li	x10,0
    d6ac:	00008067          	ret

0000d6b0 <ff_wtoupper>:
    d6b0:	000107b7          	lui	x15,0x10
    d6b4:	08f57c63          	bgeu	x10,x15,d74c <ff_wtoupper+0x9c>
    d6b8:	01051813          	sll	x16,x10,0x10
    d6bc:	01085813          	srl	x16,x16,0x10
    d6c0:	000017b7          	lui	x15,0x1
    d6c4:	04f87463          	bgeu	x16,x15,d70c <ff_wtoupper+0x5c>
    d6c8:	00012737          	lui	x14,0x12
    d6cc:	cd470713          	add	x14,x14,-812 # 11cd4 <cvt1.1>
    d6d0:	01051513          	sll	x10,x10,0x10
    d6d4:	01055513          	srl	x10,x10,0x10
    d6d8:	00075683          	lhu	x13,0(x14)
    d6dc:	06068663          	beqz	x13,d748 <ff_wtoupper+0x98>
    d6e0:	06d86463          	bltu	x16,x13,d748 <ff_wtoupper+0x98>
    d6e4:	00470713          	add	x14,x14,4
    d6e8:	ffe75783          	lhu	x15,-2(x14)
    d6ec:	0087d613          	srl	x12,x15,0x8
    d6f0:	0ff7f793          	zext.b	x15,x15
    d6f4:	00d785b3          	add	x11,x15,x13
    d6f8:	02b54063          	blt	x10,x11,d718 <ff_wtoupper+0x68>
    d6fc:	fc061ee3          	bnez	x12,d6d8 <ff_wtoupper+0x28>
    d700:	00179793          	sll	x15,x15,0x1
    d704:	00f70733          	add	x14,x14,x15
    d708:	fd1ff06f          	j	d6d8 <ff_wtoupper+0x28>
    d70c:	00012737          	lui	x14,0x12
    d710:	c1870713          	add	x14,x14,-1000 # 11c18 <cvt2.0>
    d714:	fbdff06f          	j	d6d0 <ff_wtoupper+0x20>
    d718:	00800793          	li	x15,8
    d71c:	02c7e663          	bltu	x15,x12,d748 <ff_wtoupper+0x98>
    d720:	00261613          	sll	x12,x12,0x2
    d724:	000127b7          	lui	x15,0x12
    d728:	af478793          	add	x15,x15,-1292 # 11af4 <ExCvt+0x80>
    d72c:	00f60633          	add	x12,x12,x15
    d730:	00062783          	lw	x15,0(x12)
    d734:	00078067          	jr	x15
    d738:	40d507b3          	sub	x15,x10,x13
    d73c:	00179793          	sll	x15,x15,0x1
    d740:	00f70733          	add	x14,x14,x15
    d744:	00075803          	lhu	x16,0(x14)
    d748:	00080513          	mv	x10,x16
    d74c:	00008067          	ret
    d750:	40d807b3          	sub	x15,x16,x13
    d754:	0017f793          	and	x15,x15,1
    d758:	40f80833          	sub	x16,x16,x15
    d75c:	01081813          	sll	x16,x16,0x10
    d760:	01085813          	srl	x16,x16,0x10
    d764:	fe5ff06f          	j	d748 <ff_wtoupper+0x98>
    d768:	ff080813          	add	x16,x16,-16
    d76c:	01081813          	sll	x16,x16,0x10
    d770:	01085813          	srl	x16,x16,0x10
    d774:	fd5ff06f          	j	d748 <ff_wtoupper+0x98>
    d778:	fe080813          	add	x16,x16,-32
    d77c:	01081813          	sll	x16,x16,0x10
    d780:	01085813          	srl	x16,x16,0x10
    d784:	fc5ff06f          	j	d748 <ff_wtoupper+0x98>
    d788:	fd080813          	add	x16,x16,-48
    d78c:	01081813          	sll	x16,x16,0x10
    d790:	01085813          	srl	x16,x16,0x10
    d794:	fb5ff06f          	j	d748 <ff_wtoupper+0x98>
    d798:	fe680813          	add	x16,x16,-26
    d79c:	01081813          	sll	x16,x16,0x10
    d7a0:	01085813          	srl	x16,x16,0x10
    d7a4:	fa5ff06f          	j	d748 <ff_wtoupper+0x98>
    d7a8:	00880813          	add	x16,x16,8
    d7ac:	01081813          	sll	x16,x16,0x10
    d7b0:	01085813          	srl	x16,x16,0x10
    d7b4:	f95ff06f          	j	d748 <ff_wtoupper+0x98>
    d7b8:	fb080813          	add	x16,x16,-80
    d7bc:	01081813          	sll	x16,x16,0x10
    d7c0:	01085813          	srl	x16,x16,0x10
    d7c4:	f85ff06f          	j	d748 <ff_wtoupper+0x98>
    d7c8:	ffffe7b7          	lui	x15,0xffffe
    d7cc:	3a078793          	add	x15,x15,928 # ffffe3a0 <STACK_TOP+0xffefe3a0>
    d7d0:	00f80833          	add	x16,x16,x15
    d7d4:	01081813          	sll	x16,x16,0x10
    d7d8:	01085813          	srl	x16,x16,0x10
    d7dc:	f6dff06f          	j	d748 <ff_wtoupper+0x98>

0000d7e0 <__mulsi3>:
    d7e0:	00050613          	mv	x12,x10
    d7e4:	00000513          	li	x10,0
    d7e8:	0015f693          	and	x13,x11,1
    d7ec:	00068463          	beqz	x13,d7f4 <__mulsi3+0x14>
    d7f0:	00c50533          	add	x10,x10,x12
    d7f4:	0015d593          	srl	x11,x11,0x1
    d7f8:	00161613          	sll	x12,x12,0x1
    d7fc:	fe0596e3          	bnez	x11,d7e8 <__mulsi3+0x8>
    d800:	00008067          	ret

0000d804 <__divsi3>:
    d804:	06054063          	bltz	x10,d864 <__umodsi3+0x10>
    d808:	0605c663          	bltz	x11,d874 <__umodsi3+0x20>

0000d80c <__hidden___udivsi3>:
    d80c:	00058613          	mv	x12,x11
    d810:	00050593          	mv	x11,x10
    d814:	fff00513          	li	x10,-1
    d818:	02060c63          	beqz	x12,d850 <__hidden___udivsi3+0x44>
    d81c:	00100693          	li	x13,1
    d820:	00b67a63          	bgeu	x12,x11,d834 <__hidden___udivsi3+0x28>
    d824:	00c05863          	blez	x12,d834 <__hidden___udivsi3+0x28>
    d828:	00161613          	sll	x12,x12,0x1
    d82c:	00169693          	sll	x13,x13,0x1
    d830:	feb66ae3          	bltu	x12,x11,d824 <__hidden___udivsi3+0x18>
    d834:	00000513          	li	x10,0
    d838:	00c5e663          	bltu	x11,x12,d844 <__hidden___udivsi3+0x38>
    d83c:	40c585b3          	sub	x11,x11,x12
    d840:	00d56533          	or	x10,x10,x13
    d844:	0016d693          	srl	x13,x13,0x1
    d848:	00165613          	srl	x12,x12,0x1
    d84c:	fe0696e3          	bnez	x13,d838 <__hidden___udivsi3+0x2c>
    d850:	00008067          	ret

0000d854 <__umodsi3>:
    d854:	00008293          	mv	x5,x1
    d858:	fb5ff0ef          	jal	d80c <__hidden___udivsi3>
    d85c:	00058513          	mv	x10,x11
    d860:	00028067          	jr	x5
    d864:	40a00533          	neg	x10,x10
    d868:	00b04863          	bgtz	x11,d878 <__umodsi3+0x24>
    d86c:	40b005b3          	neg	x11,x11
    d870:	f9dff06f          	j	d80c <__hidden___udivsi3>
    d874:	40b005b3          	neg	x11,x11
    d878:	00008293          	mv	x5,x1
    d87c:	f91ff0ef          	jal	d80c <__hidden___udivsi3>
    d880:	40a00533          	neg	x10,x10
    d884:	00028067          	jr	x5

0000d888 <__modsi3>:
    d888:	00008293          	mv	x5,x1
    d88c:	0005ca63          	bltz	x11,d8a0 <__modsi3+0x18>
    d890:	00054c63          	bltz	x10,d8a8 <__modsi3+0x20>
    d894:	f79ff0ef          	jal	d80c <__hidden___udivsi3>
    d898:	00058513          	mv	x10,x11
    d89c:	00028067          	jr	x5
    d8a0:	40b005b3          	neg	x11,x11
    d8a4:	fe0558e3          	bgez	x10,d894 <__modsi3+0xc>
    d8a8:	40a00533          	neg	x10,x10
    d8ac:	f61ff0ef          	jal	d80c <__hidden___udivsi3>
    d8b0:	40b00533          	neg	x10,x11
    d8b4:	00028067          	jr	x5

Disassembly of section .text.__udivdi3:

0000d8b8 <__udivdi3>:
    d8b8:	fd010113          	add	x2,x2,-48
    d8bc:	01312e23          	sw	x19,28(x2)
    d8c0:	02112623          	sw	x1,44(x2)
    d8c4:	01612823          	sw	x22,16(x2)
    d8c8:	00050993          	mv	x19,x10
    d8cc:	16069663          	bnez	x13,da38 <__udivdi3+0x180>
    d8d0:	02812423          	sw	x8,40(x2)
    d8d4:	01512a23          	sw	x21,20(x2)
    d8d8:	02912223          	sw	x9,36(x2)
    d8dc:	03212023          	sw	x18,32(x2)
    d8e0:	01412c23          	sw	x20,24(x2)
    d8e4:	00060a93          	mv	x21,x12
    d8e8:	00050413          	mv	x8,x10
    d8ec:	1cc5f063          	bgeu	x11,x12,daac <__udivdi3+0x1f4>
    d8f0:	000107b7          	lui	x15,0x10
    d8f4:	00058493          	mv	x9,x11
    d8f8:	2af66e63          	bltu	x12,x15,dbb4 <__udivdi3+0x2fc>
    d8fc:	010007b7          	lui	x15,0x1000
    d900:	01800713          	li	x14,24
    d904:	00f67463          	bgeu	x12,x15,d90c <__udivdi3+0x54>
    d908:	01000713          	li	x14,16
    d90c:	00e656b3          	srl	x13,x12,x14
    d910:	00004797          	auipc	x15,0x4
    d914:	7ec78793          	add	x15,x15,2028 # 120fc <__clz_tab>
    d918:	00d787b3          	add	x15,x15,x13
    d91c:	0007c783          	lbu	x15,0(x15)
    d920:	02000693          	li	x13,32
    d924:	00e787b3          	add	x15,x15,x14
    d928:	40f68733          	sub	x14,x13,x15
    d92c:	00f68c63          	beq	x13,x15,d944 <__udivdi3+0x8c>
    d930:	00e594b3          	sll	x9,x11,x14
    d934:	00f9d7b3          	srl	x15,x19,x15
    d938:	00e61ab3          	sll	x21,x12,x14
    d93c:	0097e4b3          	or	x9,x15,x9
    d940:	00e99433          	sll	x8,x19,x14
    d944:	010ada13          	srl	x20,x21,0x10
    d948:	000a0593          	mv	x11,x20
    d94c:	00048513          	mv	x10,x9
    d950:	010a9b13          	sll	x22,x21,0x10
    d954:	eb9ff0ef          	jal	d80c <__hidden___udivsi3>
    d958:	010b5b13          	srl	x22,x22,0x10
    d95c:	00050593          	mv	x11,x10
    d960:	00050913          	mv	x18,x10
    d964:	000b0513          	mv	x10,x22
    d968:	e79ff0ef          	jal	d7e0 <__mulsi3>
    d96c:	00050793          	mv	x15,x10
    d970:	000a0593          	mv	x11,x20
    d974:	00048513          	mv	x10,x9
    d978:	00078493          	mv	x9,x15
    d97c:	ed9ff0ef          	jal	d854 <__umodsi3>
    d980:	01051513          	sll	x10,x10,0x10
    d984:	01045793          	srl	x15,x8,0x10
    d988:	00a7e7b3          	or	x15,x15,x10
    d98c:	0097fc63          	bgeu	x15,x9,d9a4 <__udivdi3+0xec>
    d990:	00fa87b3          	add	x15,x21,x15
    d994:	fff90713          	add	x14,x18,-1
    d998:	0157e463          	bltu	x15,x21,d9a0 <__udivdi3+0xe8>
    d99c:	5a97e863          	bltu	x15,x9,df4c <__udivdi3+0x694>
    d9a0:	00070913          	mv	x18,x14
    d9a4:	409784b3          	sub	x9,x15,x9
    d9a8:	000a0593          	mv	x11,x20
    d9ac:	00048513          	mv	x10,x9
    d9b0:	e5dff0ef          	jal	d80c <__hidden___udivsi3>
    d9b4:	00050593          	mv	x11,x10
    d9b8:	00050993          	mv	x19,x10
    d9bc:	000b0513          	mv	x10,x22
    d9c0:	e21ff0ef          	jal	d7e0 <__mulsi3>
    d9c4:	00050793          	mv	x15,x10
    d9c8:	000a0593          	mv	x11,x20
    d9cc:	00048513          	mv	x10,x9
    d9d0:	01041413          	sll	x8,x8,0x10
    d9d4:	00078493          	mv	x9,x15
    d9d8:	e7dff0ef          	jal	d854 <__umodsi3>
    d9dc:	01051513          	sll	x10,x10,0x10
    d9e0:	01045413          	srl	x8,x8,0x10
    d9e4:	00a46433          	or	x8,x8,x10
    d9e8:	00947c63          	bgeu	x8,x9,da00 <__udivdi3+0x148>
    d9ec:	008a8433          	add	x8,x21,x8
    d9f0:	fff98793          	add	x15,x19,-1
    d9f4:	4d546e63          	bltu	x8,x21,ded0 <__udivdi3+0x618>
    d9f8:	ffe98993          	add	x19,x19,-2
    d9fc:	4c947a63          	bgeu	x8,x9,ded0 <__udivdi3+0x618>
    da00:	01091613          	sll	x12,x18,0x10
    da04:	01366533          	or	x10,x12,x19
    da08:	00000b13          	li	x22,0
    da0c:	02812403          	lw	x8,40(x2)
    da10:	02c12083          	lw	x1,44(x2)
    da14:	02412483          	lw	x9,36(x2)
    da18:	02012903          	lw	x18,32(x2)
    da1c:	01812a03          	lw	x20,24(x2)
    da20:	01412a83          	lw	x21,20(x2)
    da24:	01c12983          	lw	x19,28(x2)
    da28:	000b0593          	mv	x11,x22
    da2c:	01012b03          	lw	x22,16(x2)
    da30:	03010113          	add	x2,x2,48
    da34:	00008067          	ret
    da38:	02d5f263          	bgeu	x11,x13,da5c <__udivdi3+0x1a4>
    da3c:	00000b13          	li	x22,0
    da40:	00000513          	li	x10,0
    da44:	02c12083          	lw	x1,44(x2)
    da48:	01c12983          	lw	x19,28(x2)
    da4c:	000b0593          	mv	x11,x22
    da50:	01012b03          	lw	x22,16(x2)
    da54:	03010113          	add	x2,x2,48
    da58:	00008067          	ret
    da5c:	000107b7          	lui	x15,0x10
    da60:	26f6ee63          	bltu	x13,x15,dcdc <__udivdi3+0x424>
    da64:	01000737          	lui	x14,0x1000
    da68:	01800793          	li	x15,24
    da6c:	00e6f463          	bgeu	x13,x14,da74 <__udivdi3+0x1bc>
    da70:	01000793          	li	x15,16
    da74:	00f6d533          	srl	x10,x13,x15
    da78:	00004717          	auipc	x14,0x4
    da7c:	68470713          	add	x14,x14,1668 # 120fc <__clz_tab>
    da80:	00a70733          	add	x14,x14,x10
    da84:	00074703          	lbu	x14,0(x14)
    da88:	02000513          	li	x10,32
    da8c:	00f70733          	add	x14,x14,x15
    da90:	40e50b33          	sub	x22,x10,x14
    da94:	26e51c63          	bne	x10,x14,dd0c <__udivdi3+0x454>
    da98:	46b6ee63          	bltu	x13,x11,df14 <__udivdi3+0x65c>
    da9c:	00c9b533          	sltu	x10,x19,x12
    daa0:	00153513          	seqz	x10,x10
    daa4:	00000b13          	li	x22,0
    daa8:	f9dff06f          	j	da44 <__udivdi3+0x18c>
    daac:	10060c63          	beqz	x12,dbc4 <__udivdi3+0x30c>
    dab0:	000107b7          	lui	x15,0x10
    dab4:	44f67663          	bgeu	x12,x15,df00 <__udivdi3+0x648>
    dab8:	10063713          	sltiu	x14,x12,256
    dabc:	00173713          	seqz	x14,x14
    dac0:	00371713          	sll	x14,x14,0x3
    dac4:	00e656b3          	srl	x13,x12,x14
    dac8:	00004797          	auipc	x15,0x4
    dacc:	63478793          	add	x15,x15,1588 # 120fc <__clz_tab>
    dad0:	00d787b3          	add	x15,x15,x13
    dad4:	0007c483          	lbu	x9,0(x15)
    dad8:	02000793          	li	x15,32
    dadc:	00e484b3          	add	x9,x9,x14
    dae0:	40978733          	sub	x14,x15,x9
    dae4:	10979463          	bne	x15,x9,dbec <__udivdi3+0x334>
    dae8:	01061a13          	sll	x20,x12,0x10
    daec:	40c584b3          	sub	x9,x11,x12
    daf0:	01065913          	srl	x18,x12,0x10
    daf4:	010a5a13          	srl	x20,x20,0x10
    daf8:	00100b13          	li	x22,1
    dafc:	00090593          	mv	x11,x18
    db00:	00048513          	mv	x10,x9
    db04:	d09ff0ef          	jal	d80c <__hidden___udivsi3>
    db08:	000a0593          	mv	x11,x20
    db0c:	00050993          	mv	x19,x10
    db10:	cd1ff0ef          	jal	d7e0 <__mulsi3>
    db14:	00050793          	mv	x15,x10
    db18:	00090593          	mv	x11,x18
    db1c:	00048513          	mv	x10,x9
    db20:	00078493          	mv	x9,x15
    db24:	d31ff0ef          	jal	d854 <__umodsi3>
    db28:	01051513          	sll	x10,x10,0x10
    db2c:	01045793          	srl	x15,x8,0x10
    db30:	00a7e7b3          	or	x15,x15,x10
    db34:	0097fc63          	bgeu	x15,x9,db4c <__udivdi3+0x294>
    db38:	00fa87b3          	add	x15,x21,x15
    db3c:	fff98713          	add	x14,x19,-1
    db40:	0157e463          	bltu	x15,x21,db48 <__udivdi3+0x290>
    db44:	3e97ee63          	bltu	x15,x9,df40 <__udivdi3+0x688>
    db48:	00070993          	mv	x19,x14
    db4c:	409784b3          	sub	x9,x15,x9
    db50:	00090593          	mv	x11,x18
    db54:	00048513          	mv	x10,x9
    db58:	cb5ff0ef          	jal	d80c <__hidden___udivsi3>
    db5c:	000a0593          	mv	x11,x20
    db60:	00050a13          	mv	x20,x10
    db64:	c7dff0ef          	jal	d7e0 <__mulsi3>
    db68:	00050793          	mv	x15,x10
    db6c:	00090593          	mv	x11,x18
    db70:	00048513          	mv	x10,x9
    db74:	01041413          	sll	x8,x8,0x10
    db78:	00078493          	mv	x9,x15
    db7c:	cd9ff0ef          	jal	d854 <__umodsi3>
    db80:	01051513          	sll	x10,x10,0x10
    db84:	01045413          	srl	x8,x8,0x10
    db88:	00a46433          	or	x8,x8,x10
    db8c:	00947e63          	bgeu	x8,x9,dba8 <__udivdi3+0x2f0>
    db90:	008a8433          	add	x8,x21,x8
    db94:	fffa0793          	add	x15,x20,-1
    db98:	01546663          	bltu	x8,x21,dba4 <__udivdi3+0x2ec>
    db9c:	ffea0a13          	add	x20,x20,-2
    dba0:	00946463          	bltu	x8,x9,dba8 <__udivdi3+0x2f0>
    dba4:	00078a13          	mv	x20,x15
    dba8:	01099613          	sll	x12,x19,0x10
    dbac:	01466533          	or	x10,x12,x20
    dbb0:	e5dff06f          	j	da0c <__udivdi3+0x154>
    dbb4:	10063713          	sltiu	x14,x12,256
    dbb8:	00173713          	seqz	x14,x14
    dbbc:	00371713          	sll	x14,x14,0x3
    dbc0:	d4dff06f          	j	d90c <__udivdi3+0x54>
    dbc4:	00000693          	li	x13,0
    dbc8:	00004797          	auipc	x15,0x4
    dbcc:	53478793          	add	x15,x15,1332 # 120fc <__clz_tab>
    dbd0:	00d787b3          	add	x15,x15,x13
    dbd4:	0007c483          	lbu	x9,0(x15)
    dbd8:	00000713          	li	x14,0
    dbdc:	02000793          	li	x15,32
    dbe0:	00e484b3          	add	x9,x9,x14
    dbe4:	40978733          	sub	x14,x15,x9
    dbe8:	f09780e3          	beq	x15,x9,dae8 <__udivdi3+0x230>
    dbec:	00e61ab3          	sll	x21,x12,x14
    dbf0:	01712623          	sw	x23,12(x2)
    dbf4:	010ad913          	srl	x18,x21,0x10
    dbf8:	0095dbb3          	srl	x23,x11,x9
    dbfc:	00e597b3          	sll	x15,x11,x14
    dc00:	0099d4b3          	srl	x9,x19,x9
    dc04:	00090593          	mv	x11,x18
    dc08:	000b8513          	mv	x10,x23
    dc0c:	010a9a13          	sll	x20,x21,0x10
    dc10:	00f4e4b3          	or	x9,x9,x15
    dc14:	00e99433          	sll	x8,x19,x14
    dc18:	010a5a13          	srl	x20,x20,0x10
    dc1c:	bf1ff0ef          	jal	d80c <__hidden___udivsi3>
    dc20:	00050593          	mv	x11,x10
    dc24:	00050b13          	mv	x22,x10
    dc28:	000a0513          	mv	x10,x20
    dc2c:	bb5ff0ef          	jal	d7e0 <__mulsi3>
    dc30:	00050993          	mv	x19,x10
    dc34:	00090593          	mv	x11,x18
    dc38:	000b8513          	mv	x10,x23
    dc3c:	c19ff0ef          	jal	d854 <__umodsi3>
    dc40:	01051513          	sll	x10,x10,0x10
    dc44:	0104d793          	srl	x15,x9,0x10
    dc48:	00a7e7b3          	or	x15,x15,x10
    dc4c:	0137fe63          	bgeu	x15,x19,dc68 <__udivdi3+0x3b0>
    dc50:	00fa87b3          	add	x15,x21,x15
    dc54:	fffb0713          	add	x14,x22,-1
    dc58:	2d57ec63          	bltu	x15,x21,df30 <__udivdi3+0x678>
    dc5c:	2d37fa63          	bgeu	x15,x19,df30 <__udivdi3+0x678>
    dc60:	ffeb0b13          	add	x22,x22,-2
    dc64:	015787b3          	add	x15,x15,x21
    dc68:	413789b3          	sub	x19,x15,x19
    dc6c:	00090593          	mv	x11,x18
    dc70:	00098513          	mv	x10,x19
    dc74:	b99ff0ef          	jal	d80c <__hidden___udivsi3>
    dc78:	00050593          	mv	x11,x10
    dc7c:	00050b93          	mv	x23,x10
    dc80:	000a0513          	mv	x10,x20
    dc84:	b5dff0ef          	jal	d7e0 <__mulsi3>
    dc88:	00050793          	mv	x15,x10
    dc8c:	00090593          	mv	x11,x18
    dc90:	00098513          	mv	x10,x19
    dc94:	01049493          	sll	x9,x9,0x10
    dc98:	00078993          	mv	x19,x15
    dc9c:	bb9ff0ef          	jal	d854 <__umodsi3>
    dca0:	01051513          	sll	x10,x10,0x10
    dca4:	0104d493          	srl	x9,x9,0x10
    dca8:	00a4e4b3          	or	x9,x9,x10
    dcac:	0134fe63          	bgeu	x9,x19,dcc8 <__udivdi3+0x410>
    dcb0:	009a84b3          	add	x9,x21,x9
    dcb4:	fffb8793          	add	x15,x23,-1
    dcb8:	2754e463          	bltu	x9,x21,df20 <__udivdi3+0x668>
    dcbc:	2734f263          	bgeu	x9,x19,df20 <__udivdi3+0x668>
    dcc0:	ffeb8b93          	add	x23,x23,-2
    dcc4:	015484b3          	add	x9,x9,x21
    dcc8:	010b1b13          	sll	x22,x22,0x10
    dccc:	017b6b33          	or	x22,x22,x23
    dcd0:	413484b3          	sub	x9,x9,x19
    dcd4:	00c12b83          	lw	x23,12(x2)
    dcd8:	e25ff06f          	j	dafc <__udivdi3+0x244>
    dcdc:	1006b793          	sltiu	x15,x13,256
    dce0:	0017b793          	seqz	x15,x15
    dce4:	00379793          	sll	x15,x15,0x3
    dce8:	00f6d533          	srl	x10,x13,x15
    dcec:	00004717          	auipc	x14,0x4
    dcf0:	41070713          	add	x14,x14,1040 # 120fc <__clz_tab>
    dcf4:	00a70733          	add	x14,x14,x10
    dcf8:	00074703          	lbu	x14,0(x14)
    dcfc:	02000513          	li	x10,32
    dd00:	00f70733          	add	x14,x14,x15
    dd04:	40e50b33          	sub	x22,x10,x14
    dd08:	d8e508e3          	beq	x10,x14,da98 <__udivdi3+0x1e0>
    dd0c:	016696b3          	sll	x13,x13,x22
    dd10:	01912223          	sw	x25,4(x2)
    dd14:	00e65cb3          	srl	x25,x12,x14
    dd18:	00dcecb3          	or	x25,x25,x13
    dd1c:	01512a23          	sw	x21,20(x2)
    dd20:	01712623          	sw	x23,12(x2)
    dd24:	010cda93          	srl	x21,x25,0x10
    dd28:	00e5dbb3          	srl	x23,x11,x14
    dd2c:	016597b3          	sll	x15,x11,x22
    dd30:	00e9d733          	srl	x14,x19,x14
    dd34:	01812423          	sw	x24,8(x2)
    dd38:	000a8593          	mv	x11,x21
    dd3c:	000b8513          	mv	x10,x23
    dd40:	010c9c13          	sll	x24,x25,0x10
    dd44:	02812423          	sw	x8,40(x2)
    dd48:	02912223          	sw	x9,36(x2)
    dd4c:	03212023          	sw	x18,32(x2)
    dd50:	00f764b3          	or	x9,x14,x15
    dd54:	01661933          	sll	x18,x12,x22
    dd58:	01412c23          	sw	x20,24(x2)
    dd5c:	010c5c13          	srl	x24,x24,0x10
    dd60:	aadff0ef          	jal	d80c <__hidden___udivsi3>
    dd64:	00050593          	mv	x11,x10
    dd68:	00050413          	mv	x8,x10
    dd6c:	000c0513          	mv	x10,x24
    dd70:	a71ff0ef          	jal	d7e0 <__mulsi3>
    dd74:	00050a13          	mv	x20,x10
    dd78:	000a8593          	mv	x11,x21
    dd7c:	000b8513          	mv	x10,x23
    dd80:	ad5ff0ef          	jal	d854 <__umodsi3>
    dd84:	01051513          	sll	x10,x10,0x10
    dd88:	0104d793          	srl	x15,x9,0x10
    dd8c:	00a7e7b3          	or	x15,x15,x10
    dd90:	0147fe63          	bgeu	x15,x20,ddac <__udivdi3+0x4f4>
    dd94:	00fc87b3          	add	x15,x25,x15
    dd98:	fff40713          	add	x14,x8,-1
    dd9c:	1997ee63          	bltu	x15,x25,df38 <__udivdi3+0x680>
    dda0:	1947fc63          	bgeu	x15,x20,df38 <__udivdi3+0x680>
    dda4:	ffe40413          	add	x8,x8,-2
    dda8:	019787b3          	add	x15,x15,x25
    ddac:	41478a33          	sub	x20,x15,x20
    ddb0:	000a8593          	mv	x11,x21
    ddb4:	000a0513          	mv	x10,x20
    ddb8:	a55ff0ef          	jal	d80c <__hidden___udivsi3>
    ddbc:	00050593          	mv	x11,x10
    ddc0:	00050b93          	mv	x23,x10
    ddc4:	000c0513          	mv	x10,x24
    ddc8:	a19ff0ef          	jal	d7e0 <__mulsi3>
    ddcc:	00050793          	mv	x15,x10
    ddd0:	000a8593          	mv	x11,x21
    ddd4:	000a0513          	mv	x10,x20
    ddd8:	00078a13          	mv	x20,x15
    dddc:	a79ff0ef          	jal	d854 <__umodsi3>
    dde0:	01049713          	sll	x14,x9,0x10
    dde4:	01051513          	sll	x10,x10,0x10
    dde8:	01075713          	srl	x14,x14,0x10
    ddec:	00a76733          	or	x14,x14,x10
    ddf0:	01477e63          	bgeu	x14,x20,de0c <__udivdi3+0x554>
    ddf4:	00ec8733          	add	x14,x25,x14
    ddf8:	fffb8793          	add	x15,x23,-1
    ddfc:	13976663          	bltu	x14,x25,df28 <__udivdi3+0x670>
    de00:	13477463          	bgeu	x14,x20,df28 <__udivdi3+0x670>
    de04:	ffeb8b93          	add	x23,x23,-2
    de08:	01970733          	add	x14,x14,x25
    de0c:	00010e37          	lui	x28,0x10
    de10:	01041413          	sll	x8,x8,0x10
    de14:	01746433          	or	x8,x8,x23
    de18:	fffe0793          	add	x15,x28,-1 # ffff <__muldf3+0x63b>
    de1c:	00f47833          	and	x16,x8,x15
    de20:	00f977b3          	and	x15,x18,x15
    de24:	41470733          	sub	x14,x14,x20
    de28:	01045e93          	srl	x29,x8,0x10
    de2c:	01095913          	srl	x18,x18,0x10
    de30:	00080513          	mv	x10,x16
    de34:	00078593          	mv	x11,x15
    de38:	9a9ff0ef          	jal	d7e0 <__mulsi3>
    de3c:	00050313          	mv	x6,x10
    de40:	00090593          	mv	x11,x18
    de44:	00080513          	mv	x10,x16
    de48:	999ff0ef          	jal	d7e0 <__mulsi3>
    de4c:	00050813          	mv	x16,x10
    de50:	00078593          	mv	x11,x15
    de54:	000e8513          	mv	x10,x29
    de58:	989ff0ef          	jal	d7e0 <__mulsi3>
    de5c:	00050893          	mv	x17,x10
    de60:	00090593          	mv	x11,x18
    de64:	000e8513          	mv	x10,x29
    de68:	979ff0ef          	jal	d7e0 <__mulsi3>
    de6c:	01035793          	srl	x15,x6,0x10
    de70:	01180833          	add	x16,x16,x17
    de74:	010787b3          	add	x15,x15,x16
    de78:	0117f463          	bgeu	x15,x17,de80 <__udivdi3+0x5c8>
    de7c:	01c50533          	add	x10,x10,x28
    de80:	0107d693          	srl	x13,x15,0x10
    de84:	00a686b3          	add	x13,x13,x10
    de88:	06d76863          	bltu	x14,x13,def8 <__udivdi3+0x640>
    de8c:	04d70663          	beq	x14,x13,ded8 <__udivdi3+0x620>
    de90:	00040513          	mv	x10,x8
    de94:	02812403          	lw	x8,40(x2)
    de98:	02c12083          	lw	x1,44(x2)
    de9c:	00000b13          	li	x22,0
    dea0:	02412483          	lw	x9,36(x2)
    dea4:	02012903          	lw	x18,32(x2)
    dea8:	01812a03          	lw	x20,24(x2)
    deac:	01412a83          	lw	x21,20(x2)
    deb0:	00c12b83          	lw	x23,12(x2)
    deb4:	00812c03          	lw	x24,8(x2)
    deb8:	00412c83          	lw	x25,4(x2)
    debc:	01c12983          	lw	x19,28(x2)
    dec0:	000b0593          	mv	x11,x22
    dec4:	01012b03          	lw	x22,16(x2)
    dec8:	03010113          	add	x2,x2,48
    decc:	00008067          	ret
    ded0:	00078993          	mv	x19,x15
    ded4:	b2dff06f          	j	da00 <__udivdi3+0x148>
    ded8:	00010737          	lui	x14,0x10
    dedc:	fff70713          	add	x14,x14,-1 # ffff <__muldf3+0x63b>
    dee0:	00e7f7b3          	and	x15,x15,x14
    dee4:	01079793          	sll	x15,x15,0x10
    dee8:	00e37333          	and	x6,x6,x14
    deec:	01699533          	sll	x10,x19,x22
    def0:	006787b3          	add	x15,x15,x6
    def4:	f8f57ee3          	bgeu	x10,x15,de90 <__udivdi3+0x5d8>
    def8:	fff40513          	add	x10,x8,-1
    defc:	f99ff06f          	j	de94 <__udivdi3+0x5dc>
    df00:	010007b7          	lui	x15,0x1000
    df04:	04f67a63          	bgeu	x12,x15,df58 <__udivdi3+0x6a0>
    df08:	01065693          	srl	x13,x12,0x10
    df0c:	01000713          	li	x14,16
    df10:	bb9ff06f          	j	dac8 <__udivdi3+0x210>
    df14:	00000b13          	li	x22,0
    df18:	00100513          	li	x10,1
    df1c:	b29ff06f          	j	da44 <__udivdi3+0x18c>
    df20:	00078b93          	mv	x23,x15
    df24:	da5ff06f          	j	dcc8 <__udivdi3+0x410>
    df28:	00078b93          	mv	x23,x15
    df2c:	ee1ff06f          	j	de0c <__udivdi3+0x554>
    df30:	00070b13          	mv	x22,x14
    df34:	d35ff06f          	j	dc68 <__udivdi3+0x3b0>
    df38:	00070413          	mv	x8,x14
    df3c:	e71ff06f          	j	ddac <__udivdi3+0x4f4>
    df40:	ffe98993          	add	x19,x19,-2
    df44:	015787b3          	add	x15,x15,x21
    df48:	c05ff06f          	j	db4c <__udivdi3+0x294>
    df4c:	ffe90913          	add	x18,x18,-2
    df50:	015787b3          	add	x15,x15,x21
    df54:	a51ff06f          	j	d9a4 <__udivdi3+0xec>
    df58:	01865693          	srl	x13,x12,0x18
    df5c:	01800713          	li	x14,24
    df60:	b69ff06f          	j	dac8 <__udivdi3+0x210>

Disassembly of section .text.__umoddi3:

0000df64 <__umoddi3>:
    df64:	fd010113          	add	x2,x2,-48
    df68:	02112623          	sw	x1,44(x2)
    df6c:	00050793          	mv	x15,x10
    df70:	14069663          	bnez	x13,e0bc <__umoddi3+0x158>
    df74:	03212023          	sw	x18,32(x2)
    df78:	01412c23          	sw	x20,24(x2)
    df7c:	02812423          	sw	x8,40(x2)
    df80:	02912223          	sw	x9,36(x2)
    df84:	01312e23          	sw	x19,28(x2)
    df88:	01512a23          	sw	x21,20(x2)
    df8c:	00060a13          	mv	x20,x12
    df90:	00050913          	mv	x18,x10
    df94:	1ac5f663          	bgeu	x11,x12,e140 <__umoddi3+0x1dc>
    df98:	01612823          	sw	x22,16(x2)
    df9c:	00010737          	lui	x14,0x10
    dfa0:	00058993          	mv	x19,x11
    dfa4:	28e66063          	bltu	x12,x14,e224 <__umoddi3+0x2c0>
    dfa8:	01000737          	lui	x14,0x1000
    dfac:	01800693          	li	x13,24
    dfb0:	00e67463          	bgeu	x12,x14,dfb8 <__umoddi3+0x54>
    dfb4:	01000693          	li	x13,16
    dfb8:	00d65533          	srl	x10,x12,x13
    dfbc:	00004717          	auipc	x14,0x4
    dfc0:	14070713          	add	x14,x14,320 # 120fc <__clz_tab>
    dfc4:	00a70733          	add	x14,x14,x10
    dfc8:	00074703          	lbu	x14,0(x14)
    dfcc:	02000513          	li	x10,32
    dfd0:	00d70733          	add	x14,x14,x13
    dfd4:	40e504b3          	sub	x9,x10,x14
    dfd8:	00e50c63          	beq	x10,x14,dff0 <__umoddi3+0x8c>
    dfdc:	009599b3          	sll	x19,x11,x9
    dfe0:	00e7d733          	srl	x14,x15,x14
    dfe4:	00961a33          	sll	x20,x12,x9
    dfe8:	013769b3          	or	x19,x14,x19
    dfec:	00979933          	sll	x18,x15,x9
    dff0:	010a5a93          	srl	x21,x20,0x10
    dff4:	000a8593          	mv	x11,x21
    dff8:	00098513          	mv	x10,x19
    dffc:	010a1b13          	sll	x22,x20,0x10
    e000:	80dff0ef          	jal	d80c <__hidden___udivsi3>
    e004:	010b5b13          	srl	x22,x22,0x10
    e008:	000b0593          	mv	x11,x22
    e00c:	fd4ff0ef          	jal	d7e0 <__mulsi3>
    e010:	00050413          	mv	x8,x10
    e014:	000a8593          	mv	x11,x21
    e018:	00098513          	mv	x10,x19
    e01c:	839ff0ef          	jal	d854 <__umodsi3>
    e020:	01051513          	sll	x10,x10,0x10
    e024:	01095793          	srl	x15,x18,0x10
    e028:	00a7e7b3          	or	x15,x15,x10
    e02c:	0087f863          	bgeu	x15,x8,e03c <__umoddi3+0xd8>
    e030:	00fa07b3          	add	x15,x20,x15
    e034:	0147e463          	bltu	x15,x20,e03c <__umoddi3+0xd8>
    e038:	5687e863          	bltu	x15,x8,e5a8 <__umoddi3+0x644>
    e03c:	40878433          	sub	x8,x15,x8
    e040:	000a8593          	mv	x11,x21
    e044:	00040513          	mv	x10,x8
    e048:	fc4ff0ef          	jal	d80c <__hidden___udivsi3>
    e04c:	000b0593          	mv	x11,x22
    e050:	f90ff0ef          	jal	d7e0 <__mulsi3>
    e054:	00050793          	mv	x15,x10
    e058:	000a8593          	mv	x11,x21
    e05c:	00040513          	mv	x10,x8
    e060:	00078413          	mv	x8,x15
    e064:	ff0ff0ef          	jal	d854 <__umodsi3>
    e068:	01091793          	sll	x15,x18,0x10
    e06c:	01051513          	sll	x10,x10,0x10
    e070:	0107d793          	srl	x15,x15,0x10
    e074:	00a7e7b3          	or	x15,x15,x10
    e078:	0087f863          	bgeu	x15,x8,e088 <__umoddi3+0x124>
    e07c:	00fa07b3          	add	x15,x20,x15
    e080:	0147e463          	bltu	x15,x20,e088 <__umoddi3+0x124>
    e084:	5087ea63          	bltu	x15,x8,e598 <__umoddi3+0x634>
    e088:	01012b03          	lw	x22,16(x2)
    e08c:	408787b3          	sub	x15,x15,x8
    e090:	0097d533          	srl	x10,x15,x9
    e094:	02812403          	lw	x8,40(x2)
    e098:	02412483          	lw	x9,36(x2)
    e09c:	02012903          	lw	x18,32(x2)
    e0a0:	01c12983          	lw	x19,28(x2)
    e0a4:	01812a03          	lw	x20,24(x2)
    e0a8:	01412a83          	lw	x21,20(x2)
    e0ac:	00000593          	li	x11,0
    e0b0:	02c12083          	lw	x1,44(x2)
    e0b4:	03010113          	add	x2,x2,48
    e0b8:	00008067          	ret
    e0bc:	00050893          	mv	x17,x10
    e0c0:	fed5e8e3          	bltu	x11,x13,e0b0 <__umoddi3+0x14c>
    e0c4:	03212023          	sw	x18,32(x2)
    e0c8:	01312e23          	sw	x19,28(x2)
    e0cc:	00010737          	lui	x14,0x10
    e0d0:	00058813          	mv	x16,x11
    e0d4:	24e6ec63          	bltu	x13,x14,e32c <__umoddi3+0x3c8>
    e0d8:	01000737          	lui	x14,0x1000
    e0dc:	01800513          	li	x10,24
    e0e0:	00e6f463          	bgeu	x13,x14,e0e8 <__umoddi3+0x184>
    e0e4:	01000513          	li	x10,16
    e0e8:	00a6d333          	srl	x6,x13,x10
    e0ec:	00004717          	auipc	x14,0x4
    e0f0:	01070713          	add	x14,x14,16 # 120fc <__clz_tab>
    e0f4:	00670733          	add	x14,x14,x6
    e0f8:	00074703          	lbu	x14,0(x14)
    e0fc:	02000313          	li	x6,32
    e100:	00a709b3          	add	x19,x14,x10
    e104:	41330933          	sub	x18,x6,x19
    e108:	25331a63          	bne	x6,x19,e35c <__umoddi3+0x3f8>
    e10c:	00b6e463          	bltu	x13,x11,e114 <__umoddi3+0x1b0>
    e110:	00c7ea63          	bltu	x15,x12,e124 <__umoddi3+0x1c0>
    e114:	40c788b3          	sub	x17,x15,x12
    e118:	40d586b3          	sub	x13,x11,x13
    e11c:	0117b833          	sltu	x16,x15,x17
    e120:	41068833          	sub	x16,x13,x16
    e124:	02c12083          	lw	x1,44(x2)
    e128:	02012903          	lw	x18,32(x2)
    e12c:	01c12983          	lw	x19,28(x2)
    e130:	00088513          	mv	x10,x17
    e134:	00080593          	mv	x11,x16
    e138:	03010113          	add	x2,x2,48
    e13c:	00008067          	ret
    e140:	0e060a63          	beqz	x12,e234 <__umoddi3+0x2d0>
    e144:	00010737          	lui	x14,0x10
    e148:	42e67663          	bgeu	x12,x14,e574 <__umoddi3+0x610>
    e14c:	10063693          	sltiu	x13,x12,256
    e150:	0016b693          	seqz	x13,x13
    e154:	00369693          	sll	x13,x13,0x3
    e158:	00d65533          	srl	x10,x12,x13
    e15c:	00004717          	auipc	x14,0x4
    e160:	fa070713          	add	x14,x14,-96 # 120fc <__clz_tab>
    e164:	00a70733          	add	x14,x14,x10
    e168:	00074983          	lbu	x19,0(x14)
    e16c:	02000713          	li	x14,32
    e170:	00d989b3          	add	x19,x19,x13
    e174:	413704b3          	sub	x9,x14,x19
    e178:	0f371263          	bne	x14,x19,e25c <__umoddi3+0x2f8>
    e17c:	01061413          	sll	x8,x12,0x10
    e180:	40c589b3          	sub	x19,x11,x12
    e184:	01065a93          	srl	x21,x12,0x10
    e188:	01045413          	srl	x8,x8,0x10
    e18c:	000a8593          	mv	x11,x21
    e190:	00098513          	mv	x10,x19
    e194:	e78ff0ef          	jal	d80c <__hidden___udivsi3>
    e198:	00040593          	mv	x11,x8
    e19c:	e44ff0ef          	jal	d7e0 <__mulsi3>
    e1a0:	00050793          	mv	x15,x10
    e1a4:	000a8593          	mv	x11,x21
    e1a8:	00098513          	mv	x10,x19
    e1ac:	00078993          	mv	x19,x15
    e1b0:	ea4ff0ef          	jal	d854 <__umodsi3>
    e1b4:	01051513          	sll	x10,x10,0x10
    e1b8:	01095793          	srl	x15,x18,0x10
    e1bc:	00a7e7b3          	or	x15,x15,x10
    e1c0:	0137f863          	bgeu	x15,x19,e1d0 <__umoddi3+0x26c>
    e1c4:	00fa07b3          	add	x15,x20,x15
    e1c8:	0147e463          	bltu	x15,x20,e1d0 <__umoddi3+0x26c>
    e1cc:	3d37ea63          	bltu	x15,x19,e5a0 <__umoddi3+0x63c>
    e1d0:	413789b3          	sub	x19,x15,x19
    e1d4:	000a8593          	mv	x11,x21
    e1d8:	00098513          	mv	x10,x19
    e1dc:	e30ff0ef          	jal	d80c <__hidden___udivsi3>
    e1e0:	00040593          	mv	x11,x8
    e1e4:	dfcff0ef          	jal	d7e0 <__mulsi3>
    e1e8:	00050413          	mv	x8,x10
    e1ec:	000a8593          	mv	x11,x21
    e1f0:	00098513          	mv	x10,x19
    e1f4:	e60ff0ef          	jal	d854 <__umodsi3>
    e1f8:	01091913          	sll	x18,x18,0x10
    e1fc:	01051793          	sll	x15,x10,0x10
    e200:	01095913          	srl	x18,x18,0x10
    e204:	00f967b3          	or	x15,x18,x15
    e208:	0087fa63          	bgeu	x15,x8,e21c <__umoddi3+0x2b8>
    e20c:	00fa07b3          	add	x15,x20,x15
    e210:	0147e663          	bltu	x15,x20,e21c <__umoddi3+0x2b8>
    e214:	0087f463          	bgeu	x15,x8,e21c <__umoddi3+0x2b8>
    e218:	014787b3          	add	x15,x15,x20
    e21c:	408787b3          	sub	x15,x15,x8
    e220:	e71ff06f          	j	e090 <__umoddi3+0x12c>
    e224:	10063693          	sltiu	x13,x12,256
    e228:	0016b693          	seqz	x13,x13
    e22c:	00369693          	sll	x13,x13,0x3
    e230:	d89ff06f          	j	dfb8 <__umoddi3+0x54>
    e234:	00000513          	li	x10,0
    e238:	00004717          	auipc	x14,0x4
    e23c:	ec470713          	add	x14,x14,-316 # 120fc <__clz_tab>
    e240:	00a70733          	add	x14,x14,x10
    e244:	00074983          	lbu	x19,0(x14)
    e248:	00000693          	li	x13,0
    e24c:	02000713          	li	x14,32
    e250:	00d989b3          	add	x19,x19,x13
    e254:	413704b3          	sub	x9,x14,x19
    e258:	f33702e3          	beq	x14,x19,e17c <__umoddi3+0x218>
    e25c:	00961a33          	sll	x20,x12,x9
    e260:	01712623          	sw	x23,12(x2)
    e264:	010a5a93          	srl	x21,x20,0x10
    e268:	0135dbb3          	srl	x23,x11,x19
    e26c:	00959733          	sll	x14,x11,x9
    e270:	0137d9b3          	srl	x19,x15,x19
    e274:	000a8593          	mv	x11,x21
    e278:	000b8513          	mv	x10,x23
    e27c:	010a1413          	sll	x8,x20,0x10
    e280:	00e9e9b3          	or	x19,x19,x14
    e284:	00979933          	sll	x18,x15,x9
    e288:	01612823          	sw	x22,16(x2)
    e28c:	01045413          	srl	x8,x8,0x10
    e290:	d7cff0ef          	jal	d80c <__hidden___udivsi3>
    e294:	00040593          	mv	x11,x8
    e298:	d48ff0ef          	jal	d7e0 <__mulsi3>
    e29c:	00050b13          	mv	x22,x10
    e2a0:	000a8593          	mv	x11,x21
    e2a4:	000b8513          	mv	x10,x23
    e2a8:	dacff0ef          	jal	d854 <__umodsi3>
    e2ac:	01051513          	sll	x10,x10,0x10
    e2b0:	0109d793          	srl	x15,x19,0x10
    e2b4:	00a7e7b3          	or	x15,x15,x10
    e2b8:	0167fa63          	bgeu	x15,x22,e2cc <__umoddi3+0x368>
    e2bc:	00fa07b3          	add	x15,x20,x15
    e2c0:	0147e663          	bltu	x15,x20,e2cc <__umoddi3+0x368>
    e2c4:	0167f463          	bgeu	x15,x22,e2cc <__umoddi3+0x368>
    e2c8:	014787b3          	add	x15,x15,x20
    e2cc:	41678b33          	sub	x22,x15,x22
    e2d0:	000a8593          	mv	x11,x21
    e2d4:	000b0513          	mv	x10,x22
    e2d8:	d34ff0ef          	jal	d80c <__hidden___udivsi3>
    e2dc:	00040593          	mv	x11,x8
    e2e0:	d00ff0ef          	jal	d7e0 <__mulsi3>
    e2e4:	00050793          	mv	x15,x10
    e2e8:	000a8593          	mv	x11,x21
    e2ec:	000b0513          	mv	x10,x22
    e2f0:	01099993          	sll	x19,x19,0x10
    e2f4:	00078b13          	mv	x22,x15
    e2f8:	d5cff0ef          	jal	d854 <__umodsi3>
    e2fc:	01051513          	sll	x10,x10,0x10
    e300:	0109d993          	srl	x19,x19,0x10
    e304:	00a9e9b3          	or	x19,x19,x10
    e308:	0169fa63          	bgeu	x19,x22,e31c <__umoddi3+0x3b8>
    e30c:	013a09b3          	add	x19,x20,x19
    e310:	0149e663          	bltu	x19,x20,e31c <__umoddi3+0x3b8>
    e314:	0169f463          	bgeu	x19,x22,e31c <__umoddi3+0x3b8>
    e318:	014989b3          	add	x19,x19,x20
    e31c:	416989b3          	sub	x19,x19,x22
    e320:	00c12b83          	lw	x23,12(x2)
    e324:	01012b03          	lw	x22,16(x2)
    e328:	e65ff06f          	j	e18c <__umoddi3+0x228>
    e32c:	1006b513          	sltiu	x10,x13,256
    e330:	00153513          	seqz	x10,x10
    e334:	00351513          	sll	x10,x10,0x3
    e338:	00a6d333          	srl	x6,x13,x10
    e33c:	00004717          	auipc	x14,0x4
    e340:	dc070713          	add	x14,x14,-576 # 120fc <__clz_tab>
    e344:	00670733          	add	x14,x14,x6
    e348:	00074703          	lbu	x14,0(x14)
    e34c:	02000313          	li	x6,32
    e350:	00a709b3          	add	x19,x14,x10
    e354:	41330933          	sub	x18,x6,x19
    e358:	db330ae3          	beq	x6,x19,e10c <__umoddi3+0x1a8>
    e35c:	01512a23          	sw	x21,20(x2)
    e360:	012696b3          	sll	x13,x13,x18
    e364:	01365ab3          	srl	x21,x12,x19
    e368:	00daeab3          	or	x21,x21,x13
    e36c:	01712623          	sw	x23,12(x2)
    e370:	01a12023          	sw	x26,0(x2)
    e374:	010adb93          	srl	x23,x21,0x10
    e378:	0135dd33          	srl	x26,x11,x19
    e37c:	01259733          	sll	x14,x11,x18
    e380:	0137d6b3          	srl	x13,x15,x19
    e384:	01912223          	sw	x25,4(x2)
    e388:	000b8593          	mv	x11,x23
    e38c:	000d0513          	mv	x10,x26
    e390:	010a9c93          	sll	x25,x21,0x10
    e394:	02812423          	sw	x8,40(x2)
    e398:	02912223          	sw	x9,36(x2)
    e39c:	01261433          	sll	x8,x12,x18
    e3a0:	012794b3          	sll	x9,x15,x18
    e3a4:	01412c23          	sw	x20,24(x2)
    e3a8:	01612823          	sw	x22,16(x2)
    e3ac:	00e6ea33          	or	x20,x13,x14
    e3b0:	01812423          	sw	x24,8(x2)
    e3b4:	010cdc93          	srl	x25,x25,0x10
    e3b8:	c54ff0ef          	jal	d80c <__hidden___udivsi3>
    e3bc:	00050593          	mv	x11,x10
    e3c0:	00050b13          	mv	x22,x10
    e3c4:	000c8513          	mv	x10,x25
    e3c8:	c18ff0ef          	jal	d7e0 <__mulsi3>
    e3cc:	00050c13          	mv	x24,x10
    e3d0:	000b8593          	mv	x11,x23
    e3d4:	000d0513          	mv	x10,x26
    e3d8:	c7cff0ef          	jal	d854 <__umodsi3>
    e3dc:	01051513          	sll	x10,x10,0x10
    e3e0:	010a5793          	srl	x15,x20,0x10
    e3e4:	00a7e7b3          	or	x15,x15,x10
    e3e8:	0187fe63          	bgeu	x15,x24,e404 <__umoddi3+0x4a0>
    e3ec:	00fa87b3          	add	x15,x21,x15
    e3f0:	fffb0713          	add	x14,x22,-1
    e3f4:	1957ee63          	bltu	x15,x21,e590 <__umoddi3+0x62c>
    e3f8:	1987fc63          	bgeu	x15,x24,e590 <__umoddi3+0x62c>
    e3fc:	ffeb0b13          	add	x22,x22,-2
    e400:	015787b3          	add	x15,x15,x21
    e404:	41878c33          	sub	x24,x15,x24
    e408:	000b8593          	mv	x11,x23
    e40c:	000c0513          	mv	x10,x24
    e410:	bfcff0ef          	jal	d80c <__hidden___udivsi3>
    e414:	00050593          	mv	x11,x10
    e418:	00050d13          	mv	x26,x10
    e41c:	000c8513          	mv	x10,x25
    e420:	bc0ff0ef          	jal	d7e0 <__mulsi3>
    e424:	00050793          	mv	x15,x10
    e428:	000b8593          	mv	x11,x23
    e42c:	000c0513          	mv	x10,x24
    e430:	00078b93          	mv	x23,x15
    e434:	c20ff0ef          	jal	d854 <__umodsi3>
    e438:	010a1593          	sll	x11,x20,0x10
    e43c:	01051513          	sll	x10,x10,0x10
    e440:	0105d593          	srl	x11,x11,0x10
    e444:	00a5e5b3          	or	x11,x11,x10
    e448:	0175fe63          	bgeu	x11,x23,e464 <__umoddi3+0x500>
    e44c:	00ba85b3          	add	x11,x21,x11
    e450:	fffd0793          	add	x15,x26,-1
    e454:	1355ea63          	bltu	x11,x21,e588 <__umoddi3+0x624>
    e458:	1375f863          	bgeu	x11,x23,e588 <__umoddi3+0x624>
    e45c:	ffed0d13          	add	x26,x26,-2
    e460:	015585b3          	add	x11,x11,x21
    e464:	010b1793          	sll	x15,x22,0x10
    e468:	00010e37          	lui	x28,0x10
    e46c:	01a7e7b3          	or	x15,x15,x26
    e470:	fffe0313          	add	x6,x28,-1 # ffff <__muldf3+0x63b>
    e474:	0067f8b3          	and	x17,x15,x6
    e478:	00647333          	and	x6,x8,x6
    e47c:	41758733          	sub	x14,x11,x23
    e480:	0107d793          	srl	x15,x15,0x10
    e484:	01045e93          	srl	x29,x8,0x10
    e488:	00088513          	mv	x10,x17
    e48c:	00030593          	mv	x11,x6
    e490:	b50ff0ef          	jal	d7e0 <__mulsi3>
    e494:	00050813          	mv	x16,x10
    e498:	000e8593          	mv	x11,x29
    e49c:	00088513          	mv	x10,x17
    e4a0:	b40ff0ef          	jal	d7e0 <__mulsi3>
    e4a4:	00050893          	mv	x17,x10
    e4a8:	00030593          	mv	x11,x6
    e4ac:	00078513          	mv	x10,x15
    e4b0:	b30ff0ef          	jal	d7e0 <__mulsi3>
    e4b4:	00050313          	mv	x6,x10
    e4b8:	000e8593          	mv	x11,x29
    e4bc:	00078513          	mv	x10,x15
    e4c0:	b20ff0ef          	jal	d7e0 <__mulsi3>
    e4c4:	01085793          	srl	x15,x16,0x10
    e4c8:	006888b3          	add	x17,x17,x6
    e4cc:	011787b3          	add	x15,x15,x17
    e4d0:	0067f463          	bgeu	x15,x6,e4d8 <__umoddi3+0x574>
    e4d4:	01c50533          	add	x10,x10,x28
    e4d8:	00010637          	lui	x12,0x10
    e4dc:	fff60613          	add	x12,x12,-1 # ffff <__muldf3+0x63b>
    e4e0:	0107d693          	srl	x13,x15,0x10
    e4e4:	00c7f7b3          	and	x15,x15,x12
    e4e8:	01079793          	sll	x15,x15,0x10
    e4ec:	00c87833          	and	x16,x16,x12
    e4f0:	00a686b3          	add	x13,x13,x10
    e4f4:	010787b3          	add	x15,x15,x16
    e4f8:	06d76263          	bltu	x14,x13,e55c <__umoddi3+0x5f8>
    e4fc:	04d70e63          	beq	x14,x13,e558 <__umoddi3+0x5f4>
    e500:	40f487b3          	sub	x15,x9,x15
    e504:	00f4b4b3          	sltu	x9,x9,x15
    e508:	02812403          	lw	x8,40(x2)
    e50c:	02c12083          	lw	x1,44(x2)
    e510:	40d705b3          	sub	x11,x14,x13
    e514:	409585b3          	sub	x11,x11,x9
    e518:	01359733          	sll	x14,x11,x19
    e51c:	0127d7b3          	srl	x15,x15,x18
    e520:	02412483          	lw	x9,36(x2)
    e524:	01c12983          	lw	x19,28(x2)
    e528:	01812a03          	lw	x20,24(x2)
    e52c:	01412a83          	lw	x21,20(x2)
    e530:	01012b03          	lw	x22,16(x2)
    e534:	00c12b83          	lw	x23,12(x2)
    e538:	00812c03          	lw	x24,8(x2)
    e53c:	00412c83          	lw	x25,4(x2)
    e540:	00012d03          	lw	x26,0(x2)
    e544:	0125d5b3          	srl	x11,x11,x18
    e548:	00f76533          	or	x10,x14,x15
    e54c:	02012903          	lw	x18,32(x2)
    e550:	03010113          	add	x2,x2,48
    e554:	00008067          	ret
    e558:	faf4f4e3          	bgeu	x9,x15,e500 <__umoddi3+0x59c>
    e55c:	40878433          	sub	x8,x15,x8
    e560:	0087b7b3          	sltu	x15,x15,x8
    e564:	01578ab3          	add	x21,x15,x21
    e568:	415686b3          	sub	x13,x13,x21
    e56c:	00040793          	mv	x15,x8
    e570:	f91ff06f          	j	e500 <__umoddi3+0x59c>
    e574:	01000737          	lui	x14,0x1000
    e578:	02e67c63          	bgeu	x12,x14,e5b0 <__umoddi3+0x64c>
    e57c:	01065513          	srl	x10,x12,0x10
    e580:	01000693          	li	x13,16
    e584:	bd9ff06f          	j	e15c <__umoddi3+0x1f8>
    e588:	00078d13          	mv	x26,x15
    e58c:	ed9ff06f          	j	e464 <__umoddi3+0x500>
    e590:	00070b13          	mv	x22,x14
    e594:	e71ff06f          	j	e404 <__umoddi3+0x4a0>
    e598:	014787b3          	add	x15,x15,x20
    e59c:	aedff06f          	j	e088 <__umoddi3+0x124>
    e5a0:	014787b3          	add	x15,x15,x20
    e5a4:	c2dff06f          	j	e1d0 <__umoddi3+0x26c>
    e5a8:	014787b3          	add	x15,x15,x20
    e5ac:	a91ff06f          	j	e03c <__umoddi3+0xd8>
    e5b0:	01865513          	srl	x10,x12,0x18
    e5b4:	01800693          	li	x13,24
    e5b8:	ba5ff06f          	j	e15c <__umoddi3+0x1f8>

Disassembly of section .text.__adddf3:

0000e5bc <__adddf3>:
    e5bc:	001007b7          	lui	x15,0x100
    e5c0:	fe010113          	add	x2,x2,-32
    e5c4:	fff78e93          	add	x29,x15,-1 # fffff <_ebss+0xe310f>
    e5c8:	00bef833          	and	x16,x29,x11
    e5cc:	00def7b3          	and	x15,x29,x13
    e5d0:	0146d313          	srl	x6,x13,0x14
    e5d4:	01212823          	sw	x18,16(x2)
    e5d8:	0145d913          	srl	x18,x11,0x14
    e5dc:	00379793          	sll	x15,x15,0x3
    e5e0:	00812c23          	sw	x8,24(x2)
    e5e4:	00381813          	sll	x16,x16,0x3
    e5e8:	01f5d413          	srl	x8,x11,0x1f
    e5ec:	01d55713          	srl	x14,x10,0x1d
    e5f0:	01d65893          	srl	x17,x12,0x1d
    e5f4:	7ff97913          	and	x18,x18,2047
    e5f8:	7ff37313          	and	x6,x6,2047
    e5fc:	00112e23          	sw	x1,28(x2)
    e600:	00912a23          	sw	x9,20(x2)
    e604:	01312623          	sw	x19,12(x2)
    e608:	01f6d693          	srl	x13,x13,0x1f
    e60c:	00f8e8b3          	or	x17,x17,x15
    e610:	01076733          	or	x14,x14,x16
    e614:	00351593          	sll	x11,x10,0x3
    e618:	00361f13          	sll	x30,x12,0x3
    e61c:	406907b3          	sub	x15,x18,x6
    e620:	1ed40463          	beq	x8,x13,e808 <__adddf3+0x24c>
    e624:	16f05263          	blez	x15,e788 <__adddf3+0x1cc>
    e628:	28030663          	beqz	x6,e8b4 <__adddf3+0x2f8>
    e62c:	7ff00693          	li	x13,2047
    e630:	42d90663          	beq	x18,x13,ea5c <__adddf3+0x4a0>
    e634:	03800693          	li	x13,56
    e638:	00100613          	li	x12,1
    e63c:	02f6ce63          	blt	x13,x15,e678 <__adddf3+0xbc>
    e640:	008006b7          	lui	x13,0x800
    e644:	00d8e8b3          	or	x17,x17,x13
    e648:	01f00693          	li	x13,31
    e64c:	52f6ce63          	blt	x13,x15,eb88 <__adddf3+0x5cc>
    e650:	02000693          	li	x13,32
    e654:	40f686b3          	sub	x13,x13,x15
    e658:	00d89633          	sll	x12,x17,x13
    e65c:	00ff5533          	srl	x10,x30,x15
    e660:	00df16b3          	sll	x13,x30,x13
    e664:	00a66633          	or	x12,x12,x10
    e668:	00d036b3          	snez	x13,x13
    e66c:	00f8d8b3          	srl	x17,x17,x15
    e670:	00d66633          	or	x12,x12,x13
    e674:	41170733          	sub	x14,x14,x17
    e678:	40c58633          	sub	x12,x11,x12
    e67c:	00c5b5b3          	sltu	x11,x11,x12
    e680:	00060493          	mv	x9,x12
    e684:	40b709b3          	sub	x19,x14,x11
    e688:	00899793          	sll	x15,x19,0x8
    e68c:	3207da63          	bgez	x15,e9c0 <__adddf3+0x404>
    e690:	008007b7          	lui	x15,0x800
    e694:	fff78793          	add	x15,x15,-1 # 7fffff <STACK_TOP+0x6fffff>
    e698:	00f9f9b3          	and	x19,x19,x15
    e69c:	2c098863          	beqz	x19,e96c <__adddf3+0x3b0>
    e6a0:	00098513          	mv	x10,x19
    e6a4:	548020ef          	jal	10bec <__clzsi2>
    e6a8:	ff850793          	add	x15,x10,-8
    e6ac:	02000693          	li	x13,32
    e6b0:	40f68733          	sub	x14,x13,x15
    e6b4:	00e4d733          	srl	x14,x9,x14
    e6b8:	00f999b3          	sll	x19,x19,x15
    e6bc:	01376733          	or	x14,x14,x19
    e6c0:	00f494b3          	sll	x9,x9,x15
    e6c4:	4b27c863          	blt	x15,x18,eb74 <__adddf3+0x5b8>
    e6c8:	412787b3          	sub	x15,x15,x18
    e6cc:	00178793          	add	x15,x15,1
    e6d0:	40f686b3          	sub	x13,x13,x15
    e6d4:	00d49633          	sll	x12,x9,x13
    e6d8:	00f4d9b3          	srl	x19,x9,x15
    e6dc:	00c03633          	snez	x12,x12
    e6e0:	01366633          	or	x12,x12,x19
    e6e4:	00d716b3          	sll	x13,x14,x13
    e6e8:	00c6e4b3          	or	x9,x13,x12
    e6ec:	00f759b3          	srl	x19,x14,x15
    e6f0:	00000913          	li	x18,0
    e6f4:	0074f793          	and	x15,x9,7
    e6f8:	02078063          	beqz	x15,e718 <__adddf3+0x15c>
    e6fc:	00f4f793          	and	x15,x9,15
    e700:	00400713          	li	x14,4
    e704:	00e78a63          	beq	x15,x14,e718 <__adddf3+0x15c>
    e708:	00448793          	add	x15,x9,4
    e70c:	0097b633          	sltu	x12,x15,x9
    e710:	00c989b3          	add	x19,x19,x12
    e714:	00078493          	mv	x9,x15
    e718:	00899793          	sll	x15,x19,0x8
    e71c:	6e07da63          	bgez	x15,ee10 <__adddf3+0x854>
    e720:	00190793          	add	x15,x18,1
    e724:	7ff00713          	li	x14,2047
    e728:	00040e13          	mv	x28,x8
    e72c:	2ae78663          	beq	x15,x14,e9d8 <__adddf3+0x41c>
    e730:	ff800737          	lui	x14,0xff800
    e734:	fff70713          	add	x14,x14,-1 # ff7fffff <STACK_TOP+0xff6fffff>
    e738:	00e9f733          	and	x14,x19,x14
    e73c:	7ff7f793          	and	x15,x15,2047
    e740:	01d71813          	sll	x16,x14,0x1d
    e744:	0034d613          	srl	x12,x9,0x3
    e748:	00971713          	sll	x14,x14,0x9
    e74c:	00c86833          	or	x16,x16,x12
    e750:	00c75713          	srl	x14,x14,0xc
    e754:	01c12083          	lw	x1,28(x2)
    e758:	01812403          	lw	x8,24(x2)
    e75c:	01479793          	sll	x15,x15,0x14
    e760:	00e7e7b3          	or	x15,x15,x14
    e764:	01fe1713          	sll	x14,x28,0x1f
    e768:	00e7e7b3          	or	x15,x15,x14
    e76c:	01412483          	lw	x9,20(x2)
    e770:	01012903          	lw	x18,16(x2)
    e774:	00c12983          	lw	x19,12(x2)
    e778:	00080513          	mv	x10,x16
    e77c:	00078593          	mv	x11,x15
    e780:	02010113          	add	x2,x2,32
    e784:	00008067          	ret
    e788:	14078c63          	beqz	x15,e8e0 <__adddf3+0x324>
    e78c:	412307b3          	sub	x15,x6,x18
    e790:	3c091263          	bnez	x18,eb54 <__adddf3+0x598>
    e794:	00b76533          	or	x10,x14,x11
    e798:	4c050463          	beqz	x10,ec60 <__adddf3+0x6a4>
    e79c:	fff78513          	add	x10,x15,-1
    e7a0:	60050263          	beqz	x10,eda4 <__adddf3+0x7e8>
    e7a4:	7ff00813          	li	x16,2047
    e7a8:	57078663          	beq	x15,x16,ed14 <__adddf3+0x758>
    e7ac:	03800793          	li	x15,56
    e7b0:	00100613          	li	x12,1
    e7b4:	02a7cc63          	blt	x15,x10,e7ec <__adddf3+0x230>
    e7b8:	00050793          	mv	x15,x10
    e7bc:	01f00613          	li	x12,31
    e7c0:	56f64c63          	blt	x12,x15,ed38 <__adddf3+0x77c>
    e7c4:	02000513          	li	x10,32
    e7c8:	40f50533          	sub	x10,x10,x15
    e7cc:	00a71633          	sll	x12,x14,x10
    e7d0:	00f5d833          	srl	x16,x11,x15
    e7d4:	00a59533          	sll	x10,x11,x10
    e7d8:	01066633          	or	x12,x12,x16
    e7dc:	00a03533          	snez	x10,x10
    e7e0:	00f75733          	srl	x14,x14,x15
    e7e4:	00a66633          	or	x12,x12,x10
    e7e8:	40e888b3          	sub	x17,x17,x14
    e7ec:	40cf0633          	sub	x12,x30,x12
    e7f0:	00cf3733          	sltu	x14,x30,x12
    e7f4:	00060493          	mv	x9,x12
    e7f8:	40e889b3          	sub	x19,x17,x14
    e7fc:	00030913          	mv	x18,x6
    e800:	00068413          	mv	x8,x13
    e804:	e85ff06f          	j	e688 <__adddf3+0xcc>
    e808:	1ef05063          	blez	x15,e9e8 <__adddf3+0x42c>
    e80c:	14031063          	bnez	x6,e94c <__adddf3+0x390>
    e810:	01e8e6b3          	or	x13,x17,x30
    e814:	26068c63          	beqz	x13,ea8c <__adddf3+0x4d0>
    e818:	fff78693          	add	x13,x15,-1
    e81c:	48068063          	beqz	x13,ec9c <__adddf3+0x6e0>
    e820:	7ff00613          	li	x12,2047
    e824:	22c78c63          	beq	x15,x12,ea5c <__adddf3+0x4a0>
    e828:	03800793          	li	x15,56
    e82c:	00100993          	li	x19,1
    e830:	02d7cc63          	blt	x15,x13,e868 <__adddf3+0x2ac>
    e834:	00068793          	mv	x15,x13
    e838:	01f00693          	li	x13,31
    e83c:	4af6c063          	blt	x13,x15,ecdc <__adddf3+0x720>
    e840:	02000693          	li	x13,32
    e844:	40f686b3          	sub	x13,x13,x15
    e848:	00d899b3          	sll	x19,x17,x13
    e84c:	00ff5633          	srl	x12,x30,x15
    e850:	00df16b3          	sll	x13,x30,x13
    e854:	00c9e9b3          	or	x19,x19,x12
    e858:	00d036b3          	snez	x13,x13
    e85c:	00f8d8b3          	srl	x17,x17,x15
    e860:	00d9e9b3          	or	x19,x19,x13
    e864:	01170733          	add	x14,x14,x17
    e868:	00b985b3          	add	x11,x19,x11
    e86c:	0135b9b3          	sltu	x19,x11,x19
    e870:	00058493          	mv	x9,x11
    e874:	00e989b3          	add	x19,x19,x14
    e878:	00899793          	sll	x15,x19,0x8
    e87c:	1407d263          	bgez	x15,e9c0 <__adddf3+0x404>
    e880:	00190913          	add	x18,x18,1
    e884:	7ff00793          	li	x15,2047
    e888:	36f90c63          	beq	x18,x15,ec00 <__adddf3+0x644>
    e88c:	ff8007b7          	lui	x15,0xff800
    e890:	fff78793          	add	x15,x15,-1 # ff7fffff <STACK_TOP+0xff6fffff>
    e894:	0014f613          	and	x12,x9,1
    e898:	00f9f7b3          	and	x15,x19,x15
    e89c:	0014d713          	srl	x14,x9,0x1
    e8a0:	00c76733          	or	x14,x14,x12
    e8a4:	01f79613          	sll	x12,x15,0x1f
    e8a8:	00e664b3          	or	x9,x12,x14
    e8ac:	0017d993          	srl	x19,x15,0x1
    e8b0:	e45ff06f          	j	e6f4 <__adddf3+0x138>
    e8b4:	01e8e6b3          	or	x13,x17,x30
    e8b8:	1c068a63          	beqz	x13,ea8c <__adddf3+0x4d0>
    e8bc:	fff78693          	add	x13,x15,-1
    e8c0:	40068063          	beqz	x13,ecc0 <__adddf3+0x704>
    e8c4:	7ff00613          	li	x12,2047
    e8c8:	18c78a63          	beq	x15,x12,ea5c <__adddf3+0x4a0>
    e8cc:	03800793          	li	x15,56
    e8d0:	00100613          	li	x12,1
    e8d4:	dad7c2e3          	blt	x15,x13,e678 <__adddf3+0xbc>
    e8d8:	00068793          	mv	x15,x13
    e8dc:	d6dff06f          	j	e648 <__adddf3+0x8c>
    e8e0:	00190813          	add	x16,x18,1
    e8e4:	7fe87813          	and	x16,x16,2046
    e8e8:	22081c63          	bnez	x16,eb20 <__adddf3+0x564>
    e8ec:	00b76333          	or	x6,x14,x11
    e8f0:	01e8e833          	or	x16,x17,x30
    e8f4:	38091063          	bnez	x18,ec74 <__adddf3+0x6b8>
    e8f8:	46030e63          	beqz	x6,ed74 <__adddf3+0x7b8>
    e8fc:	40080663          	beqz	x16,ed08 <__adddf3+0x74c>
    e900:	41e589b3          	sub	x19,x11,x30
    e904:	0135b533          	sltu	x10,x11,x19
    e908:	41170633          	sub	x12,x14,x17
    e90c:	40a60633          	sub	x12,x12,x10
    e910:	00861513          	sll	x10,x12,0x8
    e914:	50055e63          	bgez	x10,ee30 <__adddf3+0x874>
    e918:	40bf05b3          	sub	x11,x30,x11
    e91c:	40e88733          	sub	x14,x17,x14
    e920:	00bf3f33          	sltu	x30,x30,x11
    e924:	41e70733          	sub	x14,x14,x30
    e928:	00871613          	sll	x12,x14,0x8
    e92c:	00058493          	mv	x9,x11
    e930:	52065e63          	bgez	x12,ee6c <__adddf3+0x8b0>
    e934:	ff8007b7          	lui	x15,0xff800
    e938:	fff78793          	add	x15,x15,-1 # ff7fffff <STACK_TOP+0xff6fffff>
    e93c:	00f77733          	and	x14,x14,x15
    e940:	00068e13          	mv	x28,x13
    e944:	00100793          	li	x15,1
    e948:	df9ff06f          	j	e740 <__adddf3+0x184>
    e94c:	7ff00693          	li	x13,2047
    e950:	10d90663          	beq	x18,x13,ea5c <__adddf3+0x4a0>
    e954:	03800693          	li	x13,56
    e958:	00100993          	li	x19,1
    e95c:	f0f6c6e3          	blt	x13,x15,e868 <__adddf3+0x2ac>
    e960:	008006b7          	lui	x13,0x800
    e964:	00d8e8b3          	or	x17,x17,x13
    e968:	ed1ff06f          	j	e838 <__adddf3+0x27c>
    e96c:	00048513          	mv	x10,x9
    e970:	27c020ef          	jal	10bec <__clzsi2>
    e974:	01850793          	add	x15,x10,24
    e978:	01f00693          	li	x13,31
    e97c:	d2f6d8e3          	bge	x13,x15,e6ac <__adddf3+0xf0>
    e980:	ff850713          	add	x14,x10,-8
    e984:	00e49733          	sll	x14,x9,x14
    e988:	2327c663          	blt	x15,x18,ebb4 <__adddf3+0x5f8>
    e98c:	41278933          	sub	x18,x15,x18
    e990:	00190793          	add	x15,x18,1
    e994:	48f6d663          	bge	x13,x15,ee20 <__adddf3+0x864>
    e998:	fe190913          	add	x18,x18,-31
    e99c:	02000693          	li	x13,32
    e9a0:	012754b3          	srl	x9,x14,x18
    e9a4:	00d78c63          	beq	x15,x13,e9bc <__adddf3+0x400>
    e9a8:	04000693          	li	x13,64
    e9ac:	40f687b3          	sub	x15,x13,x15
    e9b0:	00f71733          	sll	x14,x14,x15
    e9b4:	00e03733          	snez	x14,x14
    e9b8:	00e4e4b3          	or	x9,x9,x14
    e9bc:	00000913          	li	x18,0
    e9c0:	0074f793          	and	x15,x9,7
    e9c4:	d2079ce3          	bnez	x15,e6fc <__adddf3+0x140>
    e9c8:	00090793          	mv	x15,x18
    e9cc:	0034d613          	srl	x12,x9,0x3
    e9d0:	00098713          	mv	x14,x19
    e9d4:	0c00006f          	j	ea94 <__adddf3+0x4d8>
    e9d8:	7ff00793          	li	x15,2047
    e9dc:	00000713          	li	x14,0
    e9e0:	00000813          	li	x16,0
    e9e4:	d71ff06f          	j	e754 <__adddf3+0x198>
    e9e8:	0c078a63          	beqz	x15,eabc <__adddf3+0x500>
    e9ec:	412307b3          	sub	x15,x6,x18
    e9f0:	1e090263          	beqz	x18,ebd4 <__adddf3+0x618>
    e9f4:	7ff00693          	li	x13,2047
    e9f8:	32d30863          	beq	x6,x13,ed28 <__adddf3+0x76c>
    e9fc:	03800693          	li	x13,56
    ea00:	00100993          	li	x19,1
    ea04:	02f6ce63          	blt	x13,x15,ea40 <__adddf3+0x484>
    ea08:	008006b7          	lui	x13,0x800
    ea0c:	00d76733          	or	x14,x14,x13
    ea10:	01f00693          	li	x13,31
    ea14:	3cf6c863          	blt	x13,x15,ede4 <__adddf3+0x828>
    ea18:	02000693          	li	x13,32
    ea1c:	40f686b3          	sub	x13,x13,x15
    ea20:	00d719b3          	sll	x19,x14,x13
    ea24:	00f5d633          	srl	x12,x11,x15
    ea28:	00d596b3          	sll	x13,x11,x13
    ea2c:	00c9e9b3          	or	x19,x19,x12
    ea30:	00d036b3          	snez	x13,x13
    ea34:	00f75733          	srl	x14,x14,x15
    ea38:	00d9e9b3          	or	x19,x19,x13
    ea3c:	00e888b3          	add	x17,x17,x14
    ea40:	01e98733          	add	x14,x19,x30
    ea44:	013739b3          	sltu	x19,x14,x19
    ea48:	00070493          	mv	x9,x14
    ea4c:	011989b3          	add	x19,x19,x17
    ea50:	00030913          	mv	x18,x6
    ea54:	e25ff06f          	j	e878 <__adddf3+0x2bc>
    ea58:	02081063          	bnez	x16,ea78 <__adddf3+0x4bc>
    ea5c:	00351613          	sll	x12,x10,0x3
    ea60:	00365613          	srl	x12,x12,0x3
    ea64:	01d71813          	sll	x16,x14,0x1d
    ea68:	00c86833          	or	x16,x16,x12
    ea6c:	00375713          	srl	x14,x14,0x3
    ea70:	01076733          	or	x14,x14,x16
    ea74:	18070663          	beqz	x14,ec00 <__adddf3+0x644>
    ea78:	00000e13          	li	x28,0
    ea7c:	7ff00793          	li	x15,2047
    ea80:	00080737          	lui	x14,0x80
    ea84:	00000813          	li	x16,0
    ea88:	ccdff06f          	j	e754 <__adddf3+0x198>
    ea8c:	00351613          	sll	x12,x10,0x3
    ea90:	00365613          	srl	x12,x12,0x3
    ea94:	01d71813          	sll	x16,x14,0x1d
    ea98:	7ff00693          	li	x13,2047
    ea9c:	00c86833          	or	x16,x16,x12
    eaa0:	00375713          	srl	x14,x14,0x3
    eaa4:	fcd786e3          	beq	x15,x13,ea70 <__adddf3+0x4b4>
    eaa8:	00c71713          	sll	x14,x14,0xc
    eaac:	00c75713          	srl	x14,x14,0xc
    eab0:	7ff7f793          	and	x15,x15,2047
    eab4:	00040e13          	mv	x28,x8
    eab8:	c9dff06f          	j	e754 <__adddf3+0x198>
    eabc:	00190693          	add	x13,x18,1
    eac0:	7fe6f813          	and	x16,x13,2046
    eac4:	14081863          	bnez	x16,ec14 <__adddf3+0x658>
    eac8:	00b766b3          	or	x13,x14,x11
    eacc:	28091c63          	bnez	x18,ed64 <__adddf3+0x7a8>
    ead0:	30068263          	beqz	x13,edd4 <__adddf3+0x818>
    ead4:	01e8e6b3          	or	x13,x17,x30
    ead8:	22068863          	beqz	x13,ed08 <__adddf3+0x74c>
    eadc:	01e587b3          	add	x15,x11,x30
    eae0:	00b7b5b3          	sltu	x11,x15,x11
    eae4:	01170733          	add	x14,x14,x17
    eae8:	00b70733          	add	x14,x14,x11
    eaec:	0037d813          	srl	x16,x15,0x3
    eaf0:	00871793          	sll	x15,x14,0x8
    eaf4:	00040e13          	mv	x28,x8
    eaf8:	3407de63          	bgez	x15,ee54 <__adddf3+0x898>
    eafc:	ff8007b7          	lui	x15,0xff800
    eb00:	fff78793          	add	x15,x15,-1 # ff7fffff <STACK_TOP+0xff6fffff>
    eb04:	00f77733          	and	x14,x14,x15
    eb08:	01d71793          	sll	x15,x14,0x1d
    eb0c:	00375713          	srl	x14,x14,0x3
    eb10:	0107e833          	or	x16,x15,x16
    eb14:	01d77733          	and	x14,x14,x29
    eb18:	00100793          	li	x15,1
    eb1c:	c39ff06f          	j	e754 <__adddf3+0x198>
    eb20:	41e58833          	sub	x16,x11,x30
    eb24:	0105b7b3          	sltu	x15,x11,x16
    eb28:	411709b3          	sub	x19,x14,x17
    eb2c:	40f989b3          	sub	x19,x19,x15
    eb30:	00899793          	sll	x15,x19,0x8
    eb34:	00080493          	mv	x9,x16
    eb38:	1007c663          	bltz	x15,ec44 <__adddf3+0x688>
    eb3c:	01386833          	or	x16,x16,x19
    eb40:	b4081ee3          	bnez	x16,e69c <__adddf3+0xe0>
    eb44:	00000e13          	li	x28,0
    eb48:	00000793          	li	x15,0
    eb4c:	00000713          	li	x14,0
    eb50:	c05ff06f          	j	e754 <__adddf3+0x198>
    eb54:	7ff00513          	li	x10,2047
    eb58:	1aa30e63          	beq	x6,x10,ed14 <__adddf3+0x758>
    eb5c:	03800513          	li	x10,56
    eb60:	00100613          	li	x12,1
    eb64:	c8f544e3          	blt	x10,x15,e7ec <__adddf3+0x230>
    eb68:	00800637          	lui	x12,0x800
    eb6c:	00c76733          	or	x14,x14,x12
    eb70:	c4dff06f          	j	e7bc <__adddf3+0x200>
    eb74:	ff8009b7          	lui	x19,0xff800
    eb78:	fff98993          	add	x19,x19,-1 # ff7fffff <STACK_TOP+0xff6fffff>
    eb7c:	40f90933          	sub	x18,x18,x15
    eb80:	013779b3          	and	x19,x14,x19
    eb84:	b71ff06f          	j	e6f4 <__adddf3+0x138>
    eb88:	fe078693          	add	x13,x15,-32
    eb8c:	02000613          	li	x12,32
    eb90:	00d8d6b3          	srl	x13,x17,x13
    eb94:	00c78a63          	beq	x15,x12,eba8 <__adddf3+0x5ec>
    eb98:	04000613          	li	x12,64
    eb9c:	40f607b3          	sub	x15,x12,x15
    eba0:	00f897b3          	sll	x15,x17,x15
    eba4:	00ff6f33          	or	x30,x30,x15
    eba8:	01e03633          	snez	x12,x30
    ebac:	00d66633          	or	x12,x12,x13
    ebb0:	ac9ff06f          	j	e678 <__adddf3+0xbc>
    ebb4:	ff8006b7          	lui	x13,0xff800
    ebb8:	fff68693          	add	x13,x13,-1 # ff7fffff <STACK_TOP+0xff6fffff>
    ebbc:	40f907b3          	sub	x15,x18,x15
    ebc0:	00d77733          	and	x14,x14,x13
    ebc4:	01d71813          	sll	x16,x14,0x1d
    ebc8:	01386833          	or	x16,x16,x19
    ebcc:	00375713          	srl	x14,x14,0x3
    ebd0:	ed9ff06f          	j	eaa8 <__adddf3+0x4ec>
    ebd4:	00b766b3          	or	x13,x14,x11
    ebd8:	1e068663          	beqz	x13,edc4 <__adddf3+0x808>
    ebdc:	fff78693          	add	x13,x15,-1
    ebe0:	0a068e63          	beqz	x13,ec9c <__adddf3+0x6e0>
    ebe4:	7ff00513          	li	x10,2047
    ebe8:	14a78063          	beq	x15,x10,ed28 <__adddf3+0x76c>
    ebec:	03800793          	li	x15,56
    ebf0:	00100993          	li	x19,1
    ebf4:	e4d7c6e3          	blt	x15,x13,ea40 <__adddf3+0x484>
    ebf8:	00068793          	mv	x15,x13
    ebfc:	e15ff06f          	j	ea10 <__adddf3+0x454>
    ec00:	00040e13          	mv	x28,x8
    ec04:	7ff00793          	li	x15,2047
    ec08:	00000713          	li	x14,0
    ec0c:	00000813          	li	x16,0
    ec10:	b45ff06f          	j	e754 <__adddf3+0x198>
    ec14:	7ff00793          	li	x15,2047
    ec18:	fef684e3          	beq	x13,x15,ec00 <__adddf3+0x644>
    ec1c:	01e58f33          	add	x30,x11,x30
    ec20:	00bf35b3          	sltu	x11,x30,x11
    ec24:	011707b3          	add	x15,x14,x17
    ec28:	00b787b3          	add	x15,x15,x11
    ec2c:	01f79613          	sll	x12,x15,0x1f
    ec30:	001f5f13          	srl	x30,x30,0x1
    ec34:	01e664b3          	or	x9,x12,x30
    ec38:	0017d993          	srl	x19,x15,0x1
    ec3c:	00068913          	mv	x18,x13
    ec40:	ab5ff06f          	j	e6f4 <__adddf3+0x138>
    ec44:	40bf0633          	sub	x12,x30,x11
    ec48:	40e887b3          	sub	x15,x17,x14
    ec4c:	00cf3733          	sltu	x14,x30,x12
    ec50:	00060493          	mv	x9,x12
    ec54:	40e789b3          	sub	x19,x15,x14
    ec58:	00068413          	mv	x8,x13
    ec5c:	a41ff06f          	j	e69c <__adddf3+0xe0>
    ec60:	00361613          	sll	x12,x12,0x3
    ec64:	00365613          	srl	x12,x12,0x3
    ec68:	00068413          	mv	x8,x13
    ec6c:	00088713          	mv	x14,x17
    ec70:	e25ff06f          	j	ea94 <__adddf3+0x4d8>
    ec74:	de0312e3          	bnez	x6,ea58 <__adddf3+0x49c>
    ec78:	1c080663          	beqz	x16,ee44 <__adddf3+0x888>
    ec7c:	0038d713          	srl	x14,x17,0x3
    ec80:	00361613          	sll	x12,x12,0x3
    ec84:	01d89893          	sll	x17,x17,0x1d
    ec88:	01176733          	or	x14,x14,x17
    ec8c:	00365613          	srl	x12,x12,0x3
    ec90:	00c76733          	or	x14,x14,x12
    ec94:	00068413          	mv	x8,x13
    ec98:	dddff06f          	j	ea74 <__adddf3+0x4b8>
    ec9c:	01e58f33          	add	x30,x11,x30
    eca0:	011708b3          	add	x17,x14,x17
    eca4:	00bf35b3          	sltu	x11,x30,x11
    eca8:	00b889b3          	add	x19,x17,x11
    ecac:	00899793          	sll	x15,x19,0x8
    ecb0:	000f0493          	mv	x9,x30
    ecb4:	0e07d463          	bgez	x15,ed9c <__adddf3+0x7e0>
    ecb8:	00200913          	li	x18,2
    ecbc:	bd1ff06f          	j	e88c <__adddf3+0x2d0>
    ecc0:	41e58f33          	sub	x30,x11,x30
    ecc4:	411708b3          	sub	x17,x14,x17
    ecc8:	01e5b5b3          	sltu	x11,x11,x30
    eccc:	000f0493          	mv	x9,x30
    ecd0:	40b889b3          	sub	x19,x17,x11
    ecd4:	00100913          	li	x18,1
    ecd8:	9b1ff06f          	j	e688 <__adddf3+0xcc>
    ecdc:	fe078693          	add	x13,x15,-32
    ece0:	02000613          	li	x12,32
    ece4:	00d8d6b3          	srl	x13,x17,x13
    ece8:	00c78a63          	beq	x15,x12,ecfc <__adddf3+0x740>
    ecec:	04000613          	li	x12,64
    ecf0:	40f607b3          	sub	x15,x12,x15
    ecf4:	00f897b3          	sll	x15,x17,x15
    ecf8:	00ff6f33          	or	x30,x30,x15
    ecfc:	01e039b3          	snez	x19,x30
    ed00:	00d9e9b3          	or	x19,x19,x13
    ed04:	b65ff06f          	j	e868 <__adddf3+0x2ac>
    ed08:	00351613          	sll	x12,x10,0x3
    ed0c:	00365993          	srl	x19,x12,0x3
    ed10:	eb5ff06f          	j	ebc4 <__adddf3+0x608>
    ed14:	00361613          	sll	x12,x12,0x3
    ed18:	00365613          	srl	x12,x12,0x3
    ed1c:	00068413          	mv	x8,x13
    ed20:	00088713          	mv	x14,x17
    ed24:	d41ff06f          	j	ea64 <__adddf3+0x4a8>
    ed28:	00361613          	sll	x12,x12,0x3
    ed2c:	00365613          	srl	x12,x12,0x3
    ed30:	00088713          	mv	x14,x17
    ed34:	d31ff06f          	j	ea64 <__adddf3+0x4a8>
    ed38:	fe078513          	add	x10,x15,-32
    ed3c:	02000613          	li	x12,32
    ed40:	00a75533          	srl	x10,x14,x10
    ed44:	00c78a63          	beq	x15,x12,ed58 <__adddf3+0x79c>
    ed48:	04000613          	li	x12,64
    ed4c:	40f607b3          	sub	x15,x12,x15
    ed50:	00f717b3          	sll	x15,x14,x15
    ed54:	00f5e5b3          	or	x11,x11,x15
    ed58:	00b03633          	snez	x12,x11
    ed5c:	00a66633          	or	x12,x12,x10
    ed60:	a8dff06f          	j	e7ec <__adddf3+0x230>
    ed64:	fc0682e3          	beqz	x13,ed28 <__adddf3+0x76c>
    ed68:	01e8ef33          	or	x30,x17,x30
    ed6c:	d00f16e3          	bnez	x30,ea78 <__adddf3+0x4bc>
    ed70:	cedff06f          	j	ea5c <__adddf3+0x4a0>
    ed74:	dc0808e3          	beqz	x16,eb44 <__adddf3+0x588>
    ed78:	00361813          	sll	x16,x12,0x3
    ed7c:	01d89793          	sll	x15,x17,0x1d
    ed80:	00385813          	srl	x16,x16,0x3
    ed84:	0038d713          	srl	x14,x17,0x3
    ed88:	00f86833          	or	x16,x16,x15
    ed8c:	01d77733          	and	x14,x14,x29
    ed90:	00068e13          	mv	x28,x13
    ed94:	00000793          	li	x15,0
    ed98:	9bdff06f          	j	e754 <__adddf3+0x198>
    ed9c:	00100793          	li	x15,1
    eda0:	c2dff06f          	j	e9cc <__adddf3+0x410>
    eda4:	40bf05b3          	sub	x11,x30,x11
    eda8:	40e888b3          	sub	x17,x17,x14
    edac:	00bf3733          	sltu	x14,x30,x11
    edb0:	00058493          	mv	x9,x11
    edb4:	40e889b3          	sub	x19,x17,x14
    edb8:	00068413          	mv	x8,x13
    edbc:	00100913          	li	x18,1
    edc0:	8c9ff06f          	j	e688 <__adddf3+0xcc>
    edc4:	00361613          	sll	x12,x12,0x3
    edc8:	00365613          	srl	x12,x12,0x3
    edcc:	00088713          	mv	x14,x17
    edd0:	cc5ff06f          	j	ea94 <__adddf3+0x4d8>
    edd4:	00361613          	sll	x12,x12,0x3
    edd8:	00365993          	srl	x19,x12,0x3
    eddc:	00088713          	mv	x14,x17
    ede0:	de5ff06f          	j	ebc4 <__adddf3+0x608>
    ede4:	fe078693          	add	x13,x15,-32
    ede8:	02000613          	li	x12,32
    edec:	00d756b3          	srl	x13,x14,x13
    edf0:	00c78a63          	beq	x15,x12,ee04 <__adddf3+0x848>
    edf4:	04000613          	li	x12,64
    edf8:	40f607b3          	sub	x15,x12,x15
    edfc:	00f717b3          	sll	x15,x14,x15
    ee00:	00f5e5b3          	or	x11,x11,x15
    ee04:	00b039b3          	snez	x19,x11
    ee08:	00d9e9b3          	or	x19,x19,x13
    ee0c:	c35ff06f          	j	ea40 <__adddf3+0x484>
    ee10:	0034d613          	srl	x12,x9,0x3
    ee14:	00090793          	mv	x15,x18
    ee18:	00098713          	mv	x14,x19
    ee1c:	c79ff06f          	j	ea94 <__adddf3+0x4d8>
    ee20:	02000693          	li	x13,32
    ee24:	40f686b3          	sub	x13,x13,x15
    ee28:	00000613          	li	x12,0
    ee2c:	8b5ff06f          	j	e6e0 <__adddf3+0x124>
    ee30:	00c9e833          	or	x16,x19,x12
    ee34:	d00808e3          	beqz	x16,eb44 <__adddf3+0x588>
    ee38:	0039d993          	srl	x19,x19,0x3
    ee3c:	00060713          	mv	x14,x12
    ee40:	d85ff06f          	j	ebc4 <__adddf3+0x608>
    ee44:	00000e13          	li	x28,0
    ee48:	7ff00793          	li	x15,2047
    ee4c:	00080737          	lui	x14,0x80
    ee50:	905ff06f          	j	e754 <__adddf3+0x198>
    ee54:	01d71793          	sll	x15,x14,0x1d
    ee58:	00375713          	srl	x14,x14,0x3
    ee5c:	0107e833          	or	x16,x15,x16
    ee60:	01d77733          	and	x14,x14,x29
    ee64:	00000793          	li	x15,0
    ee68:	8edff06f          	j	e754 <__adddf3+0x198>
    ee6c:	01d71813          	sll	x16,x14,0x1d
    ee70:	0035d593          	srl	x11,x11,0x3
    ee74:	00b86833          	or	x16,x16,x11
    ee78:	00375713          	srl	x14,x14,0x3
    ee7c:	00068413          	mv	x8,x13
    ee80:	c29ff06f          	j	eaa8 <__adddf3+0x4ec>

Disassembly of section .text.__divdf3:

0000ee84 <__divdf3>:
    ee84:	fb010113          	add	x2,x2,-80
    ee88:	0145d793          	srl	x15,x11,0x14
    ee8c:	04812423          	sw	x8,72(x2)
    ee90:	04912223          	sw	x9,68(x2)
    ee94:	05212023          	sw	x18,64(x2)
    ee98:	03412c23          	sw	x20,56(x2)
    ee9c:	03512a23          	sw	x21,52(x2)
    eea0:	00c59493          	sll	x9,x11,0xc
    eea4:	04112623          	sw	x1,76(x2)
    eea8:	03312e23          	sw	x19,60(x2)
    eeac:	03612823          	sw	x22,48(x2)
    eeb0:	03712623          	sw	x23,44(x2)
    eeb4:	03812423          	sw	x24,40(x2)
    eeb8:	7ff7f793          	and	x15,x15,2047
    eebc:	00050413          	mv	x8,x10
    eec0:	00060a13          	mv	x20,x12
    eec4:	00068913          	mv	x18,x13
    eec8:	00c4d493          	srl	x9,x9,0xc
    eecc:	01f5da93          	srl	x21,x11,0x1f
    eed0:	18078c63          	beqz	x15,f068 <__divdf3+0x1e4>
    eed4:	7ff00713          	li	x14,2047
    eed8:	08e78a63          	beq	x15,x14,ef6c <__divdf3+0xe8>
    eedc:	01d55b13          	srl	x22,x10,0x1d
    eee0:	00349493          	sll	x9,x9,0x3
    eee4:	009b64b3          	or	x9,x22,x9
    eee8:	00800737          	lui	x14,0x800
    eeec:	00e4eb33          	or	x22,x9,x14
    eef0:	00351b93          	sll	x23,x10,0x3
    eef4:	c0178993          	add	x19,x15,-1023
    eef8:	00000493          	li	x9,0
    eefc:	00000c13          	li	x24,0
    ef00:	01495793          	srl	x15,x18,0x14
    ef04:	00c91413          	sll	x8,x18,0xc
    ef08:	7ff7f793          	and	x15,x15,2047
    ef0c:	00c45413          	srl	x8,x8,0xc
    ef10:	01f95913          	srl	x18,x18,0x1f
    ef14:	08078463          	beqz	x15,ef9c <__divdf3+0x118>
    ef18:	7ff00713          	li	x14,2047
    ef1c:	18e78c63          	beq	x15,x14,f0b4 <__divdf3+0x230>
    ef20:	00341413          	sll	x8,x8,0x3
    ef24:	01da5713          	srl	x14,x20,0x1d
    ef28:	00876733          	or	x14,x14,x8
    ef2c:	c0178793          	add	x15,x15,-1023
    ef30:	00800437          	lui	x8,0x800
    ef34:	40f989b3          	sub	x19,x19,x15
    ef38:	00876433          	or	x8,x14,x8
    ef3c:	003a1813          	sll	x16,x20,0x3
    ef40:	00000793          	li	x15,0
    ef44:	00f00713          	li	x14,15
    ef48:	012aca33          	xor	x20,x21,x18
    ef4c:	24976663          	bltu	x14,x9,f198 <__divdf3+0x314>
    ef50:	00003697          	auipc	x13,0x3
    ef54:	16c68693          	add	x13,x13,364 # 120bc <nes_bsram_size+0x1f4>
    ef58:	00249493          	sll	x9,x9,0x2
    ef5c:	00d484b3          	add	x9,x9,x13
    ef60:	0004a703          	lw	x14,0(x9)
    ef64:	00d70733          	add	x14,x14,x13
    ef68:	00070067          	jr	x14 # 800000 <STACK_TOP+0x700000>
    ef6c:	00a4eb33          	or	x22,x9,x10
    ef70:	1c0b1e63          	bnez	x22,f14c <__divdf3+0x2c8>
    ef74:	01495793          	srl	x15,x18,0x14
    ef78:	00c91413          	sll	x8,x18,0xc
    ef7c:	7ff7f793          	and	x15,x15,2047
    ef80:	00000b93          	li	x23,0
    ef84:	00800493          	li	x9,8
    ef88:	7ff00993          	li	x19,2047
    ef8c:	00200c13          	li	x24,2
    ef90:	00c45413          	srl	x8,x8,0xc
    ef94:	01f95913          	srl	x18,x18,0x1f
    ef98:	f80790e3          	bnez	x15,ef18 <__divdf3+0x94>
    ef9c:	01446833          	or	x16,x8,x20
    efa0:	1c080263          	beqz	x16,f164 <__divdf3+0x2e0>
    efa4:	5c040663          	beqz	x8,f570 <__divdf3+0x6ec>
    efa8:	00040513          	mv	x10,x8
    efac:	441010ef          	jal	10bec <__clzsi2>
    efb0:	00050793          	mv	x15,x10
    efb4:	ff550693          	add	x13,x10,-11
    efb8:	01d00713          	li	x14,29
    efbc:	ff878813          	add	x16,x15,-8
    efc0:	40d70733          	sub	x14,x14,x13
    efc4:	01041433          	sll	x8,x8,x16
    efc8:	00ea5733          	srl	x14,x20,x14
    efcc:	00876433          	or	x8,x14,x8
    efd0:	010a1833          	sll	x16,x20,x16
    efd4:	013787b3          	add	x15,x15,x19
    efd8:	3f378993          	add	x19,x15,1011
    efdc:	00000793          	li	x15,0
    efe0:	f65ff06f          	j	ef44 <__divdf3+0xc0>
    efe4:	40f70733          	sub	x14,x14,x15
    efe8:	03800693          	li	x13,56
    efec:	60e6d063          	bge	x13,x14,f5ec <__divdf3+0x768>
    eff0:	00000793          	li	x15,0
    eff4:	00000693          	li	x13,0
    eff8:	00000713          	li	x14,0
    effc:	04c12083          	lw	x1,76(x2)
    f000:	04812403          	lw	x8,72(x2)
    f004:	01479793          	sll	x15,x15,0x14
    f008:	00d7e7b3          	or	x15,x15,x13
    f00c:	01fa1693          	sll	x13,x20,0x1f
    f010:	00d7e7b3          	or	x15,x15,x13
    f014:	04412483          	lw	x9,68(x2)
    f018:	04012903          	lw	x18,64(x2)
    f01c:	03c12983          	lw	x19,60(x2)
    f020:	03812a03          	lw	x20,56(x2)
    f024:	03412a83          	lw	x21,52(x2)
    f028:	03012b03          	lw	x22,48(x2)
    f02c:	02c12b83          	lw	x23,44(x2)
    f030:	02812c03          	lw	x24,40(x2)
    f034:	00070513          	mv	x10,x14
    f038:	00078593          	mv	x11,x15
    f03c:	05010113          	add	x2,x2,80
    f040:	00008067          	ret
    f044:	7ff00793          	li	x15,2047
    f048:	00000693          	li	x13,0
    f04c:	00000713          	li	x14,0
    f050:	fadff06f          	j	effc <__divdf3+0x178>
    f054:	00000a13          	li	x20,0
    f058:	7ff00793          	li	x15,2047
    f05c:	000806b7          	lui	x13,0x80
    f060:	00000713          	li	x14,0
    f064:	f99ff06f          	j	effc <__divdf3+0x178>
    f068:	00a4eb33          	or	x22,x9,x10
    f06c:	100b0c63          	beqz	x22,f184 <__divdf3+0x300>
    f070:	52048463          	beqz	x9,f598 <__divdf3+0x714>
    f074:	00048513          	mv	x10,x9
    f078:	375010ef          	jal	10bec <__clzsi2>
    f07c:	00050713          	mv	x14,x10
    f080:	ff550793          	add	x15,x10,-11
    f084:	01d00b13          	li	x22,29
    f088:	ff870b93          	add	x23,x14,-8
    f08c:	40fb0b33          	sub	x22,x22,x15
    f090:	017494b3          	sll	x9,x9,x23
    f094:	01645b33          	srl	x22,x8,x22
    f098:	009b6b33          	or	x22,x22,x9
    f09c:	01741bb3          	sll	x23,x8,x23
    f0a0:	c0d00793          	li	x15,-1011
    f0a4:	40e789b3          	sub	x19,x15,x14
    f0a8:	00000493          	li	x9,0
    f0ac:	00000c13          	li	x24,0
    f0b0:	e51ff06f          	j	ef00 <__divdf3+0x7c>
    f0b4:	01446833          	or	x16,x8,x20
    f0b8:	80198993          	add	x19,x19,-2047
    f0bc:	0a081c63          	bnez	x16,f174 <__divdf3+0x2f0>
    f0c0:	0024e493          	or	x9,x9,2
    f0c4:	00000413          	li	x8,0
    f0c8:	00200793          	li	x15,2
    f0cc:	e79ff06f          	j	ef44 <__divdf3+0xc0>
    f0d0:	000a8913          	mv	x18,x21
    f0d4:	000b0413          	mv	x8,x22
    f0d8:	000b8813          	mv	x16,x23
    f0dc:	00200793          	li	x15,2
    f0e0:	60fc0863          	beq	x24,x15,f6f0 <__divdf3+0x86c>
    f0e4:	00300793          	li	x15,3
    f0e8:	f6fc06e3          	beq	x24,x15,f054 <__divdf3+0x1d0>
    f0ec:	00100793          	li	x15,1
    f0f0:	00090a13          	mv	x20,x18
    f0f4:	eefc0ee3          	beq	x24,x15,eff0 <__divdf3+0x16c>
    f0f8:	3ff98793          	add	x15,x19,1023
    f0fc:	3cf05263          	blez	x15,f4c0 <__divdf3+0x63c>
    f100:	00787713          	and	x14,x16,7
    f104:	5c071663          	bnez	x14,f6d0 <__divdf3+0x84c>
    f108:	00741713          	sll	x14,x8,0x7
    f10c:	00075a63          	bgez	x14,f120 <__divdf3+0x29c>
    f110:	ff0007b7          	lui	x15,0xff000
    f114:	fff78793          	add	x15,x15,-1 # feffffff <STACK_TOP+0xfeefffff>
    f118:	00f47433          	and	x8,x8,x15
    f11c:	40098793          	add	x15,x19,1024
    f120:	7fe00713          	li	x14,2046
    f124:	f2f740e3          	blt	x14,x15,f044 <__divdf3+0x1c0>
    f128:	00385813          	srl	x16,x16,0x3
    f12c:	01d41713          	sll	x14,x8,0x1d
    f130:	00941693          	sll	x13,x8,0x9
    f134:	01076733          	or	x14,x14,x16
    f138:	00c6d693          	srl	x13,x13,0xc
    f13c:	7ff7f793          	and	x15,x15,2047
    f140:	ebdff06f          	j	effc <__divdf3+0x178>
    f144:	00078c13          	mv	x24,x15
    f148:	f95ff06f          	j	f0dc <__divdf3+0x258>
    f14c:	00048b13          	mv	x22,x9
    f150:	00050b93          	mv	x23,x10
    f154:	00c00493          	li	x9,12
    f158:	7ff00993          	li	x19,2047
    f15c:	00300c13          	li	x24,3
    f160:	da1ff06f          	j	ef00 <__divdf3+0x7c>
    f164:	0014e493          	or	x9,x9,1
    f168:	00000413          	li	x8,0
    f16c:	00100793          	li	x15,1
    f170:	dd5ff06f          	j	ef44 <__divdf3+0xc0>
    f174:	0034e493          	or	x9,x9,3
    f178:	000a0813          	mv	x16,x20
    f17c:	00300793          	li	x15,3
    f180:	dc5ff06f          	j	ef44 <__divdf3+0xc0>
    f184:	00000b93          	li	x23,0
    f188:	00400493          	li	x9,4
    f18c:	00000993          	li	x19,0
    f190:	00100c13          	li	x24,1
    f194:	d6dff06f          	j	ef00 <__divdf3+0x7c>
    f198:	03912223          	sw	x25,36(x2)
    f19c:	03a12023          	sw	x26,32(x2)
    f1a0:	01b12e23          	sw	x27,28(x2)
    f1a4:	3b646a63          	bltu	x8,x22,f558 <__divdf3+0x6d4>
    f1a8:	3a8b0663          	beq	x22,x8,f554 <__divdf3+0x6d0>
    f1ac:	fff98993          	add	x19,x19,-1
    f1b0:	000b8c13          	mv	x24,x23
    f1b4:	000b0493          	mv	x9,x22
    f1b8:	00000d13          	li	x26,0
    f1bc:	01885c93          	srl	x25,x16,0x18
    f1c0:	00841413          	sll	x8,x8,0x8
    f1c4:	01045913          	srl	x18,x8,0x10
    f1c8:	008cecb3          	or	x25,x25,x8
    f1cc:	00090593          	mv	x11,x18
    f1d0:	00048513          	mv	x10,x9
    f1d4:	010c9b13          	sll	x22,x25,0x10
    f1d8:	00881a93          	sll	x21,x16,0x8
    f1dc:	010b5b13          	srl	x22,x22,0x10
    f1e0:	e2cfe0ef          	jal	d80c <__hidden___udivsi3>
    f1e4:	00050593          	mv	x11,x10
    f1e8:	00050413          	mv	x8,x10
    f1ec:	000b0513          	mv	x10,x22
    f1f0:	df0fe0ef          	jal	d7e0 <__mulsi3>
    f1f4:	00050793          	mv	x15,x10
    f1f8:	00090593          	mv	x11,x18
    f1fc:	00048513          	mv	x10,x9
    f200:	00078493          	mv	x9,x15
    f204:	e50fe0ef          	jal	d854 <__umodsi3>
    f208:	01051513          	sll	x10,x10,0x10
    f20c:	010c5793          	srl	x15,x24,0x10
    f210:	00a7e7b3          	or	x15,x15,x10
    f214:	0097fa63          	bgeu	x15,x9,f228 <__divdf3+0x3a4>
    f218:	00fc87b3          	add	x15,x25,x15
    f21c:	fff40713          	add	x14,x8,-1 # 7fffff <STACK_TOP+0x6fffff>
    f220:	3b97fe63          	bgeu	x15,x25,f5dc <__divdf3+0x758>
    f224:	00070413          	mv	x8,x14
    f228:	409784b3          	sub	x9,x15,x9
    f22c:	00090593          	mv	x11,x18
    f230:	00048513          	mv	x10,x9
    f234:	dd8fe0ef          	jal	d80c <__hidden___udivsi3>
    f238:	00050593          	mv	x11,x10
    f23c:	00050b93          	mv	x23,x10
    f240:	000b0513          	mv	x10,x22
    f244:	d9cfe0ef          	jal	d7e0 <__mulsi3>
    f248:	00050793          	mv	x15,x10
    f24c:	00090593          	mv	x11,x18
    f250:	00048513          	mv	x10,x9
    f254:	00078493          	mv	x9,x15
    f258:	dfcfe0ef          	jal	d854 <__umodsi3>
    f25c:	010c1793          	sll	x15,x24,0x10
    f260:	01051513          	sll	x10,x10,0x10
    f264:	0107d793          	srl	x15,x15,0x10
    f268:	00a7e7b3          	or	x15,x15,x10
    f26c:	0097fa63          	bgeu	x15,x9,f280 <__divdf3+0x3fc>
    f270:	00fc87b3          	add	x15,x25,x15
    f274:	fffb8713          	add	x14,x23,-1
    f278:	3597fa63          	bgeu	x15,x25,f5cc <__divdf3+0x748>
    f27c:	00070b93          	mv	x23,x14
    f280:	00010337          	lui	x6,0x10
    f284:	01041413          	sll	x8,x8,0x10
    f288:	01746433          	or	x8,x8,x23
    f28c:	fff30d93          	add	x27,x6,-1 # ffff <__muldf3+0x63b>
    f290:	01b478b3          	and	x17,x8,x27
    f294:	01bafdb3          	and	x27,x21,x27
    f298:	40978bb3          	sub	x23,x15,x9
    f29c:	010adc13          	srl	x24,x21,0x10
    f2a0:	01045793          	srl	x15,x8,0x10
    f2a4:	00088513          	mv	x10,x17
    f2a8:	000d8593          	mv	x11,x27
    f2ac:	d34fe0ef          	jal	d7e0 <__mulsi3>
    f2b0:	00050813          	mv	x16,x10
    f2b4:	000c0593          	mv	x11,x24
    f2b8:	00088513          	mv	x10,x17
    f2bc:	d24fe0ef          	jal	d7e0 <__mulsi3>
    f2c0:	00050893          	mv	x17,x10
    f2c4:	000d8593          	mv	x11,x27
    f2c8:	00078513          	mv	x10,x15
    f2cc:	d14fe0ef          	jal	d7e0 <__mulsi3>
    f2d0:	00050e13          	mv	x28,x10
    f2d4:	000c0593          	mv	x11,x24
    f2d8:	00078513          	mv	x10,x15
    f2dc:	d04fe0ef          	jal	d7e0 <__mulsi3>
    f2e0:	01085793          	srl	x15,x16,0x10
    f2e4:	01c888b3          	add	x17,x17,x28
    f2e8:	011787b3          	add	x15,x15,x17
    f2ec:	01c7f463          	bgeu	x15,x28,f2f4 <__divdf3+0x470>
    f2f0:	00650533          	add	x10,x10,x6
    f2f4:	00010637          	lui	x12,0x10
    f2f8:	fff60613          	add	x12,x12,-1 # ffff <__muldf3+0x63b>
    f2fc:	00c7f4b3          	and	x9,x15,x12
    f300:	0107d693          	srl	x13,x15,0x10
    f304:	01049493          	sll	x9,x9,0x10
    f308:	00c87833          	and	x16,x16,x12
    f30c:	00a687b3          	add	x15,x13,x10
    f310:	010484b3          	add	x9,x9,x16
    f314:	20fbea63          	bltu	x23,x15,f528 <__divdf3+0x6a4>
    f318:	20fb8663          	beq	x23,x15,f524 <__divdf3+0x6a0>
    f31c:	409d04b3          	sub	x9,x26,x9
    f320:	40fb8bb3          	sub	x23,x23,x15
    f324:	009d3d33          	sltu	x26,x26,x9
    f328:	41ab8bb3          	sub	x23,x23,x26
    f32c:	377c8a63          	beq	x25,x23,f6a0 <__divdf3+0x81c>
    f330:	00090593          	mv	x11,x18
    f334:	000b8513          	mv	x10,x23
    f338:	cd4fe0ef          	jal	d80c <__hidden___udivsi3>
    f33c:	00050593          	mv	x11,x10
    f340:	00a12623          	sw	x10,12(x2)
    f344:	00050d13          	mv	x26,x10
    f348:	000b0513          	mv	x10,x22
    f34c:	c94fe0ef          	jal	d7e0 <__mulsi3>
    f350:	00050793          	mv	x15,x10
    f354:	00090593          	mv	x11,x18
    f358:	000b8513          	mv	x10,x23
    f35c:	00078b93          	mv	x23,x15
    f360:	cf4fe0ef          	jal	d854 <__umodsi3>
    f364:	01051513          	sll	x10,x10,0x10
    f368:	0104d793          	srl	x15,x9,0x10
    f36c:	00a7e7b3          	or	x15,x15,x10
    f370:	0377f063          	bgeu	x15,x23,f390 <__divdf3+0x50c>
    f374:	00fc87b3          	add	x15,x25,x15
    f378:	fffd0693          	add	x13,x26,-1
    f37c:	3797e263          	bltu	x15,x25,f6e0 <__divdf3+0x85c>
    f380:	3777f063          	bgeu	x15,x23,f6e0 <__divdf3+0x85c>
    f384:	ffed0713          	add	x14,x26,-2
    f388:	00e12623          	sw	x14,12(x2)
    f38c:	019787b3          	add	x15,x15,x25
    f390:	41778bb3          	sub	x23,x15,x23
    f394:	00090593          	mv	x11,x18
    f398:	000b8513          	mv	x10,x23
    f39c:	c70fe0ef          	jal	d80c <__hidden___udivsi3>
    f3a0:	00050593          	mv	x11,x10
    f3a4:	00050d13          	mv	x26,x10
    f3a8:	000b0513          	mv	x10,x22
    f3ac:	c34fe0ef          	jal	d7e0 <__mulsi3>
    f3b0:	00050793          	mv	x15,x10
    f3b4:	00090593          	mv	x11,x18
    f3b8:	000b8513          	mv	x10,x23
    f3bc:	00078913          	mv	x18,x15
    f3c0:	01049493          	sll	x9,x9,0x10
    f3c4:	c90fe0ef          	jal	d854 <__umodsi3>
    f3c8:	01051513          	sll	x10,x10,0x10
    f3cc:	0104d493          	srl	x9,x9,0x10
    f3d0:	00a4e4b3          	or	x9,x9,x10
    f3d4:	0124fe63          	bgeu	x9,x18,f3f0 <__divdf3+0x56c>
    f3d8:	009c84b3          	add	x9,x25,x9
    f3dc:	fffd0793          	add	x15,x26,-1
    f3e0:	3194e463          	bltu	x9,x25,f6e8 <__divdf3+0x864>
    f3e4:	3124f263          	bgeu	x9,x18,f6e8 <__divdf3+0x864>
    f3e8:	ffed0d13          	add	x26,x26,-2
    f3ec:	019484b3          	add	x9,x9,x25
    f3f0:	00c12783          	lw	x15,12(x2)
    f3f4:	412484b3          	sub	x9,x9,x18
    f3f8:	000d8593          	mv	x11,x27
    f3fc:	01079813          	sll	x16,x15,0x10
    f400:	01a86833          	or	x16,x16,x26
    f404:	01081313          	sll	x6,x16,0x10
    f408:	01035313          	srl	x6,x6,0x10
    f40c:	01085793          	srl	x15,x16,0x10
    f410:	00030513          	mv	x10,x6
    f414:	bccfe0ef          	jal	d7e0 <__mulsi3>
    f418:	00050893          	mv	x17,x10
    f41c:	000c0593          	mv	x11,x24
    f420:	00030513          	mv	x10,x6
    f424:	bbcfe0ef          	jal	d7e0 <__mulsi3>
    f428:	00050313          	mv	x6,x10
    f42c:	000d8593          	mv	x11,x27
    f430:	00078513          	mv	x10,x15
    f434:	bacfe0ef          	jal	d7e0 <__mulsi3>
    f438:	00050e13          	mv	x28,x10
    f43c:	000c0593          	mv	x11,x24
    f440:	00078513          	mv	x10,x15
    f444:	b9cfe0ef          	jal	d7e0 <__mulsi3>
    f448:	0108d793          	srl	x15,x17,0x10
    f44c:	01c30333          	add	x6,x6,x28
    f450:	006787b3          	add	x15,x15,x6
    f454:	01c7f663          	bgeu	x15,x28,f460 <__divdf3+0x5dc>
    f458:	00010737          	lui	x14,0x10
    f45c:	00e50533          	add	x10,x10,x14
    f460:	000106b7          	lui	x13,0x10
    f464:	fff68693          	add	x13,x13,-1 # ffff <__muldf3+0x63b>
    f468:	0107d713          	srl	x14,x15,0x10
    f46c:	00d7f7b3          	and	x15,x15,x13
    f470:	01079793          	sll	x15,x15,0x10
    f474:	00d8f8b3          	and	x17,x17,x13
    f478:	00a70733          	add	x14,x14,x10
    f47c:	011787b3          	add	x15,x15,x17
    f480:	02e4e063          	bltu	x9,x14,f4a0 <__divdf3+0x61c>
    f484:	00e48c63          	beq	x9,x14,f49c <__divdf3+0x618>
    f488:	02412c83          	lw	x25,36(x2)
    f48c:	02012d03          	lw	x26,32(x2)
    f490:	01c12d83          	lw	x27,28(x2)
    f494:	00186813          	or	x16,x16,1
    f498:	c61ff06f          	j	f0f8 <__divdf3+0x274>
    f49c:	1c078a63          	beqz	x15,f670 <__divdf3+0x7ec>
    f4a0:	009c84b3          	add	x9,x25,x9
    f4a4:	fff80613          	add	x12,x16,-1
    f4a8:	00048693          	mv	x13,x9
    f4ac:	1b94ec63          	bltu	x9,x25,f664 <__divdf3+0x7e0>
    f4b0:	24e4ea63          	bltu	x9,x14,f704 <__divdf3+0x880>
    f4b4:	26e48863          	beq	x9,x14,f724 <__divdf3+0x8a0>
    f4b8:	00060813          	mv	x16,x12
    f4bc:	fcdff06f          	j	f488 <__divdf3+0x604>
    f4c0:	00100713          	li	x14,1
    f4c4:	b20790e3          	bnez	x15,efe4 <__divdf3+0x160>
    f4c8:	41e98793          	add	x15,x19,1054
    f4cc:	00f816b3          	sll	x13,x16,x15
    f4d0:	00d036b3          	snez	x13,x13
    f4d4:	00f417b3          	sll	x15,x8,x15
    f4d8:	00f6e7b3          	or	x15,x13,x15
    f4dc:	00e85833          	srl	x16,x16,x14
    f4e0:	00f86833          	or	x16,x16,x15
    f4e4:	00787793          	and	x15,x16,7
    f4e8:	00e45433          	srl	x8,x8,x14
    f4ec:	02078063          	beqz	x15,f50c <__divdf3+0x688>
    f4f0:	00f87793          	and	x15,x16,15
    f4f4:	00400713          	li	x14,4
    f4f8:	00e78a63          	beq	x15,x14,f50c <__divdf3+0x688>
    f4fc:	00480793          	add	x15,x16,4
    f500:	0107b833          	sltu	x16,x15,x16
    f504:	01040433          	add	x8,x8,x16
    f508:	00078813          	mv	x16,x15
    f50c:	00841613          	sll	x12,x8,0x8
    f510:	00100793          	li	x15,1
    f514:	00000693          	li	x13,0
    f518:	00000713          	li	x14,0
    f51c:	ae0640e3          	bltz	x12,effc <__divdf3+0x178>
    f520:	1280006f          	j	f648 <__divdf3+0x7c4>
    f524:	de9d7ce3          	bgeu	x26,x9,f31c <__divdf3+0x498>
    f528:	015d06b3          	add	x13,x26,x21
    f52c:	01a6b633          	sltu	x12,x13,x26
    f530:	019605b3          	add	x11,x12,x25
    f534:	00bb8bb3          	add	x23,x23,x11
    f538:	00068d13          	mv	x26,x13
    f53c:	fff40593          	add	x11,x8,-1
    f540:	077cfe63          	bgeu	x25,x23,f5bc <__divdf3+0x738>
    f544:	14fbe063          	bltu	x23,x15,f684 <__divdf3+0x800>
    f548:	13778c63          	beq	x15,x23,f680 <__divdf3+0x7fc>
    f54c:	00058413          	mv	x8,x11
    f550:	dcdff06f          	j	f31c <__divdf3+0x498>
    f554:	c50bece3          	bltu	x23,x16,f1ac <__divdf3+0x328>
    f558:	01fb1c13          	sll	x24,x22,0x1f
    f55c:	001bd713          	srl	x14,x23,0x1
    f560:	001b5493          	srl	x9,x22,0x1
    f564:	00ec6c33          	or	x24,x24,x14
    f568:	01fb9d13          	sll	x26,x23,0x1f
    f56c:	c51ff06f          	j	f1bc <__divdf3+0x338>
    f570:	000a0513          	mv	x10,x20
    f574:	678010ef          	jal	10bec <__clzsi2>
    f578:	01550693          	add	x13,x10,21
    f57c:	01c00713          	li	x14,28
    f580:	02050793          	add	x15,x10,32
    f584:	a2d75ae3          	bge	x14,x13,efb8 <__divdf3+0x134>
    f588:	ff850513          	add	x10,x10,-8
    f58c:	00000813          	li	x16,0
    f590:	00aa1433          	sll	x8,x20,x10
    f594:	a41ff06f          	j	efd4 <__divdf3+0x150>
    f598:	654010ef          	jal	10bec <__clzsi2>
    f59c:	01550793          	add	x15,x10,21
    f5a0:	01c00693          	li	x13,28
    f5a4:	02050713          	add	x14,x10,32
    f5a8:	acf6dee3          	bge	x13,x15,f084 <__divdf3+0x200>
    f5ac:	ff850493          	add	x9,x10,-8
    f5b0:	00941b33          	sll	x22,x8,x9
    f5b4:	00000b93          	li	x23,0
    f5b8:	ae9ff06f          	j	f0a0 <__divdf3+0x21c>
    f5bc:	f97c98e3          	bne	x25,x23,f54c <__divdf3+0x6c8>
    f5c0:	f80602e3          	beqz	x12,f544 <__divdf3+0x6c0>
    f5c4:	00058413          	mv	x8,x11
    f5c8:	d55ff06f          	j	f31c <__divdf3+0x498>
    f5cc:	ca97f8e3          	bgeu	x15,x9,f27c <__divdf3+0x3f8>
    f5d0:	ffeb8b93          	add	x23,x23,-2
    f5d4:	019787b3          	add	x15,x15,x25
    f5d8:	ca9ff06f          	j	f280 <__divdf3+0x3fc>
    f5dc:	c497f4e3          	bgeu	x15,x9,f224 <__divdf3+0x3a0>
    f5e0:	ffe40413          	add	x8,x8,-2
    f5e4:	019787b3          	add	x15,x15,x25
    f5e8:	c41ff06f          	j	f228 <__divdf3+0x3a4>
    f5ec:	01f00693          	li	x13,31
    f5f0:	ece6dce3          	bge	x13,x14,f4c8 <__divdf3+0x644>
    f5f4:	fe100693          	li	x13,-31
    f5f8:	40f686b3          	sub	x13,x13,x15
    f5fc:	02000793          	li	x15,32
    f600:	00d456b3          	srl	x13,x8,x13
    f604:	00f70863          	beq	x14,x15,f614 <__divdf3+0x790>
    f608:	43e98793          	add	x15,x19,1086
    f60c:	00f417b3          	sll	x15,x8,x15
    f610:	00f86833          	or	x16,x16,x15
    f614:	01003833          	snez	x16,x16
    f618:	00d86833          	or	x16,x16,x13
    f61c:	00787713          	and	x14,x16,7
    f620:	00000693          	li	x13,0
    f624:	02070863          	beqz	x14,f654 <__divdf3+0x7d0>
    f628:	00f87793          	and	x15,x16,15
    f62c:	00400713          	li	x14,4
    f630:	00000413          	li	x8,0
    f634:	00e78a63          	beq	x15,x14,f648 <__divdf3+0x7c4>
    f638:	00480793          	add	x15,x16,4
    f63c:	0107b833          	sltu	x16,x15,x16
    f640:	01003433          	snez	x8,x16
    f644:	00078813          	mv	x16,x15
    f648:	00941693          	sll	x13,x8,0x9
    f64c:	01d41713          	sll	x14,x8,0x1d
    f650:	00c6d693          	srl	x13,x13,0xc
    f654:	00385813          	srl	x16,x16,0x3
    f658:	00e86733          	or	x14,x16,x14
    f65c:	00000793          	li	x15,0
    f660:	99dff06f          	j	effc <__divdf3+0x178>
    f664:	00060813          	mv	x16,x12
    f668:	e2e690e3          	bne	x13,x14,f488 <__divdf3+0x604>
    f66c:	e1579ee3          	bne	x15,x21,f488 <__divdf3+0x604>
    f670:	02412c83          	lw	x25,36(x2)
    f674:	02012d03          	lw	x26,32(x2)
    f678:	01c12d83          	lw	x27,28(x2)
    f67c:	a7dff06f          	j	f0f8 <__divdf3+0x274>
    f680:	ec96f6e3          	bgeu	x13,x9,f54c <__divdf3+0x6c8>
    f684:	00da86b3          	add	x13,x21,x13
    f688:	0156b633          	sltu	x12,x13,x21
    f68c:	01960633          	add	x12,x12,x25
    f690:	ffe40413          	add	x8,x8,-2
    f694:	00068d13          	mv	x26,x13
    f698:	00cb8bb3          	add	x23,x23,x12
    f69c:	c81ff06f          	j	f31c <__divdf3+0x498>
    f6a0:	c0200713          	li	x14,-1022
    f6a4:	02412c83          	lw	x25,36(x2)
    f6a8:	02012d03          	lw	x26,32(x2)
    f6ac:	01c12d83          	lw	x27,28(x2)
    f6b0:	3ff98793          	add	x15,x19,1023
    f6b4:	fff00813          	li	x16,-1
    f6b8:	e0e9c4e3          	blt	x19,x14,f4c0 <__divdf3+0x63c>
    f6bc:	00480713          	add	x14,x16,4
    f6c0:	01073833          	sltu	x16,x14,x16
    f6c4:	01040433          	add	x8,x8,x16
    f6c8:	00070813          	mv	x16,x14
    f6cc:	a3dff06f          	j	f108 <__divdf3+0x284>
    f6d0:	00f87713          	and	x14,x16,15
    f6d4:	00400693          	li	x13,4
    f6d8:	a2d708e3          	beq	x14,x13,f108 <__divdf3+0x284>
    f6dc:	fe1ff06f          	j	f6bc <__divdf3+0x838>
    f6e0:	00d12623          	sw	x13,12(x2)
    f6e4:	cadff06f          	j	f390 <__divdf3+0x50c>
    f6e8:	00078d13          	mv	x26,x15
    f6ec:	d05ff06f          	j	f3f0 <__divdf3+0x56c>
    f6f0:	00090a13          	mv	x20,x18
    f6f4:	7ff00793          	li	x15,2047
    f6f8:	00000693          	li	x13,0
    f6fc:	00000713          	li	x14,0
    f700:	8fdff06f          	j	effc <__divdf3+0x178>
    f704:	001a9613          	sll	x12,x21,0x1
    f708:	015636b3          	sltu	x13,x12,x21
    f70c:	019686b3          	add	x13,x13,x25
    f710:	00d486b3          	add	x13,x9,x13
    f714:	ffe80813          	add	x16,x16,-2
    f718:	00060a93          	mv	x21,x12
    f71c:	f4e688e3          	beq	x13,x14,f66c <__divdf3+0x7e8>
    f720:	d69ff06f          	j	f488 <__divdf3+0x604>
    f724:	fefae0e3          	bltu	x21,x15,f704 <__divdf3+0x880>
    f728:	00060813          	mv	x16,x12
    f72c:	f41ff06f          	j	f66c <__divdf3+0x7e8>

Disassembly of section .text.__eqdf2:

0000f730 <__eqdf2>:
    f730:	0145d713          	srl	x14,x11,0x14
    f734:	001007b7          	lui	x15,0x100
    f738:	fff78793          	add	x15,x15,-1 # fffff <_ebss+0xe310f>
    f73c:	0146d813          	srl	x16,x13,0x14
    f740:	7ff77713          	and	x14,x14,2047
    f744:	7ff00313          	li	x6,2047
    f748:	00b7fe33          	and	x28,x15,x11
    f74c:	00050893          	mv	x17,x10
    f750:	00d7f7b3          	and	x15,x15,x13
    f754:	01f5d593          	srl	x11,x11,0x1f
    f758:	7ff87813          	and	x16,x16,2047
    f75c:	01f6d693          	srl	x13,x13,0x1f
    f760:	00100513          	li	x10,1
    f764:	00670c63          	beq	x14,x6,f77c <__eqdf2+0x4c>
    f768:	00680863          	beq	x16,x6,f778 <__eqdf2+0x48>
    f76c:	01071463          	bne	x14,x16,f774 <__eqdf2+0x44>
    f770:	02fe0663          	beq	x28,x15,f79c <__eqdf2+0x6c>
    f774:	00008067          	ret
    f778:	00008067          	ret
    f77c:	fee81ce3          	bne	x16,x14,f774 <__eqdf2+0x44>
    f780:	00fe67b3          	or	x15,x28,x15
    f784:	00c7e7b3          	or	x15,x15,x12
    f788:	0117e7b3          	or	x15,x15,x17
    f78c:	fe0794e3          	bnez	x15,f774 <__eqdf2+0x44>
    f790:	40d585b3          	sub	x11,x11,x13
    f794:	00b03533          	snez	x10,x11
    f798:	00008067          	ret
    f79c:	fcc89ce3          	bne	x17,x12,f774 <__eqdf2+0x44>
    f7a0:	00d58a63          	beq	x11,x13,f7b4 <__eqdf2+0x84>
    f7a4:	fc0718e3          	bnez	x14,f774 <__eqdf2+0x44>
    f7a8:	011e6e33          	or	x28,x28,x17
    f7ac:	01c03533          	snez	x10,x28
    f7b0:	00008067          	ret
    f7b4:	00000513          	li	x10,0
    f7b8:	00008067          	ret

Disassembly of section .text.__gedf2:

0000f7bc <__gedf2>:
    f7bc:	0145d893          	srl	x17,x11,0x14
    f7c0:	001007b7          	lui	x15,0x100
    f7c4:	fff78793          	add	x15,x15,-1 # fffff <_ebss+0xe310f>
    f7c8:	0146d713          	srl	x14,x13,0x14
    f7cc:	7ff8f893          	and	x17,x17,2047
    f7d0:	7ff00e13          	li	x28,2047
    f7d4:	00b7f333          	and	x6,x15,x11
    f7d8:	00050813          	mv	x16,x10
    f7dc:	00050e93          	mv	x29,x10
    f7e0:	00d7f7b3          	and	x15,x15,x13
    f7e4:	01f5d593          	srl	x11,x11,0x1f
    f7e8:	00060f13          	mv	x30,x12
    f7ec:	7ff77513          	and	x10,x14,2047
    f7f0:	01f6d693          	srl	x13,x13,0x1f
    f7f4:	05c88863          	beq	x17,x28,f844 <__gedf2+0x88>
    f7f8:	03c50463          	beq	x10,x28,f820 <__gedf2+0x64>
    f7fc:	06089a63          	bnez	x17,f870 <__gedf2+0xb4>
    f800:	01036833          	or	x16,x6,x16
    f804:	06051063          	bnez	x10,f864 <__gedf2+0xa8>
    f808:	00c7e633          	or	x12,x15,x12
    f80c:	08060c63          	beqz	x12,f8a4 <__gedf2+0xe8>
    f810:	0a081263          	bnez	x16,f8b4 <__gedf2+0xf8>
    f814:	00100513          	li	x10,1
    f818:	08068263          	beqz	x13,f89c <__gedf2+0xe0>
    f81c:	00008067          	ret
    f820:	00c7e633          	or	x12,x15,x12
    f824:	08061463          	bnez	x12,f8ac <__gedf2+0xf0>
    f828:	00089663          	bnez	x17,f834 <__gedf2+0x78>
    f82c:	01036333          	or	x6,x6,x16
    f830:	fe0302e3          	beqz	x6,f814 <__gedf2+0x58>
    f834:	06d58063          	beq	x11,x13,f894 <__gedf2+0xd8>
    f838:	06059263          	bnez	x11,f89c <__gedf2+0xe0>
    f83c:	00100513          	li	x10,1
    f840:	00008067          	ret
    f844:	01036333          	or	x6,x6,x16
    f848:	06031263          	bnez	x6,f8ac <__gedf2+0xf0>
    f84c:	ff1516e3          	bne	x10,x17,f838 <__gedf2+0x7c>
    f850:	00c7e7b3          	or	x15,x15,x12
    f854:	04079c63          	bnez	x15,f8ac <__gedf2+0xf0>
    f858:	fed590e3          	bne	x11,x13,f838 <__gedf2+0x7c>
    f85c:	00000513          	li	x10,0
    f860:	00008067          	ret
    f864:	fa0808e3          	beqz	x16,f814 <__gedf2+0x58>
    f868:	fcd598e3          	bne	x11,x13,f838 <__gedf2+0x7c>
    f86c:	0280006f          	j	f894 <__gedf2+0xd8>
    f870:	fc0504e3          	beqz	x10,f838 <__gedf2+0x7c>
    f874:	fcd592e3          	bne	x11,x13,f838 <__gedf2+0x7c>
    f878:	fd1540e3          	blt	x10,x17,f838 <__gedf2+0x7c>
    f87c:	00a8cc63          	blt	x17,x10,f894 <__gedf2+0xd8>
    f880:	fa67ece3          	bltu	x15,x6,f838 <__gedf2+0x7c>
    f884:	00f31863          	bne	x6,x15,f894 <__gedf2+0xd8>
    f888:	fbdf68e3          	bltu	x30,x29,f838 <__gedf2+0x7c>
    f88c:	00000513          	li	x10,0
    f890:	f9eef6e3          	bgeu	x29,x30,f81c <__gedf2+0x60>
    f894:	00100513          	li	x10,1
    f898:	f80592e3          	bnez	x11,f81c <__gedf2+0x60>
    f89c:	fff00513          	li	x10,-1
    f8a0:	00008067          	ret
    f8a4:	f8081ae3          	bnez	x16,f838 <__gedf2+0x7c>
    f8a8:	00008067          	ret
    f8ac:	ffe00513          	li	x10,-2
    f8b0:	00008067          	ret
    f8b4:	fcd586e3          	beq	x11,x13,f880 <__gedf2+0xc4>
    f8b8:	f81ff06f          	j	f838 <__gedf2+0x7c>

Disassembly of section .text.__ledf2:

0000f8bc <__ledf2>:
    f8bc:	0145d893          	srl	x17,x11,0x14
    f8c0:	001007b7          	lui	x15,0x100
    f8c4:	fff78793          	add	x15,x15,-1 # fffff <_ebss+0xe310f>
    f8c8:	0146d713          	srl	x14,x13,0x14
    f8cc:	7ff8f893          	and	x17,x17,2047
    f8d0:	7ff00313          	li	x6,2047
    f8d4:	00b7fe33          	and	x28,x15,x11
    f8d8:	00050813          	mv	x16,x10
    f8dc:	00050e93          	mv	x29,x10
    f8e0:	00d7f7b3          	and	x15,x15,x13
    f8e4:	01f5d593          	srl	x11,x11,0x1f
    f8e8:	00060f13          	mv	x30,x12
    f8ec:	7ff77513          	and	x10,x14,2047
    f8f0:	01f6d693          	srl	x13,x13,0x1f
    f8f4:	04688a63          	beq	x17,x6,f948 <__ledf2+0x8c>
    f8f8:	02650463          	beq	x10,x6,f920 <__ledf2+0x64>
    f8fc:	06089863          	bnez	x17,f96c <__ledf2+0xb0>
    f900:	010e6833          	or	x16,x28,x16
    f904:	08051e63          	bnez	x10,f9a0 <__ledf2+0xe4>
    f908:	00c7e633          	or	x12,x15,x12
    f90c:	0a060463          	beqz	x12,f9b4 <__ledf2+0xf8>
    f910:	0a081663          	bnez	x16,f9bc <__ledf2+0x100>
    f914:	00100513          	li	x10,1
    f918:	08068063          	beqz	x13,f998 <__ledf2+0xdc>
    f91c:	00008067          	ret
    f920:	00c7e633          	or	x12,x15,x12
    f924:	00200513          	li	x10,2
    f928:	fe061ae3          	bnez	x12,f91c <__ledf2+0x60>
    f92c:	00089663          	bnez	x17,f938 <__ledf2+0x7c>
    f930:	010e6e33          	or	x28,x28,x16
    f934:	fe0e00e3          	beqz	x28,f914 <__ledf2+0x58>
    f938:	04d58c63          	beq	x11,x13,f990 <__ledf2+0xd4>
    f93c:	04059e63          	bnez	x11,f998 <__ledf2+0xdc>
    f940:	00100513          	li	x10,1
    f944:	00008067          	ret
    f948:	010e6e33          	or	x28,x28,x16
    f94c:	060e1063          	bnez	x28,f9ac <__ledf2+0xf0>
    f950:	ff1516e3          	bne	x10,x17,f93c <__ledf2+0x80>
    f954:	00c7e7b3          	or	x15,x15,x12
    f958:	00200513          	li	x10,2
    f95c:	fc0790e3          	bnez	x15,f91c <__ledf2+0x60>
    f960:	fcd59ee3          	bne	x11,x13,f93c <__ledf2+0x80>
    f964:	00000513          	li	x10,0
    f968:	00008067          	ret
    f96c:	fc0508e3          	beqz	x10,f93c <__ledf2+0x80>
    f970:	fcd596e3          	bne	x11,x13,f93c <__ledf2+0x80>
    f974:	fd1544e3          	blt	x10,x17,f93c <__ledf2+0x80>
    f978:	00a8cc63          	blt	x17,x10,f990 <__ledf2+0xd4>
    f97c:	fdc7e0e3          	bltu	x15,x28,f93c <__ledf2+0x80>
    f980:	00fe1863          	bne	x28,x15,f990 <__ledf2+0xd4>
    f984:	fbdf6ce3          	bltu	x30,x29,f93c <__ledf2+0x80>
    f988:	00000513          	li	x10,0
    f98c:	f9eef8e3          	bgeu	x29,x30,f91c <__ledf2+0x60>
    f990:	00100513          	li	x10,1
    f994:	f80594e3          	bnez	x11,f91c <__ledf2+0x60>
    f998:	fff00513          	li	x10,-1
    f99c:	00008067          	ret
    f9a0:	f6080ae3          	beqz	x16,f914 <__ledf2+0x58>
    f9a4:	f8d59ce3          	bne	x11,x13,f93c <__ledf2+0x80>
    f9a8:	fe9ff06f          	j	f990 <__ledf2+0xd4>
    f9ac:	00200513          	li	x10,2
    f9b0:	00008067          	ret
    f9b4:	f80814e3          	bnez	x16,f93c <__ledf2+0x80>
    f9b8:	00008067          	ret
    f9bc:	fcd580e3          	beq	x11,x13,f97c <__ledf2+0xc0>
    f9c0:	f7dff06f          	j	f93c <__ledf2+0x80>

Disassembly of section .text.__muldf3:

0000f9c4 <__muldf3>:
    f9c4:	fd010113          	add	x2,x2,-48
    f9c8:	0145d793          	srl	x15,x11,0x14
    f9cc:	02812423          	sw	x8,40(x2)
    f9d0:	02912223          	sw	x9,36(x2)
    f9d4:	03212023          	sw	x18,32(x2)
    f9d8:	01312e23          	sw	x19,28(x2)
    f9dc:	01512a23          	sw	x21,20(x2)
    f9e0:	00c59493          	sll	x9,x11,0xc
    f9e4:	02112623          	sw	x1,44(x2)
    f9e8:	01412c23          	sw	x20,24(x2)
    f9ec:	01612823          	sw	x22,16(x2)
    f9f0:	01712623          	sw	x23,12(x2)
    f9f4:	01812423          	sw	x24,8(x2)
    f9f8:	7ff7f793          	and	x15,x15,2047
    f9fc:	00050413          	mv	x8,x10
    fa00:	00060a93          	mv	x21,x12
    fa04:	00068993          	mv	x19,x13
    fa08:	00c4d493          	srl	x9,x9,0xc
    fa0c:	01f5d913          	srl	x18,x11,0x1f
    fa10:	4e078063          	beqz	x15,fef0 <__muldf3+0x52c>
    fa14:	7ff00713          	li	x14,2047
    fa18:	0ae78663          	beq	x15,x14,fac4 <__muldf3+0x100>
    fa1c:	00349693          	sll	x13,x9,0x3
    fa20:	01d55713          	srl	x14,x10,0x1d
    fa24:	00d76733          	or	x14,x14,x13
    fa28:	008006b7          	lui	x13,0x800
    fa2c:	00d764b3          	or	x9,x14,x13
    fa30:	00351a13          	sll	x20,x10,0x3
    fa34:	c0178c13          	add	x24,x15,-1023
    fa38:	00000b13          	li	x22,0
    fa3c:	00000b93          	li	x23,0
    fa40:	0149d793          	srl	x15,x19,0x14
    fa44:	00c99713          	sll	x14,x19,0xc
    fa48:	7ff7f793          	and	x15,x15,2047
    fa4c:	000a8e13          	mv	x28,x21
    fa50:	00c75413          	srl	x8,x14,0xc
    fa54:	01f9d993          	srl	x19,x19,0x1f
    fa58:	0a078063          	beqz	x15,faf8 <__muldf3+0x134>
    fa5c:	7ff00713          	li	x14,2047
    fa60:	14e78e63          	beq	x15,x14,fbbc <__muldf3+0x1f8>
    fa64:	00341713          	sll	x14,x8,0x3
    fa68:	01dad693          	srl	x13,x21,0x1d
    fa6c:	00e6e6b3          	or	x13,x13,x14
    fa70:	c0178793          	add	x15,x15,-1023
    fa74:	00800737          	lui	x14,0x800
    fa78:	00e6e433          	or	x8,x13,x14
    fa7c:	003a9e13          	sll	x28,x21,0x3
    fa80:	01878333          	add	x6,x15,x24
    fa84:	00000693          	li	x13,0
    fa88:	00a00793          	li	x15,10
    fa8c:	00130893          	add	x17,x6,1
    fa90:	0b67cc63          	blt	x15,x22,fb48 <__muldf3+0x184>
    fa94:	013945b3          	xor	x11,x18,x19
    fa98:	00200793          	li	x15,2
    fa9c:	00058813          	mv	x16,x11
    faa0:	1567c663          	blt	x15,x22,fbec <__muldf3+0x228>
    faa4:	fffb0b13          	add	x22,x22,-1
    faa8:	00100713          	li	x14,1
    faac:	17676063          	bltu	x14,x22,fc0c <__muldf3+0x248>
    fab0:	48f68663          	beq	x13,x15,ff3c <__muldf3+0x578>
    fab4:	00040493          	mv	x9,x8
    fab8:	000e0a13          	mv	x20,x28
    fabc:	00068b93          	mv	x23,x13
    fac0:	09c0006f          	j	fb5c <__muldf3+0x198>
    fac4:	00a4ea33          	or	x20,x9,x10
    fac8:	480a1463          	bnez	x20,ff50 <__muldf3+0x58c>
    facc:	0149d793          	srl	x15,x19,0x14
    fad0:	00c99713          	sll	x14,x19,0xc
    fad4:	7ff7f793          	and	x15,x15,2047
    fad8:	00000493          	li	x9,0
    fadc:	00800b13          	li	x22,8
    fae0:	7ff00c13          	li	x24,2047
    fae4:	00200b93          	li	x23,2
    fae8:	000a8e13          	mv	x28,x21
    faec:	00c75413          	srl	x8,x14,0xc
    faf0:	01f9d993          	srl	x19,x19,0x1f
    faf4:	f60794e3          	bnez	x15,fa5c <__muldf3+0x98>
    faf8:	015467b3          	or	x15,x8,x21
    fafc:	46078e63          	beqz	x15,ff78 <__muldf3+0x5b4>
    fb00:	54040c63          	beqz	x8,10058 <__muldf3+0x694>
    fb04:	00040513          	mv	x10,x8
    fb08:	0e4010ef          	jal	10bec <__clzsi2>
    fb0c:	00050313          	mv	x6,x10
    fb10:	ff550713          	add	x14,x10,-11
    fb14:	01d00793          	li	x15,29
    fb18:	ff830e13          	add	x28,x6,-8
    fb1c:	40e787b3          	sub	x15,x15,x14
    fb20:	00fad7b3          	srl	x15,x21,x15
    fb24:	01c41733          	sll	x14,x8,x28
    fb28:	00e7e433          	or	x8,x15,x14
    fb2c:	01ca9e33          	sll	x28,x21,x28
    fb30:	406c0333          	sub	x6,x24,x6
    fb34:	c0d30313          	add	x6,x6,-1011
    fb38:	00a00793          	li	x15,10
    fb3c:	00000693          	li	x13,0
    fb40:	00130893          	add	x17,x6,1
    fb44:	f567d8e3          	bge	x15,x22,fa94 <__muldf3+0xd0>
    fb48:	00090593          	mv	x11,x18
    fb4c:	00200793          	li	x15,2
    fb50:	3efb8663          	beq	x23,x15,ff3c <__muldf3+0x578>
    fb54:	00300793          	li	x15,3
    fb58:	54fb8863          	beq	x23,x15,100a8 <__muldf3+0x6e4>
    fb5c:	00100793          	li	x15,1
    fb60:	00058813          	mv	x16,x11
    fb64:	52fb9663          	bne	x23,x15,10090 <__muldf3+0x6cc>
    fb68:	00000793          	li	x15,0
    fb6c:	00000693          	li	x13,0
    fb70:	00000713          	li	x14,0
    fb74:	02c12083          	lw	x1,44(x2)
    fb78:	02812403          	lw	x8,40(x2)
    fb7c:	01479793          	sll	x15,x15,0x14
    fb80:	00d7e7b3          	or	x15,x15,x13
    fb84:	01f81813          	sll	x16,x16,0x1f
    fb88:	0107e7b3          	or	x15,x15,x16
    fb8c:	02412483          	lw	x9,36(x2)
    fb90:	02012903          	lw	x18,32(x2)
    fb94:	01c12983          	lw	x19,28(x2)
    fb98:	01812a03          	lw	x20,24(x2)
    fb9c:	01412a83          	lw	x21,20(x2)
    fba0:	01012b03          	lw	x22,16(x2)
    fba4:	00c12b83          	lw	x23,12(x2)
    fba8:	00812c03          	lw	x24,8(x2)
    fbac:	00070513          	mv	x10,x14
    fbb0:	00078593          	mv	x11,x15
    fbb4:	03010113          	add	x2,x2,48
    fbb8:	00008067          	ret
    fbbc:	01546733          	or	x14,x8,x21
    fbc0:	7ffc0313          	add	x6,x24,2047
    fbc4:	3c070663          	beqz	x14,ff90 <__muldf3+0x5cc>
    fbc8:	00001737          	lui	x14,0x1
    fbcc:	01394833          	xor	x16,x18,x19
    fbd0:	80070713          	add	x14,x14,-2048 # 800 <save_option+0x148>
    fbd4:	003b6b13          	or	x22,x22,3
    fbd8:	00a00693          	li	x13,10
    fbdc:	00080593          	mv	x11,x16
    fbe0:	00ec08b3          	add	x17,x24,x14
    fbe4:	4366cc63          	blt	x13,x22,1001c <__muldf3+0x658>
    fbe8:	00300693          	li	x13,3
    fbec:	00100613          	li	x12,1
    fbf0:	01661633          	sll	x12,x12,x22
    fbf4:	53067713          	and	x14,x12,1328
    fbf8:	f4071ae3          	bnez	x14,fb4c <__muldf3+0x188>
    fbfc:	24067793          	and	x15,x12,576
    fc00:	48079063          	bnez	x15,10080 <__muldf3+0x6bc>
    fc04:	08867613          	and	x12,x12,136
    fc08:	38061e63          	bnez	x12,ffa4 <__muldf3+0x5e0>
    fc0c:	00010fb7          	lui	x31,0x10
    fc10:	ffff8293          	add	x5,x31,-1 # ffff <__muldf3+0x63b>
    fc14:	005a7f33          	and	x30,x20,x5
    fc18:	005e72b3          	and	x5,x28,x5
    fc1c:	010a5a13          	srl	x20,x20,0x10
    fc20:	010e5e13          	srl	x28,x28,0x10
    fc24:	000f0513          	mv	x10,x30
    fc28:	00028593          	mv	x11,x5
    fc2c:	bb5fd0ef          	jal	d7e0 <__mulsi3>
    fc30:	00050713          	mv	x14,x10
    fc34:	000e0593          	mv	x11,x28
    fc38:	000f0513          	mv	x10,x30
    fc3c:	ba5fd0ef          	jal	d7e0 <__mulsi3>
    fc40:	00050793          	mv	x15,x10
    fc44:	00028593          	mv	x11,x5
    fc48:	000a0513          	mv	x10,x20
    fc4c:	b95fd0ef          	jal	d7e0 <__mulsi3>
    fc50:	00050e93          	mv	x29,x10
    fc54:	000e0593          	mv	x11,x28
    fc58:	000a0513          	mv	x10,x20
    fc5c:	b85fd0ef          	jal	d7e0 <__mulsi3>
    fc60:	01d786b3          	add	x13,x15,x29
    fc64:	01075393          	srl	x7,x14,0x10
    fc68:	00d383b3          	add	x7,x7,x13
    fc6c:	00050793          	mv	x15,x10
    fc70:	01d3f463          	bgeu	x7,x29,fc78 <__muldf3+0x2b4>
    fc74:	01f507b3          	add	x15,x10,x31
    fc78:	000109b7          	lui	x19,0x10
    fc7c:	fff98913          	add	x18,x19,-1 # ffff <__muldf3+0x63b>
    fc80:	0123feb3          	and	x29,x7,x18
    fc84:	01277733          	and	x14,x14,x18
    fc88:	010e9e93          	sll	x29,x29,0x10
    fc8c:	01247933          	and	x18,x8,x18
    fc90:	0103d393          	srl	x7,x7,0x10
    fc94:	00ee8eb3          	add	x29,x29,x14
    fc98:	01045413          	srl	x8,x8,0x10
    fc9c:	000f0513          	mv	x10,x30
    fca0:	00090593          	mv	x11,x18
    fca4:	b3dfd0ef          	jal	d7e0 <__mulsi3>
    fca8:	00050f93          	mv	x31,x10
    fcac:	00040593          	mv	x11,x8
    fcb0:	000f0513          	mv	x10,x30
    fcb4:	b2dfd0ef          	jal	d7e0 <__mulsi3>
    fcb8:	00050713          	mv	x14,x10
    fcbc:	00090593          	mv	x11,x18
    fcc0:	000a0513          	mv	x10,x20
    fcc4:	b1dfd0ef          	jal	d7e0 <__mulsi3>
    fcc8:	00050f13          	mv	x30,x10
    fccc:	00040593          	mv	x11,x8
    fcd0:	000a0513          	mv	x10,x20
    fcd4:	b0dfd0ef          	jal	d7e0 <__mulsi3>
    fcd8:	010fd693          	srl	x13,x31,0x10
    fcdc:	01e70733          	add	x14,x14,x30
    fce0:	00e686b3          	add	x13,x13,x14
    fce4:	01e6f463          	bgeu	x13,x30,fcec <__muldf3+0x328>
    fce8:	01350533          	add	x10,x10,x19
    fcec:	00010a37          	lui	x20,0x10
    fcf0:	fffa0f13          	add	x30,x20,-1 # ffff <__muldf3+0x63b>
    fcf4:	01e6f733          	and	x14,x13,x30
    fcf8:	01efffb3          	and	x31,x31,x30
    fcfc:	01071713          	sll	x14,x14,0x10
    fd00:	01f70733          	add	x14,x14,x31
    fd04:	01e4ff33          	and	x30,x9,x30
    fd08:	0106d693          	srl	x13,x13,0x10
    fd0c:	00a68fb3          	add	x31,x13,x10
    fd10:	00e383b3          	add	x7,x7,x14
    fd14:	0104d493          	srl	x9,x9,0x10
    fd18:	000f0513          	mv	x10,x30
    fd1c:	00028593          	mv	x11,x5
    fd20:	ac1fd0ef          	jal	d7e0 <__mulsi3>
    fd24:	00050a93          	mv	x21,x10
    fd28:	000e0593          	mv	x11,x28
    fd2c:	000f0513          	mv	x10,x30
    fd30:	ab1fd0ef          	jal	d7e0 <__mulsi3>
    fd34:	00050993          	mv	x19,x10
    fd38:	00028593          	mv	x11,x5
    fd3c:	00048513          	mv	x10,x9
    fd40:	aa1fd0ef          	jal	d7e0 <__mulsi3>
    fd44:	00050293          	mv	x5,x10
    fd48:	000e0593          	mv	x11,x28
    fd4c:	00048513          	mv	x10,x9
    fd50:	a91fd0ef          	jal	d7e0 <__mulsi3>
    fd54:	010ad613          	srl	x12,x21,0x10
    fd58:	005989b3          	add	x19,x19,x5
    fd5c:	01360633          	add	x12,x12,x19
    fd60:	00567463          	bgeu	x12,x5,fd68 <__muldf3+0x3a4>
    fd64:	01450533          	add	x10,x10,x20
    fd68:	00010a37          	lui	x20,0x10
    fd6c:	fffa0693          	add	x13,x20,-1 # ffff <__muldf3+0x63b>
    fd70:	00d672b3          	and	x5,x12,x13
    fd74:	00dafab3          	and	x21,x21,x13
    fd78:	01065613          	srl	x12,x12,0x10
    fd7c:	01029293          	sll	x5,x5,0x10
    fd80:	00a60e33          	add	x28,x12,x10
    fd84:	015282b3          	add	x5,x5,x21
    fd88:	000f0513          	mv	x10,x30
    fd8c:	00090593          	mv	x11,x18
    fd90:	a51fd0ef          	jal	d7e0 <__mulsi3>
    fd94:	00050993          	mv	x19,x10
    fd98:	00040593          	mv	x11,x8
    fd9c:	000f0513          	mv	x10,x30
    fda0:	a41fd0ef          	jal	d7e0 <__mulsi3>
    fda4:	00050f13          	mv	x30,x10
    fda8:	00090593          	mv	x11,x18
    fdac:	00048513          	mv	x10,x9
    fdb0:	a31fd0ef          	jal	d7e0 <__mulsi3>
    fdb4:	00050913          	mv	x18,x10
    fdb8:	00040593          	mv	x11,x8
    fdbc:	00048513          	mv	x10,x9
    fdc0:	a21fd0ef          	jal	d7e0 <__mulsi3>
    fdc4:	012f06b3          	add	x13,x30,x18
    fdc8:	0109d593          	srl	x11,x19,0x10
    fdcc:	00d58433          	add	x8,x11,x13
    fdd0:	00050f13          	mv	x30,x10
    fdd4:	01247463          	bgeu	x8,x18,fddc <__muldf3+0x418>
    fdd8:	01450f33          	add	x30,x10,x20
    fddc:	00010637          	lui	x12,0x10
    fde0:	fff60613          	add	x12,x12,-1 # ffff <__muldf3+0x63b>
    fde4:	00c476b3          	and	x13,x8,x12
    fde8:	00c9f9b3          	and	x19,x19,x12
    fdec:	01069693          	sll	x13,x13,0x10
    fdf0:	007787b3          	add	x15,x15,x7
    fdf4:	013686b3          	add	x13,x13,x19
    fdf8:	01f685b3          	add	x11,x13,x31
    fdfc:	00e7b733          	sltu	x14,x15,x14
    fe00:	00e58733          	add	x14,x11,x14
    fe04:	005782b3          	add	x5,x15,x5
    fe08:	01c70633          	add	x12,x14,x28
    fe0c:	00f2b7b3          	sltu	x15,x5,x15
    fe10:	00f607b3          	add	x15,x12,x15
    fe14:	00d5b6b3          	sltu	x13,x11,x13
    fe18:	00b735b3          	sltu	x11,x14,x11
    fe1c:	00b6e6b3          	or	x13,x13,x11
    fe20:	00e63733          	sltu	x14,x12,x14
    fe24:	01045593          	srl	x11,x8,0x10
    fe28:	00c7b633          	sltu	x12,x15,x12
    fe2c:	00b686b3          	add	x13,x13,x11
    fe30:	00929a13          	sll	x20,x5,0x9
    fe34:	00c76733          	or	x14,x14,x12
    fe38:	00d70733          	add	x14,x14,x13
    fe3c:	01da6a33          	or	x20,x20,x29
    fe40:	01e70733          	add	x14,x14,x30
    fe44:	01403a33          	snez	x20,x20
    fe48:	0172d293          	srl	x5,x5,0x17
    fe4c:	00971713          	sll	x14,x14,0x9
    fe50:	0177d693          	srl	x13,x15,0x17
    fe54:	005a6a33          	or	x20,x20,x5
    fe58:	00979793          	sll	x15,x15,0x9
    fe5c:	00fa6a33          	or	x20,x20,x15
    fe60:	00771793          	sll	x15,x14,0x7
    fe64:	00d764b3          	or	x9,x14,x13
    fe68:	0207d063          	bgez	x15,fe88 <__muldf3+0x4c4>
    fe6c:	001a5793          	srl	x15,x20,0x1
    fe70:	001a7a13          	and	x20,x20,1
    fe74:	01f49713          	sll	x14,x9,0x1f
    fe78:	0147e7b3          	or	x15,x15,x20
    fe7c:	00e7ea33          	or	x20,x15,x14
    fe80:	0014d493          	srl	x9,x9,0x1
    fe84:	00088313          	mv	x6,x17
    fe88:	3ff30793          	add	x15,x6,1023
    fe8c:	12f05663          	blez	x15,ffb8 <__muldf3+0x5f4>
    fe90:	007a7713          	and	x14,x20,7
    fe94:	02070063          	beqz	x14,feb4 <__muldf3+0x4f0>
    fe98:	00fa7713          	and	x14,x20,15
    fe9c:	00400693          	li	x13,4
    fea0:	00d70a63          	beq	x14,x13,feb4 <__muldf3+0x4f0>
    fea4:	004a0713          	add	x14,x20,4
    fea8:	01473a33          	sltu	x20,x14,x20
    feac:	014484b3          	add	x9,x9,x20
    feb0:	00070a13          	mv	x20,x14
    feb4:	00749713          	sll	x14,x9,0x7
    feb8:	00075a63          	bgez	x14,fecc <__muldf3+0x508>
    febc:	ff0007b7          	lui	x15,0xff000
    fec0:	fff78793          	add	x15,x15,-1 # feffffff <STACK_TOP+0xfeefffff>
    fec4:	00f4f4b3          	and	x9,x9,x15
    fec8:	40030793          	add	x15,x6,1024
    fecc:	7fe00713          	li	x14,2046
    fed0:	1cf74463          	blt	x14,x15,10098 <__muldf3+0x6d4>
    fed4:	003a5a13          	srl	x20,x20,0x3
    fed8:	01d49713          	sll	x14,x9,0x1d
    fedc:	00949693          	sll	x13,x9,0x9
    fee0:	01476733          	or	x14,x14,x20
    fee4:	00c6d693          	srl	x13,x13,0xc
    fee8:	7ff7f793          	and	x15,x15,2047
    feec:	c89ff06f          	j	fb74 <__muldf3+0x1b0>
    fef0:	00a4ea33          	or	x20,x9,x10
    fef4:	060a0863          	beqz	x20,ff64 <__muldf3+0x5a0>
    fef8:	12048e63          	beqz	x9,10034 <__muldf3+0x670>
    fefc:	00048513          	mv	x10,x9
    ff00:	4ed000ef          	jal	10bec <__clzsi2>
    ff04:	00050713          	mv	x14,x10
    ff08:	ff550693          	add	x13,x10,-11
    ff0c:	01d00793          	li	x15,29
    ff10:	ff870a13          	add	x20,x14,-8
    ff14:	40d787b3          	sub	x15,x15,x13
    ff18:	00f457b3          	srl	x15,x8,x15
    ff1c:	014496b3          	sll	x13,x9,x20
    ff20:	00d7e4b3          	or	x9,x15,x13
    ff24:	01441a33          	sll	x20,x8,x20
    ff28:	c0d00793          	li	x15,-1011
    ff2c:	40e78c33          	sub	x24,x15,x14
    ff30:	00000b13          	li	x22,0
    ff34:	00000b93          	li	x23,0
    ff38:	b09ff06f          	j	fa40 <__muldf3+0x7c>
    ff3c:	00058813          	mv	x16,x11
    ff40:	7ff00793          	li	x15,2047
    ff44:	00000693          	li	x13,0
    ff48:	00000713          	li	x14,0
    ff4c:	c29ff06f          	j	fb74 <__muldf3+0x1b0>
    ff50:	00050a13          	mv	x20,x10
    ff54:	00c00b13          	li	x22,12
    ff58:	7ff00c13          	li	x24,2047
    ff5c:	00300b93          	li	x23,3
    ff60:	ae1ff06f          	j	fa40 <__muldf3+0x7c>
    ff64:	00000493          	li	x9,0
    ff68:	00400b13          	li	x22,4
    ff6c:	00000c13          	li	x24,0
    ff70:	00100b93          	li	x23,1
    ff74:	acdff06f          	j	fa40 <__muldf3+0x7c>
    ff78:	001b6b13          	or	x22,x22,1
    ff7c:	000c0313          	mv	x6,x24
    ff80:	00000413          	li	x8,0
    ff84:	00000e13          	li	x28,0
    ff88:	00100693          	li	x13,1
    ff8c:	afdff06f          	j	fa88 <__muldf3+0xc4>
    ff90:	002b6b13          	or	x22,x22,2
    ff94:	00000413          	li	x8,0
    ff98:	00000e13          	li	x28,0
    ff9c:	00200693          	li	x13,2
    ffa0:	ae9ff06f          	j	fa88 <__muldf3+0xc4>
    ffa4:	00040493          	mv	x9,x8
    ffa8:	000e0a13          	mv	x20,x28
    ffac:	00068b93          	mv	x23,x13
    ffb0:	00098593          	mv	x11,x19
    ffb4:	b99ff06f          	j	fb4c <__muldf3+0x188>
    ffb8:	00100713          	li	x14,1
    ffbc:	10079063          	bnez	x15,100bc <__muldf3+0x6f8>
    ffc0:	41e30313          	add	x6,x6,1054
    ffc4:	006a1633          	sll	x12,x20,x6
    ffc8:	00c03633          	snez	x12,x12
    ffcc:	00649333          	sll	x6,x9,x6
    ffd0:	00ea5a33          	srl	x20,x20,x14
    ffd4:	00666633          	or	x12,x12,x6
    ffd8:	01466633          	or	x12,x12,x20
    ffdc:	00767793          	and	x15,x12,7
    ffe0:	00e4d5b3          	srl	x11,x9,x14
    ffe4:	02078063          	beqz	x15,10004 <__muldf3+0x640>
    ffe8:	00f67793          	and	x15,x12,15
    ffec:	00400713          	li	x14,4
    fff0:	00e78a63          	beq	x15,x14,10004 <__muldf3+0x640>
    fff4:	00460793          	add	x15,x12,4
    fff8:	00c7b633          	sltu	x12,x15,x12
    fffc:	00c585b3          	add	x11,x11,x12
   10000:	00078613          	mv	x12,x15
   10004:	00859513          	sll	x10,x11,0x8
   10008:	00100793          	li	x15,1
   1000c:	00000693          	li	x13,0
   10010:	00000713          	li	x14,0
   10014:	b60540e3          	bltz	x10,fb74 <__muldf3+0x1b0>
   10018:	10c0006f          	j	10124 <__muldf3+0x760>
   1001c:	00f00713          	li	x14,15
   10020:	12eb1063          	bne	x22,x14,10140 <__muldf3+0x77c>
   10024:	00000813          	li	x16,0
   10028:	000806b7          	lui	x13,0x80
   1002c:	00000713          	li	x14,0
   10030:	b45ff06f          	j	fb74 <__muldf3+0x1b0>
   10034:	3b9000ef          	jal	10bec <__clzsi2>
   10038:	01550693          	add	x13,x10,21
   1003c:	01c00793          	li	x15,28
   10040:	02050713          	add	x14,x10,32
   10044:	ecd7d4e3          	bge	x15,x13,ff0c <__muldf3+0x548>
   10048:	ff850513          	add	x10,x10,-8
   1004c:	00000a13          	li	x20,0
   10050:	00a414b3          	sll	x9,x8,x10
   10054:	ed5ff06f          	j	ff28 <__muldf3+0x564>
   10058:	000a8513          	mv	x10,x21
   1005c:	391000ef          	jal	10bec <__clzsi2>
   10060:	01550713          	add	x14,x10,21
   10064:	01c00793          	li	x15,28
   10068:	02050313          	add	x6,x10,32
   1006c:	aae7d4e3          	bge	x15,x14,fb14 <__muldf3+0x150>
   10070:	ff850513          	add	x10,x10,-8
   10074:	00000e13          	li	x28,0
   10078:	00aa9433          	sll	x8,x21,x10
   1007c:	ab5ff06f          	j	fb30 <__muldf3+0x16c>
   10080:	00000813          	li	x16,0
   10084:	7ff00793          	li	x15,2047
   10088:	000806b7          	lui	x13,0x80
   1008c:	ae9ff06f          	j	fb74 <__muldf3+0x1b0>
   10090:	00088313          	mv	x6,x17
   10094:	df5ff06f          	j	fe88 <__muldf3+0x4c4>
   10098:	7ff00793          	li	x15,2047
   1009c:	00000693          	li	x13,0
   100a0:	00000713          	li	x14,0
   100a4:	ad1ff06f          	j	fb74 <__muldf3+0x1b0>
   100a8:	00000813          	li	x16,0
   100ac:	7ff00793          	li	x15,2047
   100b0:	000806b7          	lui	x13,0x80
   100b4:	00000713          	li	x14,0
   100b8:	abdff06f          	j	fb74 <__muldf3+0x1b0>
   100bc:	40f70733          	sub	x14,x14,x15
   100c0:	03800693          	li	x13,56
   100c4:	aae6c2e3          	blt	x13,x14,fb68 <__muldf3+0x1a4>
   100c8:	01f00693          	li	x13,31
   100cc:	eee6dae3          	bge	x13,x14,ffc0 <__muldf3+0x5fc>
   100d0:	fe100693          	li	x13,-31
   100d4:	40f687b3          	sub	x15,x13,x15
   100d8:	02000693          	li	x13,32
   100dc:	00f4d7b3          	srl	x15,x9,x15
   100e0:	00d70863          	beq	x14,x13,100f0 <__muldf3+0x72c>
   100e4:	43e30313          	add	x6,x6,1086
   100e8:	00649333          	sll	x6,x9,x6
   100ec:	006a6a33          	or	x20,x20,x6
   100f0:	01403633          	snez	x12,x20
   100f4:	00f66633          	or	x12,x12,x15
   100f8:	00767713          	and	x14,x12,7
   100fc:	00000693          	li	x13,0
   10100:	02070863          	beqz	x14,10130 <__muldf3+0x76c>
   10104:	00f67793          	and	x15,x12,15
   10108:	00400713          	li	x14,4
   1010c:	00000593          	li	x11,0
   10110:	00e78a63          	beq	x15,x14,10124 <__muldf3+0x760>
   10114:	00460793          	add	x15,x12,4
   10118:	00c7b633          	sltu	x12,x15,x12
   1011c:	00c035b3          	snez	x11,x12
   10120:	00078613          	mv	x12,x15
   10124:	00959693          	sll	x13,x11,0x9
   10128:	01d59713          	sll	x14,x11,0x1d
   1012c:	00c6d693          	srl	x13,x13,0xc
   10130:	00365613          	srl	x12,x12,0x3
   10134:	00e66733          	or	x14,x12,x14
   10138:	00000793          	li	x15,0
   1013c:	a39ff06f          	j	fb74 <__muldf3+0x1b0>
   10140:	00040493          	mv	x9,x8
   10144:	000a8a13          	mv	x20,x21
   10148:	00300b93          	li	x23,3
   1014c:	00098593          	mv	x11,x19
   10150:	9fdff06f          	j	fb4c <__muldf3+0x188>

Disassembly of section .text.__subdf3:

00010154 <__subdf3>:
   10154:	001007b7          	lui	x15,0x100
   10158:	fff78793          	add	x15,x15,-1 # fffff <_ebss+0xe310f>
   1015c:	fe010113          	add	x2,x2,-32
   10160:	00b7f8b3          	and	x17,x15,x11
   10164:	00d7f833          	and	x16,x15,x13
   10168:	0146d793          	srl	x15,x13,0x14
   1016c:	00389893          	sll	x17,x17,0x3
   10170:	00812c23          	sw	x8,24(x2)
   10174:	01312623          	sw	x19,12(x2)
   10178:	01f5d413          	srl	x8,x11,0x1f
   1017c:	0145d993          	srl	x19,x11,0x14
   10180:	01d55713          	srl	x14,x10,0x1d
   10184:	00381813          	sll	x16,x16,0x3
   10188:	01d65593          	srl	x11,x12,0x1d
   1018c:	00112e23          	sw	x1,28(x2)
   10190:	00912a23          	sw	x9,20(x2)
   10194:	01212823          	sw	x18,16(x2)
   10198:	7ff7ff13          	and	x30,x15,2047
   1019c:	7ff00313          	li	x6,2047
   101a0:	01176733          	or	x14,x14,x17
   101a4:	7ff9f993          	and	x19,x19,2047
   101a8:	00040e13          	mv	x28,x8
   101ac:	00351893          	sll	x17,x10,0x3
   101b0:	01f6d693          	srl	x13,x13,0x1f
   101b4:	0105e5b3          	or	x11,x11,x16
   101b8:	00361e93          	sll	x29,x12,0x3
   101bc:	206f0c63          	beq	x30,x6,103d4 <__subdf3+0x280>
   101c0:	0016c693          	xor	x13,x13,1
   101c4:	41e987b3          	sub	x15,x19,x30
   101c8:	16d40263          	beq	x8,x13,1032c <__subdf3+0x1d8>
   101cc:	00f05ae3          	blez	x15,109e0 <__subdf3+0x88c>
   101d0:	240f0a63          	beqz	x30,10424 <__subdf3+0x2d0>
   101d4:	3c698463          	beq	x19,x6,1059c <__subdf3+0x448>
   101d8:	03800693          	li	x13,56
   101dc:	00100513          	li	x10,1
   101e0:	02f6ce63          	blt	x13,x15,1021c <__subdf3+0xc8>
   101e4:	008006b7          	lui	x13,0x800
   101e8:	00d5e5b3          	or	x11,x11,x13
   101ec:	01f00693          	li	x13,31
   101f0:	4ef6c463          	blt	x13,x15,106d8 <__subdf3+0x584>
   101f4:	02000693          	li	x13,32
   101f8:	40f686b3          	sub	x13,x13,x15
   101fc:	00d59533          	sll	x10,x11,x13
   10200:	00fed633          	srl	x12,x29,x15
   10204:	00de96b3          	sll	x13,x29,x13
   10208:	00c56533          	or	x10,x10,x12
   1020c:	00d036b3          	snez	x13,x13
   10210:	00f5d7b3          	srl	x15,x11,x15
   10214:	00d56533          	or	x10,x10,x13
   10218:	40f70733          	sub	x14,x14,x15
   1021c:	40a88533          	sub	x10,x17,x10
   10220:	00a8b633          	sltu	x12,x17,x10
   10224:	00050493          	mv	x9,x10
   10228:	40c70933          	sub	x18,x14,x12
   1022c:	00891793          	sll	x15,x18,0x8
   10230:	3407d863          	bgez	x15,10580 <__subdf3+0x42c>
   10234:	008007b7          	lui	x15,0x800
   10238:	fff78793          	add	x15,x15,-1 # 7fffff <STACK_TOP+0x6fffff>
   1023c:	00f97933          	and	x18,x18,x15
   10240:	2e090663          	beqz	x18,1052c <__subdf3+0x3d8>
   10244:	00090513          	mv	x10,x18
   10248:	1a5000ef          	jal	10bec <__clzsi2>
   1024c:	ff850793          	add	x15,x10,-8
   10250:	02000693          	li	x13,32
   10254:	40f68733          	sub	x14,x13,x15
   10258:	00e4d733          	srl	x14,x9,x14
   1025c:	00f91933          	sll	x18,x18,x15
   10260:	01276733          	or	x14,x14,x18
   10264:	00f494b3          	sll	x9,x9,x15
   10268:	3f37c463          	blt	x15,x19,10650 <__subdf3+0x4fc>
   1026c:	413787b3          	sub	x15,x15,x19
   10270:	00178793          	add	x15,x15,1
   10274:	40f686b3          	sub	x13,x13,x15
   10278:	00d49633          	sll	x12,x9,x13
   1027c:	00f4d933          	srl	x18,x9,x15
   10280:	00c03633          	snez	x12,x12
   10284:	00c96633          	or	x12,x18,x12
   10288:	00d716b3          	sll	x13,x14,x13
   1028c:	00c6e4b3          	or	x9,x13,x12
   10290:	00f75933          	srl	x18,x14,x15
   10294:	00000993          	li	x19,0
   10298:	0074f793          	and	x15,x9,7
   1029c:	02078063          	beqz	x15,102bc <__subdf3+0x168>
   102a0:	00f4f793          	and	x15,x9,15
   102a4:	00400713          	li	x14,4
   102a8:	00e78a63          	beq	x15,x14,102bc <__subdf3+0x168>
   102ac:	00448793          	add	x15,x9,4
   102b0:	0097b533          	sltu	x10,x15,x9
   102b4:	00a90933          	add	x18,x18,x10
   102b8:	00078493          	mv	x9,x15
   102bc:	00891793          	sll	x15,x18,0x8
   102c0:	6c07d063          	bgez	x15,10980 <__subdf3+0x82c>
   102c4:	00198793          	add	x15,x19,1
   102c8:	7ff00713          	li	x14,2047
   102cc:	24e78663          	beq	x15,x14,10518 <__subdf3+0x3c4>
   102d0:	ff800737          	lui	x14,0xff800
   102d4:	fff70713          	add	x14,x14,-1 # ff7fffff <STACK_TOP+0xff6fffff>
   102d8:	00e97733          	and	x14,x18,x14
   102dc:	7ff7f793          	and	x15,x15,2047
   102e0:	01d71813          	sll	x16,x14,0x1d
   102e4:	0034d513          	srl	x10,x9,0x3
   102e8:	00971713          	sll	x14,x14,0x9
   102ec:	00a86833          	or	x16,x16,x10
   102f0:	00c75713          	srl	x14,x14,0xc
   102f4:	00147e13          	and	x28,x8,1
   102f8:	01c12083          	lw	x1,28(x2)
   102fc:	01812403          	lw	x8,24(x2)
   10300:	01479793          	sll	x15,x15,0x14
   10304:	00e7e7b3          	or	x15,x15,x14
   10308:	01fe1713          	sll	x14,x28,0x1f
   1030c:	00e7e7b3          	or	x15,x15,x14
   10310:	01412483          	lw	x9,20(x2)
   10314:	01012903          	lw	x18,16(x2)
   10318:	00c12983          	lw	x19,12(x2)
   1031c:	00080513          	mv	x10,x16
   10320:	00078593          	mv	x11,x15
   10324:	02010113          	add	x2,x2,32
   10328:	00008067          	ret
   1032c:	70f05263          	blez	x15,10a30 <__subdf3+0x8dc>
   10330:	1c0f1663          	bnez	x30,104fc <__subdf3+0x3a8>
   10334:	01d5e6b3          	or	x13,x11,x29
   10338:	26068e63          	beqz	x13,105b4 <__subdf3+0x460>
   1033c:	fff78693          	add	x13,x15,-1
   10340:	46068863          	beqz	x13,107b0 <__subdf3+0x65c>
   10344:	24678c63          	beq	x15,x6,1059c <__subdf3+0x448>
   10348:	03800793          	li	x15,56
   1034c:	00100913          	li	x18,1
   10350:	02d7cc63          	blt	x15,x13,10388 <__subdf3+0x234>
   10354:	00068793          	mv	x15,x13
   10358:	01f00693          	li	x13,31
   1035c:	48f6ca63          	blt	x13,x15,107f0 <__subdf3+0x69c>
   10360:	02000693          	li	x13,32
   10364:	40f686b3          	sub	x13,x13,x15
   10368:	00d59933          	sll	x18,x11,x13
   1036c:	00fed633          	srl	x12,x29,x15
   10370:	00de96b3          	sll	x13,x29,x13
   10374:	00c96933          	or	x18,x18,x12
   10378:	00d036b3          	snez	x13,x13
   1037c:	00f5d7b3          	srl	x15,x11,x15
   10380:	00d96933          	or	x18,x18,x13
   10384:	00f70733          	add	x14,x14,x15
   10388:	01190633          	add	x12,x18,x17
   1038c:	01263933          	sltu	x18,x12,x18
   10390:	00060493          	mv	x9,x12
   10394:	00e90933          	add	x18,x18,x14
   10398:	00891793          	sll	x15,x18,0x8
   1039c:	1e07d263          	bgez	x15,10580 <__subdf3+0x42c>
   103a0:	00198993          	add	x19,x19,1
   103a4:	7ff00793          	li	x15,2047
   103a8:	16f98863          	beq	x19,x15,10518 <__subdf3+0x3c4>
   103ac:	ff8007b7          	lui	x15,0xff800
   103b0:	fff78793          	add	x15,x15,-1 # ff7fffff <STACK_TOP+0xff6fffff>
   103b4:	0014f513          	and	x10,x9,1
   103b8:	00f977b3          	and	x15,x18,x15
   103bc:	0014d713          	srl	x14,x9,0x1
   103c0:	00a76733          	or	x14,x14,x10
   103c4:	01f79513          	sll	x10,x15,0x1f
   103c8:	00e564b3          	or	x9,x10,x14
   103cc:	0017d913          	srl	x18,x15,0x1
   103d0:	ec9ff06f          	j	10298 <__subdf3+0x144>
   103d4:	01d5e833          	or	x16,x11,x29
   103d8:	80198313          	add	x6,x19,-2047
   103dc:	06080863          	beqz	x16,1044c <__subdf3+0x2f8>
   103e0:	06d40a63          	beq	x8,x13,10454 <__subdf3+0x300>
   103e4:	0e030463          	beqz	x6,104cc <__subdf3+0x378>
   103e8:	26098e63          	beqz	x19,10664 <__subdf3+0x510>
   103ec:	00361513          	sll	x10,x12,0x3
   103f0:	00355513          	srl	x10,x10,0x3
   103f4:	00068413          	mv	x8,x13
   103f8:	00058713          	mv	x14,x11
   103fc:	01d71813          	sll	x16,x14,0x1d
   10400:	00a86833          	or	x16,x16,x10
   10404:	00375713          	srl	x14,x14,0x3
   10408:	01076733          	or	x14,x14,x16
   1040c:	10070663          	beqz	x14,10518 <__subdf3+0x3c4>
   10410:	00000e13          	li	x28,0
   10414:	7ff00793          	li	x15,2047
   10418:	00080737          	lui	x14,0x80
   1041c:	00000813          	li	x16,0
   10420:	ed9ff06f          	j	102f8 <__subdf3+0x1a4>
   10424:	01d5e6b3          	or	x13,x11,x29
   10428:	18068663          	beqz	x13,105b4 <__subdf3+0x460>
   1042c:	fff78693          	add	x13,x15,-1
   10430:	3a068263          	beqz	x13,107d4 <__subdf3+0x680>
   10434:	16678463          	beq	x15,x6,1059c <__subdf3+0x448>
   10438:	03800793          	li	x15,56
   1043c:	00100513          	li	x10,1
   10440:	dcd7cee3          	blt	x15,x13,1021c <__subdf3+0xc8>
   10444:	00068793          	mv	x15,x13
   10448:	da5ff06f          	j	101ec <__subdf3+0x98>
   1044c:	0016c693          	xor	x13,x13,1
   10450:	f8d41ae3          	bne	x8,x13,103e4 <__subdf3+0x290>
   10454:	18030863          	beqz	x6,105e4 <__subdf3+0x490>
   10458:	2c099063          	bnez	x19,10718 <__subdf3+0x5c4>
   1045c:	7ff00793          	li	x15,2047
   10460:	011766b3          	or	x13,x14,x17
   10464:	48068863          	beqz	x13,108f4 <__subdf3+0x7a0>
   10468:	fff78693          	add	x13,x15,-1
   1046c:	34068263          	beqz	x13,107b0 <__subdf3+0x65c>
   10470:	7ff00513          	li	x10,2047
   10474:	2aa78263          	beq	x15,x10,10718 <__subdf3+0x5c4>
   10478:	03800793          	li	x15,56
   1047c:	00100913          	li	x18,1
   10480:	02d7ca63          	blt	x15,x13,104b4 <__subdf3+0x360>
   10484:	01f00793          	li	x15,31
   10488:	4cd7c663          	blt	x15,x13,10954 <__subdf3+0x800>
   1048c:	02000793          	li	x15,32
   10490:	40d787b3          	sub	x15,x15,x13
   10494:	00f71933          	sll	x18,x14,x15
   10498:	00d8d633          	srl	x12,x17,x13
   1049c:	00f897b3          	sll	x15,x17,x15
   104a0:	00c96933          	or	x18,x18,x12
   104a4:	00f037b3          	snez	x15,x15
   104a8:	00d756b3          	srl	x13,x14,x13
   104ac:	00f96933          	or	x18,x18,x15
   104b0:	00d585b3          	add	x11,x11,x13
   104b4:	01d90733          	add	x14,x18,x29
   104b8:	01273933          	sltu	x18,x14,x18
   104bc:	00070493          	mv	x9,x14
   104c0:	00b90933          	add	x18,x18,x11
   104c4:	000f0993          	mv	x19,x30
   104c8:	ed1ff06f          	j	10398 <__subdf3+0x244>
   104cc:	00198793          	add	x15,x19,1
   104d0:	7fe7f793          	and	x15,x15,2046
   104d4:	14079463          	bnez	x15,1061c <__subdf3+0x4c8>
   104d8:	01d5e833          	or	x16,x11,x29
   104dc:	011767b3          	or	x15,x14,x17
   104e0:	2a099463          	bnez	x19,10788 <__subdf3+0x634>
   104e4:	38078e63          	beqz	x15,10880 <__subdf3+0x72c>
   104e8:	3c081063          	bnez	x16,108a8 <__subdf3+0x754>
   104ec:	00351513          	sll	x10,x10,0x3
   104f0:	00355913          	srl	x18,x10,0x3
   104f4:	00000793          	li	x15,0
   104f8:	1140006f          	j	1060c <__subdf3+0x4b8>
   104fc:	0a698063          	beq	x19,x6,1059c <__subdf3+0x448>
   10500:	03800693          	li	x13,56
   10504:	00100913          	li	x18,1
   10508:	e8f6c0e3          	blt	x13,x15,10388 <__subdf3+0x234>
   1050c:	008006b7          	lui	x13,0x800
   10510:	00d5e5b3          	or	x11,x11,x13
   10514:	e45ff06f          	j	10358 <__subdf3+0x204>
   10518:	00147e13          	and	x28,x8,1
   1051c:	7ff00793          	li	x15,2047
   10520:	00000713          	li	x14,0
   10524:	00000813          	li	x16,0
   10528:	dd1ff06f          	j	102f8 <__subdf3+0x1a4>
   1052c:	00048513          	mv	x10,x9
   10530:	6bc000ef          	jal	10bec <__clzsi2>
   10534:	01850793          	add	x15,x10,24
   10538:	01f00693          	li	x13,31
   1053c:	d0f6dae3          	bge	x13,x15,10250 <__subdf3+0xfc>
   10540:	ff850713          	add	x14,x10,-8
   10544:	00e49733          	sll	x14,x9,x14
   10548:	1b37ce63          	blt	x15,x19,10704 <__subdf3+0x5b0>
   1054c:	413789b3          	sub	x19,x15,x19
   10550:	00198793          	add	x15,x19,1
   10554:	42f6de63          	bge	x13,x15,10990 <__subdf3+0x83c>
   10558:	fe198993          	add	x19,x19,-31
   1055c:	02000693          	li	x13,32
   10560:	013754b3          	srl	x9,x14,x19
   10564:	00d78c63          	beq	x15,x13,1057c <__subdf3+0x428>
   10568:	04000693          	li	x13,64
   1056c:	40f687b3          	sub	x15,x13,x15
   10570:	00f71733          	sll	x14,x14,x15
   10574:	00e03733          	snez	x14,x14
   10578:	00e4e4b3          	or	x9,x9,x14
   1057c:	00000993          	li	x19,0
   10580:	0074f793          	and	x15,x9,7
   10584:	d0079ee3          	bnez	x15,102a0 <__subdf3+0x14c>
   10588:	00098793          	mv	x15,x19
   1058c:	0034d513          	srl	x10,x9,0x3
   10590:	00090713          	mv	x14,x18
   10594:	0280006f          	j	105bc <__subdf3+0x468>
   10598:	e6081ce3          	bnez	x16,10410 <__subdf3+0x2bc>
   1059c:	00351513          	sll	x10,x10,0x3
   105a0:	01d71813          	sll	x16,x14,0x1d
   105a4:	00355513          	srl	x10,x10,0x3
   105a8:	00a86833          	or	x16,x16,x10
   105ac:	00375713          	srl	x14,x14,0x3
   105b0:	e59ff06f          	j	10408 <__subdf3+0x2b4>
   105b4:	00351513          	sll	x10,x10,0x3
   105b8:	00355513          	srl	x10,x10,0x3
   105bc:	01d71813          	sll	x16,x14,0x1d
   105c0:	7ff00693          	li	x13,2047
   105c4:	00a86833          	or	x16,x16,x10
   105c8:	00375713          	srl	x14,x14,0x3
   105cc:	e2d78ee3          	beq	x15,x13,10408 <__subdf3+0x2b4>
   105d0:	00c71713          	sll	x14,x14,0xc
   105d4:	00c75713          	srl	x14,x14,0xc
   105d8:	7ff7f793          	and	x15,x15,2047
   105dc:	00147e13          	and	x28,x8,1
   105e0:	d19ff06f          	j	102f8 <__subdf3+0x1a4>
   105e4:	00198693          	add	x13,x19,1
   105e8:	7fe6f793          	and	x15,x13,2046
   105ec:	12079e63          	bnez	x15,10728 <__subdf3+0x5d4>
   105f0:	011767b3          	or	x15,x14,x17
   105f4:	24099a63          	bnez	x19,10848 <__subdf3+0x6f4>
   105f8:	30078663          	beqz	x15,10904 <__subdf3+0x7b0>
   105fc:	01d5e7b3          	or	x15,x11,x29
   10600:	30079a63          	bnez	x15,10914 <__subdf3+0x7c0>
   10604:	00351513          	sll	x10,x10,0x3
   10608:	00355913          	srl	x18,x10,0x3
   1060c:	01d71813          	sll	x16,x14,0x1d
   10610:	01286833          	or	x16,x16,x18
   10614:	00375713          	srl	x14,x14,0x3
   10618:	fb9ff06f          	j	105d0 <__subdf3+0x47c>
   1061c:	41d88833          	sub	x16,x17,x29
   10620:	0108b7b3          	sltu	x15,x17,x16
   10624:	40b70933          	sub	x18,x14,x11
   10628:	40f90933          	sub	x18,x18,x15
   1062c:	00891793          	sll	x15,x18,0x8
   10630:	00080493          	mv	x9,x16
   10634:	1207c263          	bltz	x15,10758 <__subdf3+0x604>
   10638:	01286833          	or	x16,x16,x18
   1063c:	c00812e3          	bnez	x16,10240 <__subdf3+0xec>
   10640:	00000e13          	li	x28,0
   10644:	00000793          	li	x15,0
   10648:	00000713          	li	x14,0
   1064c:	cadff06f          	j	102f8 <__subdf3+0x1a4>
   10650:	ff800937          	lui	x18,0xff800
   10654:	fff90913          	add	x18,x18,-1 # ff7fffff <STACK_TOP+0xff6fffff>
   10658:	40f989b3          	sub	x19,x19,x15
   1065c:	01277933          	and	x18,x14,x18
   10660:	c39ff06f          	j	10298 <__subdf3+0x144>
   10664:	7ff00793          	li	x15,2047
   10668:	01176533          	or	x10,x14,x17
   1066c:	10050463          	beqz	x10,10774 <__subdf3+0x620>
   10670:	fff78813          	add	x16,x15,-1
   10674:	1e080263          	beqz	x16,10858 <__subdf3+0x704>
   10678:	7ff00513          	li	x10,2047
   1067c:	d6a788e3          	beq	x15,x10,103ec <__subdf3+0x298>
   10680:	03800793          	li	x15,56
   10684:	00068413          	mv	x8,x13
   10688:	00100513          	li	x10,1
   1068c:	0307ca63          	blt	x15,x16,106c0 <__subdf3+0x56c>
   10690:	01f00793          	li	x15,31
   10694:	1907c463          	blt	x15,x16,1081c <__subdf3+0x6c8>
   10698:	02000793          	li	x15,32
   1069c:	410787b3          	sub	x15,x15,x16
   106a0:	00f71533          	sll	x10,x14,x15
   106a4:	0108d6b3          	srl	x13,x17,x16
   106a8:	00f897b3          	sll	x15,x17,x15
   106ac:	00d56533          	or	x10,x10,x13
   106b0:	00f037b3          	snez	x15,x15
   106b4:	01075833          	srl	x16,x14,x16
   106b8:	00f56533          	or	x10,x10,x15
   106bc:	410585b3          	sub	x11,x11,x16
   106c0:	40ae8533          	sub	x10,x29,x10
   106c4:	00aeb733          	sltu	x14,x29,x10
   106c8:	00050493          	mv	x9,x10
   106cc:	40e58933          	sub	x18,x11,x14
   106d0:	000f0993          	mv	x19,x30
   106d4:	b59ff06f          	j	1022c <__subdf3+0xd8>
   106d8:	fe078693          	add	x13,x15,-32
   106dc:	02000613          	li	x12,32
   106e0:	00d5d6b3          	srl	x13,x11,x13
   106e4:	00c78a63          	beq	x15,x12,106f8 <__subdf3+0x5a4>
   106e8:	04000613          	li	x12,64
   106ec:	40f607b3          	sub	x15,x12,x15
   106f0:	00f597b3          	sll	x15,x11,x15
   106f4:	00feeeb3          	or	x29,x29,x15
   106f8:	01d03533          	snez	x10,x29
   106fc:	00d56533          	or	x10,x10,x13
   10700:	b1dff06f          	j	1021c <__subdf3+0xc8>
   10704:	ff8006b7          	lui	x13,0xff800
   10708:	fff68693          	add	x13,x13,-1 # ff7fffff <STACK_TOP+0xff6fffff>
   1070c:	40f987b3          	sub	x15,x19,x15
   10710:	00d77733          	and	x14,x14,x13
   10714:	ef9ff06f          	j	1060c <__subdf3+0x4b8>
   10718:	00361513          	sll	x10,x12,0x3
   1071c:	00355513          	srl	x10,x10,0x3
   10720:	00058713          	mv	x14,x11
   10724:	cd9ff06f          	j	103fc <__subdf3+0x2a8>
   10728:	7ff00793          	li	x15,2047
   1072c:	def686e3          	beq	x13,x15,10518 <__subdf3+0x3c4>
   10730:	01d88eb3          	add	x29,x17,x29
   10734:	011eb633          	sltu	x12,x29,x17
   10738:	00b707b3          	add	x15,x14,x11
   1073c:	00c787b3          	add	x15,x15,x12
   10740:	01f79513          	sll	x10,x15,0x1f
   10744:	001ede93          	srl	x29,x29,0x1
   10748:	01d564b3          	or	x9,x10,x29
   1074c:	0017d913          	srl	x18,x15,0x1
   10750:	00068993          	mv	x19,x13
   10754:	b45ff06f          	j	10298 <__subdf3+0x144>
   10758:	411e8633          	sub	x12,x29,x17
   1075c:	40e587b3          	sub	x15,x11,x14
   10760:	00ceb733          	sltu	x14,x29,x12
   10764:	00060493          	mv	x9,x12
   10768:	40e78933          	sub	x18,x15,x14
   1076c:	00068413          	mv	x8,x13
   10770:	ad1ff06f          	j	10240 <__subdf3+0xec>
   10774:	00361613          	sll	x12,x12,0x3
   10778:	00365513          	srl	x10,x12,0x3
   1077c:	00068413          	mv	x8,x13
   10780:	00058713          	mv	x14,x11
   10784:	e39ff06f          	j	105bc <__subdf3+0x468>
   10788:	e00798e3          	bnez	x15,10598 <__subdf3+0x444>
   1078c:	22080663          	beqz	x16,109b8 <__subdf3+0x864>
   10790:	0035d713          	srl	x14,x11,0x3
   10794:	00361613          	sll	x12,x12,0x3
   10798:	01d59593          	sll	x11,x11,0x1d
   1079c:	00b76733          	or	x14,x14,x11
   107a0:	00365613          	srl	x12,x12,0x3
   107a4:	00c76733          	or	x14,x14,x12
   107a8:	00068413          	mv	x8,x13
   107ac:	c61ff06f          	j	1040c <__subdf3+0x2b8>
   107b0:	01d88eb3          	add	x29,x17,x29
   107b4:	00b705b3          	add	x11,x14,x11
   107b8:	011eb633          	sltu	x12,x29,x17
   107bc:	00c58933          	add	x18,x11,x12
   107c0:	00891793          	sll	x15,x18,0x8
   107c4:	000e8493          	mv	x9,x29
   107c8:	0a07d863          	bgez	x15,10878 <__subdf3+0x724>
   107cc:	00200993          	li	x19,2
   107d0:	bddff06f          	j	103ac <__subdf3+0x258>
   107d4:	41d88eb3          	sub	x29,x17,x29
   107d8:	40b705b3          	sub	x11,x14,x11
   107dc:	01d8b633          	sltu	x12,x17,x29
   107e0:	000e8493          	mv	x9,x29
   107e4:	40c58933          	sub	x18,x11,x12
   107e8:	00100993          	li	x19,1
   107ec:	a41ff06f          	j	1022c <__subdf3+0xd8>
   107f0:	fe078693          	add	x13,x15,-32
   107f4:	02000613          	li	x12,32
   107f8:	00d5d6b3          	srl	x13,x11,x13
   107fc:	00c78a63          	beq	x15,x12,10810 <__subdf3+0x6bc>
   10800:	04000613          	li	x12,64
   10804:	40f607b3          	sub	x15,x12,x15
   10808:	00f597b3          	sll	x15,x11,x15
   1080c:	00feeeb3          	or	x29,x29,x15
   10810:	01d03933          	snez	x18,x29
   10814:	00d96933          	or	x18,x18,x13
   10818:	b71ff06f          	j	10388 <__subdf3+0x234>
   1081c:	fe080793          	add	x15,x16,-32
   10820:	02000693          	li	x13,32
   10824:	00f757b3          	srl	x15,x14,x15
   10828:	00d80a63          	beq	x16,x13,1083c <__subdf3+0x6e8>
   1082c:	04000693          	li	x13,64
   10830:	410686b3          	sub	x13,x13,x16
   10834:	00d71733          	sll	x14,x14,x13
   10838:	00e8e8b3          	or	x17,x17,x14
   1083c:	01103533          	snez	x10,x17
   10840:	00f56533          	or	x10,x10,x15
   10844:	e7dff06f          	j	106c0 <__subdf3+0x56c>
   10848:	ec0788e3          	beqz	x15,10718 <__subdf3+0x5c4>
   1084c:	01d5eeb3          	or	x29,x11,x29
   10850:	bc0e90e3          	bnez	x29,10410 <__subdf3+0x2bc>
   10854:	d49ff06f          	j	1059c <__subdf3+0x448>
   10858:	411e8633          	sub	x12,x29,x17
   1085c:	40e585b3          	sub	x11,x11,x14
   10860:	00ceb733          	sltu	x14,x29,x12
   10864:	00060493          	mv	x9,x12
   10868:	40e58933          	sub	x18,x11,x14
   1086c:	00068413          	mv	x8,x13
   10870:	00100993          	li	x19,1
   10874:	9b9ff06f          	j	1022c <__subdf3+0xd8>
   10878:	00100793          	li	x15,1
   1087c:	d11ff06f          	j	1058c <__subdf3+0x438>
   10880:	dc0800e3          	beqz	x16,10640 <__subdf3+0x4ec>
   10884:	00361613          	sll	x12,x12,0x3
   10888:	00365793          	srl	x15,x12,0x3
   1088c:	01d59813          	sll	x16,x11,0x1d
   10890:	00959713          	sll	x14,x11,0x9
   10894:	00f86833          	or	x16,x16,x15
   10898:	00c75713          	srl	x14,x14,0xc
   1089c:	00068e13          	mv	x28,x13
   108a0:	00000793          	li	x15,0
   108a4:	a55ff06f          	j	102f8 <__subdf3+0x1a4>
   108a8:	41d88933          	sub	x18,x17,x29
   108ac:	0128b7b3          	sltu	x15,x17,x18
   108b0:	40b70633          	sub	x12,x14,x11
   108b4:	40f60633          	sub	x12,x12,x15
   108b8:	00861793          	sll	x15,x12,0x8
   108bc:	0e07d263          	bgez	x15,109a0 <__subdf3+0x84c>
   108c0:	411e8633          	sub	x12,x29,x17
   108c4:	40e58733          	sub	x14,x11,x14
   108c8:	00cebeb3          	sltu	x29,x29,x12
   108cc:	41d70733          	sub	x14,x14,x29
   108d0:	00871793          	sll	x15,x14,0x8
   108d4:	00060493          	mv	x9,x12
   108d8:	1207de63          	bgez	x15,10a14 <__subdf3+0x8c0>
   108dc:	ff8007b7          	lui	x15,0xff800
   108e0:	fff78793          	add	x15,x15,-1 # ff7fffff <STACK_TOP+0xff6fffff>
   108e4:	00f77733          	and	x14,x14,x15
   108e8:	00068413          	mv	x8,x13
   108ec:	00100793          	li	x15,1
   108f0:	9f1ff06f          	j	102e0 <__subdf3+0x18c>
   108f4:	00361613          	sll	x12,x12,0x3
   108f8:	00365513          	srl	x10,x12,0x3
   108fc:	00058713          	mv	x14,x11
   10900:	cbdff06f          	j	105bc <__subdf3+0x468>
   10904:	00361613          	sll	x12,x12,0x3
   10908:	00365913          	srl	x18,x12,0x3
   1090c:	00058713          	mv	x14,x11
   10910:	cfdff06f          	j	1060c <__subdf3+0x4b8>
   10914:	01d886b3          	add	x13,x17,x29
   10918:	00b707b3          	add	x15,x14,x11
   1091c:	0116b633          	sltu	x12,x13,x17
   10920:	00c787b3          	add	x15,x15,x12
   10924:	00879713          	sll	x14,x15,0x8
   10928:	0036d813          	srl	x16,x13,0x3
   1092c:	08075e63          	bgez	x14,109c8 <__subdf3+0x874>
   10930:	ff800737          	lui	x14,0xff800
   10934:	fff70713          	add	x14,x14,-1 # ff7fffff <STACK_TOP+0xff6fffff>
   10938:	00e7f7b3          	and	x15,x15,x14
   1093c:	01d79713          	sll	x14,x15,0x1d
   10940:	00979793          	sll	x15,x15,0x9
   10944:	01076833          	or	x16,x14,x16
   10948:	00c7d713          	srl	x14,x15,0xc
   1094c:	00100793          	li	x15,1
   10950:	9a9ff06f          	j	102f8 <__subdf3+0x1a4>
   10954:	fe068793          	add	x15,x13,-32
   10958:	02000613          	li	x12,32
   1095c:	00f757b3          	srl	x15,x14,x15
   10960:	00c68a63          	beq	x13,x12,10974 <__subdf3+0x820>
   10964:	04000613          	li	x12,64
   10968:	40d606b3          	sub	x13,x12,x13
   1096c:	00d71733          	sll	x14,x14,x13
   10970:	00e8e8b3          	or	x17,x17,x14
   10974:	01103933          	snez	x18,x17
   10978:	00f96933          	or	x18,x18,x15
   1097c:	b39ff06f          	j	104b4 <__subdf3+0x360>
   10980:	0034d513          	srl	x10,x9,0x3
   10984:	00098793          	mv	x15,x19
   10988:	00090713          	mv	x14,x18
   1098c:	c31ff06f          	j	105bc <__subdf3+0x468>
   10990:	02000693          	li	x13,32
   10994:	40f686b3          	sub	x13,x13,x15
   10998:	00000613          	li	x12,0
   1099c:	8e9ff06f          	j	10284 <__subdf3+0x130>
   109a0:	00c96833          	or	x16,x18,x12
   109a4:	c8080ee3          	beqz	x16,10640 <__subdf3+0x4ec>
   109a8:	00395913          	srl	x18,x18,0x3
   109ac:	00000793          	li	x15,0
   109b0:	00060713          	mv	x14,x12
   109b4:	c59ff06f          	j	1060c <__subdf3+0x4b8>
   109b8:	00000e13          	li	x28,0
   109bc:	7ff00793          	li	x15,2047
   109c0:	00080737          	lui	x14,0x80
   109c4:	935ff06f          	j	102f8 <__subdf3+0x1a4>
   109c8:	01d79713          	sll	x14,x15,0x1d
   109cc:	00979793          	sll	x15,x15,0x9
   109d0:	01076833          	or	x16,x14,x16
   109d4:	00c7d713          	srl	x14,x15,0xc
   109d8:	00000793          	li	x15,0
   109dc:	91dff06f          	j	102f8 <__subdf3+0x1a4>
   109e0:	ae0786e3          	beqz	x15,104cc <__subdf3+0x378>
   109e4:	413f0833          	sub	x16,x30,x19
   109e8:	00080793          	mv	x15,x16
   109ec:	c6098ee3          	beqz	x19,10668 <__subdf3+0x514>
   109f0:	03800793          	li	x15,56
   109f4:	0107ca63          	blt	x15,x16,10a08 <__subdf3+0x8b4>
   109f8:	008007b7          	lui	x15,0x800
   109fc:	00f76733          	or	x14,x14,x15
   10a00:	00068413          	mv	x8,x13
   10a04:	c8dff06f          	j	10690 <__subdf3+0x53c>
   10a08:	00068413          	mv	x8,x13
   10a0c:	00100513          	li	x10,1
   10a10:	cb1ff06f          	j	106c0 <__subdf3+0x56c>
   10a14:	01d71813          	sll	x16,x14,0x1d
   10a18:	00365613          	srl	x12,x12,0x3
   10a1c:	00c86833          	or	x16,x16,x12
   10a20:	00375713          	srl	x14,x14,0x3
   10a24:	00000793          	li	x15,0
   10a28:	00068413          	mv	x8,x13
   10a2c:	ba5ff06f          	j	105d0 <__subdf3+0x47c>
   10a30:	ba078ae3          	beqz	x15,105e4 <__subdf3+0x490>
   10a34:	413f06b3          	sub	x13,x30,x19
   10a38:	00099663          	bnez	x19,10a44 <__subdf3+0x8f0>
   10a3c:	00068793          	mv	x15,x13
   10a40:	a21ff06f          	j	10460 <__subdf3+0x30c>
   10a44:	03800793          	li	x15,56
   10a48:	00100913          	li	x18,1
   10a4c:	a6d7c4e3          	blt	x15,x13,104b4 <__subdf3+0x360>
   10a50:	008007b7          	lui	x15,0x800
   10a54:	00f76733          	or	x14,x14,x15
   10a58:	a2dff06f          	j	10484 <__subdf3+0x330>

Disassembly of section .text.__unorddf2:

00010a5c <__unorddf2>:
   10a5c:	0145d713          	srl	x14,x11,0x14
   10a60:	001007b7          	lui	x15,0x100
   10a64:	fff78793          	add	x15,x15,-1 # fffff <_ebss+0xe310f>
   10a68:	fff74713          	not	x14,x14
   10a6c:	0146d813          	srl	x16,x13,0x14
   10a70:	00b7f5b3          	and	x11,x15,x11
   10a74:	00d7f7b3          	and	x15,x15,x13
   10a78:	01571693          	sll	x13,x14,0x15
   10a7c:	7ff87813          	and	x16,x16,2047
   10a80:	02068063          	beqz	x13,10aa0 <__unorddf2+0x44>
   10a84:	7ff00713          	li	x14,2047
   10a88:	00000513          	li	x10,0
   10a8c:	00e80463          	beq	x16,x14,10a94 <__unorddf2+0x38>
   10a90:	00008067          	ret
   10a94:	00c7e7b3          	or	x15,x15,x12
   10a98:	00f03533          	snez	x10,x15
   10a9c:	00008067          	ret
   10aa0:	00a5e5b3          	or	x11,x11,x10
   10aa4:	00100513          	li	x10,1
   10aa8:	fc058ee3          	beqz	x11,10a84 <__unorddf2+0x28>
   10aac:	00008067          	ret

Disassembly of section .text.__fixdfsi:

00010ab0 <__fixdfsi>:
   10ab0:	0145d793          	srl	x15,x11,0x14
   10ab4:	001006b7          	lui	x13,0x100
   10ab8:	fff68713          	add	x14,x13,-1 # fffff <_ebss+0xe310f>
   10abc:	7ff7f793          	and	x15,x15,2047
   10ac0:	3fe00613          	li	x12,1022
   10ac4:	00b77733          	and	x14,x14,x11
   10ac8:	01f5d593          	srl	x11,x11,0x1f
   10acc:	00f65e63          	bge	x12,x15,10ae8 <__fixdfsi+0x38>
   10ad0:	41d00613          	li	x12,1053
   10ad4:	00f65e63          	bge	x12,x15,10af0 <__fixdfsi+0x40>
   10ad8:	80000537          	lui	x10,0x80000
   10adc:	fff50513          	add	x10,x10,-1 # 7fffffff <STACK_TOP+0x7fefffff>
   10ae0:	00a58533          	add	x10,x11,x10
   10ae4:	00008067          	ret
   10ae8:	00000513          	li	x10,0
   10aec:	00008067          	ret
   10af0:	43300613          	li	x12,1075
   10af4:	40f60633          	sub	x12,x12,x15
   10af8:	01f00813          	li	x16,31
   10afc:	00d76733          	or	x14,x14,x13
   10b00:	02c85063          	bge	x16,x12,10b20 <__fixdfsi+0x70>
   10b04:	41300693          	li	x13,1043
   10b08:	40f687b3          	sub	x15,x13,x15
   10b0c:	00f75733          	srl	x14,x14,x15
   10b10:	40e00533          	neg	x10,x14
   10b14:	fc059ce3          	bnez	x11,10aec <__fixdfsi+0x3c>
   10b18:	00070513          	mv	x10,x14
   10b1c:	00008067          	ret
   10b20:	bed78793          	add	x15,x15,-1043
   10b24:	00f71733          	sll	x14,x14,x15
   10b28:	00c55533          	srl	x10,x10,x12
   10b2c:	00a76733          	or	x14,x14,x10
   10b30:	fe1ff06f          	j	10b10 <__fixdfsi+0x60>

Disassembly of section .text.__floatsidf:

00010b34 <__floatsidf>:
   10b34:	ff010113          	add	x2,x2,-16
   10b38:	00112623          	sw	x1,12(x2)
   10b3c:	00812423          	sw	x8,8(x2)
   10b40:	00912223          	sw	x9,4(x2)
   10b44:	04050a63          	beqz	x10,10b98 <__floatsidf+0x64>
   10b48:	41f55713          	sra	x14,x10,0x1f
   10b4c:	00a744b3          	xor	x9,x14,x10
   10b50:	40e484b3          	sub	x9,x9,x14
   10b54:	00050793          	mv	x15,x10
   10b58:	00048513          	mv	x10,x9
   10b5c:	01f7d413          	srl	x8,x15,0x1f
   10b60:	08c000ef          	jal	10bec <__clzsi2>
   10b64:	41e00793          	li	x15,1054
   10b68:	40a787b3          	sub	x15,x15,x10
   10b6c:	00a00713          	li	x14,10
   10b70:	7ff7f793          	and	x15,x15,2047
   10b74:	06a74063          	blt	x14,x10,10bd4 <__floatsidf+0xa0>
   10b78:	00b00713          	li	x14,11
   10b7c:	40a70733          	sub	x14,x14,x10
   10b80:	00e4d733          	srl	x14,x9,x14
   10b84:	01550513          	add	x10,x10,21
   10b88:	00c71713          	sll	x14,x14,0xc
   10b8c:	00a494b3          	sll	x9,x9,x10
   10b90:	00c75713          	srl	x14,x14,0xc
   10b94:	0140006f          	j	10ba8 <__floatsidf+0x74>
   10b98:	00000413          	li	x8,0
   10b9c:	00000793          	li	x15,0
   10ba0:	00000713          	li	x14,0
   10ba4:	00000493          	li	x9,0
   10ba8:	01479793          	sll	x15,x15,0x14
   10bac:	01f41413          	sll	x8,x8,0x1f
   10bb0:	00e7e7b3          	or	x15,x15,x14
   10bb4:	00c12083          	lw	x1,12(x2)
   10bb8:	0087e7b3          	or	x15,x15,x8
   10bbc:	00812403          	lw	x8,8(x2)
   10bc0:	00048513          	mv	x10,x9
   10bc4:	00078593          	mv	x11,x15
   10bc8:	00412483          	lw	x9,4(x2)
   10bcc:	01010113          	add	x2,x2,16
   10bd0:	00008067          	ret
   10bd4:	ff550513          	add	x10,x10,-11
   10bd8:	00a49733          	sll	x14,x9,x10
   10bdc:	00c71713          	sll	x14,x14,0xc
   10be0:	00c75713          	srl	x14,x14,0xc
   10be4:	00000493          	li	x9,0
   10be8:	fc1ff06f          	j	10ba8 <__floatsidf+0x74>

Disassembly of section .text.__clzsi2:

00010bec <__clzsi2>:
   10bec:	000107b7          	lui	x15,0x10
   10bf0:	02f57a63          	bgeu	x10,x15,10c24 <__clzsi2+0x38>
   10bf4:	10053793          	sltiu	x15,x10,256
   10bf8:	0017b793          	seqz	x15,x15
   10bfc:	00379793          	sll	x15,x15,0x3
   10c00:	02000713          	li	x14,32
   10c04:	40f70733          	sub	x14,x14,x15
   10c08:	00f55533          	srl	x10,x10,x15
   10c0c:	00001797          	auipc	x15,0x1
   10c10:	4f078793          	add	x15,x15,1264 # 120fc <__clz_tab>
   10c14:	00a787b3          	add	x15,x15,x10
   10c18:	0007c503          	lbu	x10,0(x15)
   10c1c:	40a70533          	sub	x10,x14,x10
   10c20:	00008067          	ret
   10c24:	010007b7          	lui	x15,0x1000
   10c28:	02f57463          	bgeu	x10,x15,10c50 <__clzsi2+0x64>
   10c2c:	01000793          	li	x15,16
   10c30:	00f55533          	srl	x10,x10,x15
   10c34:	00001797          	auipc	x15,0x1
   10c38:	4c878793          	add	x15,x15,1224 # 120fc <__clz_tab>
   10c3c:	00a787b3          	add	x15,x15,x10
   10c40:	0007c503          	lbu	x10,0(x15)
   10c44:	01000713          	li	x14,16
   10c48:	40a70533          	sub	x10,x14,x10
   10c4c:	00008067          	ret
   10c50:	01800793          	li	x15,24
   10c54:	00f55533          	srl	x10,x10,x15
   10c58:	00001797          	auipc	x15,0x1
   10c5c:	4a478793          	add	x15,x15,1188 # 120fc <__clz_tab>
   10c60:	00a787b3          	add	x15,x15,x10
   10c64:	0007c503          	lbu	x10,0(x15)
   10c68:	00800713          	li	x14,8
   10c6c:	40a70533          	sub	x10,x14,x10
   10c70:	00008067          	ret

Disassembly of section .rodata.str1.4:

00010c74 <.rodata.str1.4>:
   10c74:	656e732f          	.insn	4, 0x656e732f
   10c78:	6e617473          	.insn	4, 0x6e617473
   10c7c:	6e692e67          	.insn	4, 0x6e692e67
   10c80:	0069                	.insn	2, 0x0069
   10c82:	0000                	.insn	2, 0x
   10c84:	3d79656b          	.insn	4, 0x3d79656b
   10c88:	7325                	.insn	2, 0x7325
   10c8a:	202c                	.insn	2, 0x202c
   10c8c:	6176                	.insn	2, 0x6176
   10c8e:	756c                	.insn	2, 0x756c
   10c90:	3d65                	.insn	2, 0x3d65
   10c92:	7325                	.insn	2, 0x7325
   10c94:	0a0d                	.insn	2, 0x0a0d
   10c96:	0000                	.insn	2, 0x
   10c98:	5f64736f          	jal	x6,5828e <_ebss+0x3b39e>
   10c9c:	0079656b          	.insn	4, 0x0079656b
   10ca0:	5f64736f          	jal	x6,58296 <_ebss+0x3b3a6>
   10ca4:	3a79656b          	.insn	4, 0x3a79656b
   10ca8:	2520                	.insn	2, 0x2520
   10caa:	0d64                	.insn	2, 0x0d64
   10cac:	000a                	.insn	2, 0x000a
   10cae:	0000                	.insn	2, 0x
   10cb0:	6162                	.insn	2, 0x6162
   10cb2:	70756b63          	bltu	x10,x7,113c8 <__clzsi2+0x7dc>
   10cb6:	625f 7273 6d61      	.insn	6, 0x6d617273625f
   10cbc:	0000                	.insn	2, 0x
   10cbe:	0000                	.insn	2, 0x
   10cc0:	6162                	.insn	2, 0x6162
   10cc2:	70756b63          	bltu	x10,x7,113d8 <__clzsi2+0x7ec>
   10cc6:	625f 7273 6d61      	.insn	6, 0x6d617273625f
   10ccc:	203a                	.insn	2, 0x203a
   10cce:	6425                	.insn	2, 0x6425
   10cd0:	0a0d                	.insn	2, 0x0a0d
   10cd2:	0000                	.insn	2, 0x
   10cd4:	7274                	.insn	2, 0x7274
   10cd6:	6575                	.insn	2, 0x6575
   10cd8:	0000                	.insn	2, 0x
   10cda:	0000                	.insn	2, 0x
   10cdc:	6974706f          	j	58b72 <_ebss+0x3bc82>
   10ce0:	625f6e6f          	jal	x28,107b04 <STACK_TOP+0x7b04>
   10ce4:	6361                	.insn	2, 0x6361
   10ce6:	5f70756b          	.insn	4, 0x5f70756b
   10cea:	7362                	.insn	2, 0x7362
   10cec:	6172                	.insn	2, 0x6172
   10cee:	3a6d                	.insn	2, 0x3a6d
   10cf0:	2520                	.insn	2, 0x2520
   10cf2:	0d64                	.insn	2, 0x0d64
   10cf4:	000a                	.insn	2, 0x000a
   10cf6:	0000                	.insn	2, 0x
   10cf8:	6e65                	.insn	2, 0x6e65
   10cfa:	6168                	.insn	2, 0x6168
   10cfc:	636e                	.insn	2, 0x636e
   10cfe:	6465                	.insn	2, 0x6465
   10d00:	615f 7570 0000      	.insn	6, 0x7570615f
   10d06:	0000                	.insn	2, 0x
   10d08:	6974706f          	j	58b9e <_ebss+0x3bcae>
   10d0c:	655f6e6f          	jal	x28,107b60 <STACK_TOP+0x7b60>
   10d10:	686e                	.insn	2, 0x686e
   10d12:	6e61                	.insn	2, 0x6e61
   10d14:	5f646563          	bltu	x8,x22,112fe <__clzsi2+0x712>
   10d18:	7061                	.insn	2, 0x7061
   10d1a:	3a75                	.insn	2, 0x3a75
   10d1c:	2520                	.insn	2, 0x2520
   10d1e:	0d64                	.insn	2, 0x0d64
   10d20:	000a                	.insn	2, 0x000a
   10d22:	0000                	.insn	2, 0x
   10d24:	6572                	.insn	2, 0x6572
   10d26:	6e655f67          	.insn	4, 0x6e655f67
   10d2a:	6168                	.insn	2, 0x6168
   10d2c:	636e                	.insn	2, 0x636e
   10d2e:	6465                	.insn	2, 0x6465
   10d30:	615f 7570 203a      	.insn	6, 0x203a7570615f
   10d36:	6425                	.insn	2, 0x6425
   10d38:	0a0d                	.insn	2, 0x0a0d
   10d3a:	0000                	.insn	2, 0x
   10d3c:	61656863          	bltu	x10,x22,1134c <__clzsi2+0x760>
   10d40:	7374                	.insn	2, 0x7374
   10d42:	655f 616e 6c62      	.insn	6, 0x6c62616e655f
   10d48:	6465                	.insn	2, 0x6465
   10d4a:	0000                	.insn	2, 0x
   10d4c:	6974706f          	j	58be2 <_ebss+0x3bcf2>
   10d50:	635f6e6f          	jal	x28,107b84 <STACK_TOP+0x7b84>
   10d54:	6568                	.insn	2, 0x6568
   10d56:	7461                	.insn	2, 0x7461
   10d58:	6e655f73          	.insn	4, 0x6e655f73
   10d5c:	6261                	.insn	2, 0x6261
   10d5e:	656c                	.insn	2, 0x656c
   10d60:	3a64                	.insn	2, 0x3a64
   10d62:	2520                	.insn	2, 0x2520
   10d64:	0d64                	.insn	2, 0x0d64
   10d66:	000a                	.insn	2, 0x000a
   10d68:	6572                	.insn	2, 0x6572
   10d6a:	68635f67          	.insn	4, 0x68635f67
   10d6e:	6165                	.insn	2, 0x6165
   10d70:	7374                	.insn	2, 0x7374
   10d72:	655f 616e 6c62      	.insn	6, 0x6c62616e655f
   10d78:	6465                	.insn	2, 0x6465
   10d7a:	203a                	.insn	2, 0x203a
   10d7c:	6425                	.insn	2, 0x6425
   10d7e:	0a0d                	.insn	2, 0x0a0d
   10d80:	0000                	.insn	2, 0x
   10d82:	0000                	.insn	2, 0x
   10d84:	74737973          	.insn	4, 0x74737973
   10d88:	6d65                	.insn	2, 0x6d65
   10d8a:	0000                	.insn	2, 0x
   10d8c:	74737973          	.insn	4, 0x74737973
   10d90:	6d65                	.insn	2, 0x6d65
   10d92:	203a                	.insn	2, 0x203a
   10d94:	6425                	.insn	2, 0x6425
   10d96:	0a0d                	.insn	2, 0x0a0d
   10d98:	0000                	.insn	2, 0x
   10d9a:	0000                	.insn	2, 0x
   10d9c:	6166                	.insn	2, 0x6166
   10d9e:	736c                	.insn	2, 0x736c
   10da0:	0065                	.insn	2, 0x0065
   10da2:	0000                	.insn	2, 0x
   10da4:	6974706f          	j	58c3a <_ebss+0x3bd4a>
   10da8:	735f6e6f          	jal	x28,107cdc <STACK_TOP+0x7cdc>
   10dac:	7379                	.insn	2, 0x7379
   10dae:	745f 7079 5f65      	.insn	6, 0x5f657079745f
   10db4:	7369                	.insn	2, 0x7369
   10db6:	705f 6c61 203a      	.insn	6, 0x203a6c61705f
   10dbc:	6425                	.insn	2, 0x6425
   10dbe:	0a0d                	.insn	2, 0x0a0d
   10dc0:	0000                	.insn	2, 0x
   10dc2:	0000                	.insn	2, 0x
   10dc4:	6572                	.insn	2, 0x6572
   10dc6:	79735f67          	.insn	4, 0x79735f67
   10dca:	79745f73          	.insn	4, 0x79745f73
   10dce:	6570                	.insn	2, 0x6570
   10dd0:	203a                	.insn	2, 0x203a
   10dd2:	6425                	.insn	2, 0x6425
   10dd4:	0a0d                	.insn	2, 0x0a0d
   10dd6:	0000                	.insn	2, 0x
   10dd8:	7361                	.insn	2, 0x7361
   10dda:	6570                	.insn	2, 0x6570
   10ddc:	725f7463          	bgeu	x30,x5,11504 <__clzsi2+0x918>
   10de0:	7461                	.insn	2, 0x7461
   10de2:	6f69                	.insn	2, 0x6f69
   10de4:	0000                	.insn	2, 0x
   10de6:	0000                	.insn	2, 0x
   10de8:	0030                	.insn	2, 0x0030
   10dea:	0000                	.insn	2, 0x
   10dec:	6974706f          	j	58c82 <_ebss+0x3bd92>
   10df0:	615f6e6f          	jal	x28,107c04 <STACK_TOP+0x7c04>
   10df4:	63657073          	.insn	4, 0x63657073
   10df8:	5f74                	.insn	2, 0x5f74
   10dfa:	6172                	.insn	2, 0x6172
   10dfc:	6974                	.insn	2, 0x6974
   10dfe:	25203a6f          	jal	x20,14050 <__clz_tab+0x1f54>
   10e02:	0d64                	.insn	2, 0x0d64
   10e04:	000a                	.insn	2, 0x000a
   10e06:	0000                	.insn	2, 0x
   10e08:	6572                	.insn	2, 0x6572
   10e0a:	73615f67          	.insn	4, 0x73615f67
   10e0e:	6570                	.insn	2, 0x6570
   10e10:	725f7463          	bgeu	x30,x5,11538 <__clzsi2+0x94c>
   10e14:	7461                	.insn	2, 0x7461
   10e16:	6f69                	.insn	2, 0x6f69
   10e18:	203a                	.insn	2, 0x203a
   10e1a:	6425                	.insn	2, 0x6425
   10e1c:	0a0d                	.insn	2, 0x0a0d
   10e1e:	0000                	.insn	2, 0x
   10e20:	5f66                	.insn	2, 0x5f66
   10e22:	6e65706f          	j	68508 <_ebss+0x4b618>
   10e26:	6620                	.insn	2, 0x6620
   10e28:	6961                	.insn	2, 0x6961
   10e2a:	656c                	.insn	2, 0x656c
   10e2c:	0064                	.insn	2, 0x0064
   10e2e:	0000                	.insn	2, 0x
   10e30:	5f64736f          	jal	x6,58426 <_ebss+0x3b536>
   10e34:	3d79656b          	.insn	4, 0x3d79656b
   10e38:	0000                	.insn	2, 0x
   10e3a:	0000                	.insn	2, 0x
   10e3c:	5f66                	.insn	2, 0x5f66
   10e3e:	7570                	.insn	2, 0x7570
   10e40:	7374                	.insn	2, 0x7374
   10e42:	6620                	.insn	2, 0x6620
   10e44:	6961                	.insn	2, 0x6961
   10e46:	656c                	.insn	2, 0x656c
   10e48:	0064                	.insn	2, 0x0064
   10e4a:	0000                	.insn	2, 0x
   10e4c:	0a31                	.insn	2, 0x0a31
   10e4e:	0000                	.insn	2, 0x
   10e50:	0a32                	.insn	2, 0x0a32
   10e52:	0000                	.insn	2, 0x
   10e54:	00000a33          	add	x20,x0,x0
   10e58:	6162                	.insn	2, 0x6162
   10e5a:	70756b63          	bltu	x10,x7,11570 <__clzsi2+0x984>
   10e5e:	625f 7273 6d61      	.insn	6, 0x6d617273625f
   10e64:	003d                	.insn	2, 0x003d
   10e66:	0000                	.insn	2, 0x
   10e68:	7274                	.insn	2, 0x7274
   10e6a:	6575                	.insn	2, 0x6575
   10e6c:	000a                	.insn	2, 0x000a
   10e6e:	0000                	.insn	2, 0x
   10e70:	6166                	.insn	2, 0x6166
   10e72:	736c                	.insn	2, 0x736c
   10e74:	0a65                	.insn	2, 0x0a65
   10e76:	0000                	.insn	2, 0x
   10e78:	6e65                	.insn	2, 0x6e65
   10e7a:	6168                	.insn	2, 0x6168
   10e7c:	636e                	.insn	2, 0x636e
   10e7e:	6465                	.insn	2, 0x6465
   10e80:	615f 7570 003d      	.insn	6, 0x003d7570615f
   10e86:	0000                	.insn	2, 0x
   10e88:	61656863          	bltu	x10,x22,11498 <__clzsi2+0x8ac>
   10e8c:	7374                	.insn	2, 0x7374
   10e8e:	655f 616e 6c62      	.insn	6, 0x6c62616e655f
   10e94:	6465                	.insn	2, 0x6465
   10e96:	003d                	.insn	2, 0x003d
   10e98:	74737973          	.insn	4, 0x74737973
   10e9c:	6d65                	.insn	2, 0x6d65
   10e9e:	003d                	.insn	2, 0x003d
   10ea0:	7361                	.insn	2, 0x7361
   10ea2:	6570                	.insn	2, 0x6570
   10ea4:	725f7463          	bgeu	x30,x5,115cc <__clzsi2+0x9e0>
   10ea8:	7461                	.insn	2, 0x7461
   10eaa:	6f69                	.insn	2, 0x6f69
   10eac:	003d                	.insn	2, 0x003d
   10eae:	0000                	.insn	2, 0x
   10eb0:	6f6c                	.insn	2, 0x6f6c
   10eb2:	6461                	.insn	2, 0x6461
   10eb4:	645f 7269 203a      	.insn	6, 0x203a7269645f
   10eba:	7325                	.insn	2, 0x7325
   10ebc:	202c                	.insn	2, 0x202c
   10ebe:	72617473          	.insn	4, 0x72617473
   10ec2:	3d74                	.insn	2, 0x3d74
   10ec4:	6425                	.insn	2, 0x6425
   10ec6:	202c                	.insn	2, 0x202c
   10ec8:	656c                	.insn	2, 0x656c
   10eca:	3d6e                	.insn	2, 0x3d6e
   10ecc:	6425                	.insn	2, 0x6425
   10ece:	0a0d                	.insn	2, 0x0a0d
   10ed0:	0000                	.insn	2, 0x
   10ed2:	0000                	.insn	2, 0x
   10ed4:	3c3c                	.insn	2, 0x3c3c
   10ed6:	5220                	.insn	2, 0x5220
   10ed8:	7465                	.insn	2, 0x7465
   10eda:	7275                	.insn	2, 0x7275
   10edc:	206e                	.insn	2, 0x206e
   10ede:	6f74                	.insn	2, 0x6f74
   10ee0:	6d20                	.insn	2, 0x6d20
   10ee2:	6961                	.insn	2, 0x6961
   10ee4:	206e                	.insn	2, 0x206e
   10ee6:	656d                	.insn	2, 0x656d
   10ee8:	756e                	.insn	2, 0x756e
   10eea:	0000                	.insn	2, 0x
   10eec:	2e2e                	.insn	2, 0x2e2e
   10eee:	0000                	.insn	2, 0x
   10ef0:	6f6c                	.insn	2, 0x6f6c
   10ef2:	6461                	.insn	2, 0x6461
   10ef4:	645f 7269 203a      	.insn	6, 0x203a7269645f
   10efa:	6e756f63          	bltu	x10,x7,115f8 <__clzsi2+0xa0c>
   10efe:	3d74                	.insn	2, 0x3d74
   10f00:	6425                	.insn	2, 0x6425
   10f02:	0a0d                	.insn	2, 0x0a0d
   10f04:	0000                	.insn	2, 0x
   10f06:	0000                	.insn	2, 0x
   10f08:	6425                	.insn	2, 0x6425
   10f0a:	4b20                	.insn	2, 0x4b20
   10f0c:	2042                	.insn	2, 0x2042
   10f0e:	74697277          	.insn	4, 0x74697277
   10f12:	6574                	.insn	2, 0x6574
   10f14:	006e                	.insn	2, 0x006e
   10f16:	0000                	.insn	2, 0x
   10f18:	6556                	.insn	2, 0x6556
   10f1a:	6972                	.insn	2, 0x6972
   10f1c:	7966                	.insn	2, 0x7966
   10f1e:	6520                	.insn	2, 0x6520
   10f20:	7272                	.insn	2, 0x7272
   10f22:	6120726f          	jal	x4,18534 <__clz_tab+0x6438>
   10f26:	2074                	.insn	2, 0x2074
   10f28:	7825                	.insn	2, 0x7825
   10f2a:	203a                	.insn	2, 0x203a
   10f2c:	6425                	.insn	2, 0x6425
   10f2e:	2120                	.insn	2, 0x2120
   10f30:	203d                	.insn	2, 0x203d
   10f32:	6425                	.insn	2, 0x6425
   10f34:	202e                	.insn	2, 0x202e
   10f36:	6144                	.insn	2, 0x6144
   10f38:	6174                	.insn	2, 0x6174
   10f3a:	7220                	.insn	2, 0x7220
   10f3c:	6165                	.insn	2, 0x6165
   10f3e:	3a64                	.insn	2, 0x3a64
   10f40:	0a0d                	.insn	2, 0x0a0d
   10f42:	0000                	.insn	2, 0x
   10f44:	6425                	.insn	2, 0x6425
   10f46:	4b20                	.insn	2, 0x4b20
   10f48:	2042                	.insn	2, 0x2042
   10f4a:	6576                	.insn	2, 0x6576
   10f4c:	6972                	.insn	2, 0x6972
   10f4e:	6966                	.insn	2, 0x6966
   10f50:	6465                	.insn	2, 0x6465
   10f52:	0000                	.insn	2, 0x
   10f54:	622e                	.insn	2, 0x622e
   10f56:	6e69                	.insn	2, 0x6e69
   10f58:	0000                	.insn	2, 0x
   10f5a:	0000                	.insn	2, 0x
   10f5c:	6f4c                	.insn	2, 0x6f4c
   10f5e:	6461                	.insn	2, 0x6461
   10f60:	6e69                	.insn	2, 0x6e69
   10f62:	69622067          	.insn	4, 0x69622067
   10f66:	206e                	.insn	2, 0x206e
   10f68:	6966                	.insn	2, 0x6966
   10f6a:	656c                	.insn	2, 0x656c
   10f6c:	203a                	.insn	2, 0x203a
   10f6e:	7325                	.insn	2, 0x7325
   10f70:	0a0d                	.insn	2, 0x0a0d
   10f72:	0000                	.insn	2, 0x
   10f74:	6f4c                	.insn	2, 0x6f4c
   10f76:	6461                	.insn	2, 0x6461
   10f78:	6e69                	.insn	2, 0x6e69
   10f7a:	73662067          	.insn	4, 0x73662067
   10f7e:	6620                	.insn	2, 0x6620
   10f80:	6c69                	.insn	2, 0x6c69
   10f82:	3a65                	.insn	2, 0x3a65
   10f84:	2520                	.insn	2, 0x2520
   10f86:	000a0d73          	.insn	4, 0x000a0d73
   10f8a:	0000                	.insn	2, 0x
   10f8c:	6556                	.insn	2, 0x6556
   10f8e:	6972                	.insn	2, 0x6972
   10f90:	7966                	.insn	2, 0x7966
   10f92:	6f20                	.insn	2, 0x6f20
   10f94:	6c6e                	.insn	2, 0x6c6e
   10f96:	2079                	.insn	2, 0x2079
   10f98:	70707573          	.insn	4, 0x70707573
   10f9c:	6574726f          	jal	x4,58df2 <_ebss+0x3bf02>
   10fa0:	2064                	.insn	2, 0x2064
   10fa2:	6f66                	.insn	2, 0x6f66
   10fa4:	2072                	.insn	2, 0x2072
   10fa6:	622e                	.insn	2, 0x622e
   10fa8:	6e69                	.insn	2, 0x6e69
   10faa:	6620                	.insn	2, 0x6620
   10fac:	6c69                	.insn	2, 0x6c69
   10fae:	7365                	.insn	2, 0x7365
   10fb0:	0000                	.insn	2, 0x
   10fb2:	0000                	.insn	2, 0x
   10fb4:	6e6e6143          	.insn	4, 0x6e6e6143
   10fb8:	6f20746f          	jal	x8,186aa <__clz_tab+0x65ae>
   10fbc:	6570                	.insn	2, 0x6570
   10fbe:	206e                	.insn	2, 0x206e
   10fc0:	65726f63          	bltu	x4,x23,1161e <__clzsi2+0xa32>
   10fc4:	6620                	.insn	2, 0x6620
   10fc6:	6c69                	.insn	2, 0x6c69
   10fc8:	0065                	.insn	2, 0x0065
   10fca:	0000                	.insn	2, 0x
   10fcc:	5d73255b          	.insn	4, 0x5d73255b
   10fd0:	003d                	.insn	2, 0x003d
   10fd2:	0000                	.insn	2, 0x
   10fd4:	74697257          	.insn	4, 0x74697257
   10fd8:	6e69                	.insn	2, 0x6e69
   10fda:	74612067          	.insn	4, 0x74612067
   10fde:	2520                	.insn	2, 0x2520
   10fe0:	3a78                	.insn	2, 0x3a78
   10fe2:	0000                	.insn	2, 0x
   10fe4:	6946                	.insn	2, 0x6946
   10fe6:	656c                	.insn	2, 0x656c
   10fe8:	7220                	.insn	2, 0x7220
   10fea:	6165                	.insn	2, 0x6165
   10fec:	2064                	.insn	2, 0x2064
   10fee:	6c637963          	bgeu	x6,x6,116c0 <__clzsi2+0xad4>
   10ff2:	7365                	.insn	2, 0x7365
   10ff4:	203a                	.insn	2, 0x203a
   10ff6:	6425                	.insn	2, 0x6425
   10ff8:	202c                	.insn	2, 0x202c
   10ffa:	6170                	.insn	2, 0x6170
   10ffc:	7372                	.insn	2, 0x7372
   10ffe:	2065                	.insn	2, 0x2065
   11000:	6c637963          	bgeu	x6,x6,116d2 <__clzsi2+0xae6>
   11004:	7365                	.insn	2, 0x7365
   11006:	203a                	.insn	2, 0x203a
   11008:	6425                	.insn	2, 0x6425
   1100a:	202c                	.insn	2, 0x202c
   1100c:	6c66                	.insn	2, 0x6c66
   1100e:	7361                	.insn	2, 0x7361
   11010:	2068                	.insn	2, 0x2068
   11012:	6f74                	.insn	2, 0x6f74
   11014:	6174                	.insn	2, 0x6174
   11016:	206c                	.insn	2, 0x206c
   11018:	6c637963          	bgeu	x6,x6,116ea <__clzsi2+0xafe>
   1101c:	7365                	.insn	2, 0x7365
   1101e:	203a                	.insn	2, 0x203a
   11020:	6425                	.insn	2, 0x6425
   11022:	202c                	.insn	2, 0x202c
   11024:	6c66                	.insn	2, 0x6c66
   11026:	7361                	.insn	2, 0x7361
   11028:	2068                	.insn	2, 0x2068
   1102a:	74696177          	.insn	4, 0x74696177
   1102e:	6320                	.insn	2, 0x6320
   11030:	6379                	.insn	2, 0x6379
   11032:	656c                	.insn	2, 0x656c
   11034:	25203a73          	.insn	4, 0x25203a73
   11038:	0d64                	.insn	2, 0x0d64
   1103a:	000a                	.insn	2, 0x000a
   1103c:	6946                	.insn	2, 0x6946
   1103e:	656c                	.insn	2, 0x656c
   11040:	7220                	.insn	2, 0x7220
   11042:	6165                	.insn	2, 0x6165
   11044:	2064                	.insn	2, 0x2064
   11046:	6974                	.insn	2, 0x6974
   11048:	656d                	.insn	2, 0x656d
   1104a:	203a                	.insn	2, 0x203a
   1104c:	6425                	.insn	2, 0x6425
   1104e:	6d20                	.insn	2, 0x6d20
   11050:	70202c73          	.insn	4, 0x70202c73
   11054:	7261                	.insn	2, 0x7261
   11056:	74206573          	.insn	4, 0x74206573
   1105a:	6d69                	.insn	2, 0x6d69
   1105c:	3a65                	.insn	2, 0x3a65
   1105e:	2520                	.insn	2, 0x2520
   11060:	2064                	.insn	2, 0x2064
   11062:	736d                	.insn	2, 0x736d
   11064:	202c                	.insn	2, 0x202c
   11066:	6c66                	.insn	2, 0x6c66
   11068:	7361                	.insn	2, 0x7361
   1106a:	2068                	.insn	2, 0x2068
   1106c:	6f74                	.insn	2, 0x6f74
   1106e:	6174                	.insn	2, 0x6174
   11070:	206c                	.insn	2, 0x206c
   11072:	6974                	.insn	2, 0x6974
   11074:	656d                	.insn	2, 0x656d
   11076:	203a                	.insn	2, 0x203a
   11078:	6425                	.insn	2, 0x6425
   1107a:	6d20                	.insn	2, 0x6d20
   1107c:	66202c73          	.insn	4, 0x66202c73
   11080:	616c                	.insn	2, 0x616c
   11082:	77206873          	.insn	4, 0x77206873
   11086:	6961                	.insn	2, 0x6961
   11088:	2074                	.insn	2, 0x2074
   1108a:	6974                	.insn	2, 0x6974
   1108c:	656d                	.insn	2, 0x656d
   1108e:	203a                	.insn	2, 0x203a
   11090:	6425                	.insn	2, 0x6425
   11092:	6d20                	.insn	2, 0x6d20
   11094:	000a0d73          	.insn	4, 0x000a0d73
   11098:	65726f43          	.insn	4, 0x65726f43
   1109c:	6d20                	.insn	2, 0x6d20
   1109e:	7461                	.insn	2, 0x7461
   110a0:	73656863          	bltu	x10,x22,117d0 <__clzsi2+0xbe4>
   110a4:	0000                	.insn	2, 0x
   110a6:	0000                	.insn	2, 0x
   110a8:	65726f43          	.insn	4, 0x65726f43
   110ac:	7220                	.insn	2, 0x7220
   110ae:	6165                	.insn	2, 0x6165
   110b0:	7964                	.insn	2, 0x7964
   110b2:	202e                	.insn	2, 0x202e
   110b4:	6c50                	.insn	2, 0x6c50
   110b6:	65722073          	.insn	4, 0x65722073
   110ba:	6f62                	.insn	2, 0x6f62
   110bc:	0000746f          	jal	x8,180bc <__clz_tab+0x5fc0>
   110c0:	726f632f          	.insn	4, 0x726f632f
   110c4:	7365                	.insn	2, 0x7365
   110c6:	0000                	.insn	2, 0x
   110c8:	654e                	.insn	2, 0x654e
   110ca:	6465                	.insn	2, 0x6465
   110cc:	2e20                	.insn	2, 0x2e20
   110ce:	6962                	.insn	2, 0x6962
   110d0:	206e                	.insn	2, 0x206e
   110d2:	6e69                	.insn	2, 0x6e69
   110d4:	2f20                	.insn	2, 0x2f20
   110d6:	65726f63          	bltu	x4,x23,11734 <__clzsi2+0xb48>
   110da:	6e4f0073          	.insn	4, 0x6e4f0073
   110de:	796c                	.insn	2, 0x796c
   110e0:	2e20                	.insn	2, 0x2e20
   110e2:	6962                	.insn	2, 0x6962
   110e4:	206e                	.insn	2, 0x206e
   110e6:	70707573          	.insn	4, 0x70707573
   110ea:	6574726f          	jal	x4,58f40 <_ebss+0x3c050>
   110ee:	0064                	.insn	2, 0x0064
   110f0:	726f632f          	.insn	4, 0x726f632f
   110f4:	7365                	.insn	2, 0x7365
   110f6:	6562002f          	.insn	4, 0x6562002f
   110fa:	206e6967          	.insn	4, 0x206e6967
   110fe:	656c6573          	.insn	4, 0x656c6573
   11102:	635f7463          	bgeu	x30,x21,1172a <__clzsi2+0xb3e>
   11106:	0d65726f          	jal	x4,681dc <_ebss+0x4b2ec>
   1110a:	000a                	.insn	2, 0x000a
   1110c:	63656843          	.insn	4, 0x63656843
   11110:	4155206b          	.insn	4, 0x4155206b
   11114:	5452                	.insn	2, 0x5452
   11116:	6620                	.insn	2, 0x6620
   11118:	6c20726f          	jal	x4,187da <__clz_tab+0x66de>
   1111c:	0000676f          	jal	x14,1711c <__clz_tab+0x5020>
   11120:	6e65                	.insn	2, 0x6e65
   11122:	2064                	.insn	2, 0x2064
   11124:	656c6573          	.insn	4, 0x656c6573
   11128:	635f7463          	bgeu	x30,x21,11750 <__clzsi2+0xb64>
   1112c:	0d65726f          	jal	x4,68202 <_ebss+0x4b312>
   11130:	000a                	.insn	2, 0x000a
   11132:	0000                	.insn	2, 0x
   11134:	0000002f          	.insn	4, 0x002f
   11138:	6f6c                	.insn	2, 0x6f6c
   1113a:	6461                	.insn	2, 0x6461
   1113c:	6320                	.insn	2, 0x6320
   1113e:	6568                	.insn	2, 0x6568
   11140:	7461                	.insn	2, 0x7461
   11142:	74732073          	.insn	4, 0x74732073
   11146:	7261                	.insn	2, 0x7261
   11148:	0d74                	.insn	2, 0x0d74
   1114a:	000a                	.insn	2, 0x000a
   1114c:	632e                	.insn	2, 0x632e
   1114e:	00007a77          	.insn	4, 0x7a77
   11152:	0000                	.insn	2, 0x
   11154:	796c6e4f          	.insn	4, 0x796c6e4f
   11158:	2e20                	.insn	2, 0x2e20
   1115a:	207a7763          	bgeu	x20,x7,11368 <__clzsi2+0x77c>
   1115e:	70707573          	.insn	4, 0x70707573
   11162:	6574726f          	jal	x4,58fb8 <_ebss+0x3c0c8>
   11166:	0064                	.insn	2, 0x0064
   11168:	6e6e6143          	.insn	4, 0x6e6e6143
   1116c:	6f20746f          	jal	x8,1885e <__clz_tab+0x6762>
   11170:	6570                	.insn	2, 0x6570
   11172:	206e                	.insn	2, 0x206e
   11174:	6966                	.insn	2, 0x6966
   11176:	656c                	.insn	2, 0x656c
   11178:	0000                	.insn	2, 0x
   1117a:	0000                	.insn	2, 0x
   1117c:	61656843          	.insn	4, 0x61656843
   11180:	7374                	.insn	2, 0x7374
   11182:	6c20                	.insn	2, 0x6c20
   11184:	6564616f          	jal	x2,577da <_ebss+0x3a8ea>
   11188:	2164                	.insn	2, 0x2164
   1118a:	0000                	.insn	2, 0x
   1118c:	7245                	.insn	2, 0x7245
   1118e:	6f72                	.insn	2, 0x6f72
   11190:	2072                	.insn	2, 0x2072
   11192:	6f6c                	.insn	2, 0x6f6c
   11194:	6461                	.insn	2, 0x6461
   11196:	6e69                	.insn	2, 0x6e69
   11198:	00000067          	jr	x0 # 0 <_start>
   1119c:	6150                	.insn	2, 0x6150
   1119e:	00206567          	.insn	4, 0x00206567
   111a2:	0000                	.insn	2, 0x
   111a4:	6425                	.insn	2, 0x6425
   111a6:	0064252f          	.insn	4, 0x0064252f
   111aa:	0000                	.insn	2, 0x
   111ac:	6e6e6143          	.insn	4, 0x6e6e6143
   111b0:	6c20746f          	jal	x8,18872 <__clz_tab+0x6776>
   111b4:	2064616f          	jal	x2,573ba <_ebss+0x3a4ca>
   111b8:	61656863          	bltu	x10,x22,117c8 <__clzsi2+0xbdc>
   111bc:	2074                	.insn	2, 0x2074
   111be:	6966                	.insn	2, 0x6966
   111c0:	656c                	.insn	2, 0x656c
   111c2:	0000                	.insn	2, 0x
   111c4:	7245                	.insn	2, 0x7245
   111c6:	6f72                	.insn	2, 0x6f72
   111c8:	2072                	.insn	2, 0x2072
   111ca:	6e65706f          	j	688b0 <_ebss+0x4b9c0>
   111ce:	6e69                	.insn	2, 0x6e69
   111d0:	69642067          	.insn	4, 0x69642067
   111d4:	6572                	.insn	2, 0x6572
   111d6:	726f7463          	bgeu	x30,x6,118fe <__clzsi2+0xd12>
   111da:	0079                	.insn	2, 0x0079
   111dc:	2520                	.insn	2, 0x2520
   111de:	0064                	.insn	2, 0x0064
   111e0:	2d2d                	.insn	2, 0x2d2d
   111e2:	202d                	.insn	2, 0x202d
   111e4:	61656843          	.insn	4, 0x61656843
   111e8:	7374                	.insn	2, 0x7374
   111ea:	2d20                	.insn	2, 0x2d20
   111ec:	2d2d                	.insn	2, 0x2d2d
   111ee:	0000                	.insn	2, 0x
   111f0:	61656843          	.insn	4, 0x61656843
   111f4:	7374                	.insn	2, 0x7374
   111f6:	003a                	.insn	2, 0x003a
   111f8:	00006e4f          	.insn	4, 0x6e4f
   111fc:	0066664f          	.insn	4, 0x0066664f
   11200:	6f4c                	.insn	2, 0x6f4c
   11202:	6461                	.insn	2, 0x6461
   11204:	6320                	.insn	2, 0x6320
   11206:	6568                	.insn	2, 0x6568
   11208:	7461                	.insn	2, 0x7461
   1120a:	6620                	.insn	2, 0x6620
   1120c:	6c69                	.insn	2, 0x6c69
   1120e:	0065                	.insn	2, 0x0065
   11210:	69766153          	.insn	4, 0x69766153
   11214:	676e                	.insn	2, 0x676e
   11216:	6f20                	.insn	2, 0x6f20
   11218:	7470                	.insn	2, 0x7470
   1121a:	6f69                	.insn	2, 0x6f69
   1121c:	736e                	.insn	2, 0x736e
   1121e:	2e2e                	.insn	2, 0x2e2e
   11220:	002e                	.insn	2, 0x002e
   11222:	0000                	.insn	2, 0x
   11224:	6e6e6143          	.insn	4, 0x6e6e6143
   11228:	7320746f          	jal	x8,1895a <__clz_tab+0x685e>
   1122c:	7661                	.insn	2, 0x7661
   1122e:	2065                	.insn	2, 0x2065
   11230:	6974706f          	j	590c6 <_ebss+0x3c1d6>
   11234:	20736e6f          	jal	x28,47c3a <_ebss+0x2ad4a>
   11238:	6f74                	.insn	2, 0x6f74
   1123a:	5320                	.insn	2, 0x5320
   1123c:	0044                	.insn	2, 0x0044
   1123e:	0000                	.insn	2, 0x
   11240:	6e6e6143          	.insn	4, 0x6e6e6143
   11244:	6320746f          	jal	x8,18876 <__clz_tab+0x677a>
   11248:	6572                	.insn	2, 0x6572
   1124a:	7461                	.insn	2, 0x7461
   1124c:	2065                	.insn	2, 0x2065
   1124e:	7661732f          	.insn	4, 0x7661732f
   11252:	7365                	.insn	2, 0x7365
   11254:	0000                	.insn	2, 0x
   11256:	0000                	.insn	2, 0x
   11258:	6e6e6143          	.insn	4, 0x6e6e6143
   1125c:	6320746f          	jal	x8,1888e <__clz_tab+0x6792>
   11260:	6572                	.insn	2, 0x6572
   11262:	7461                	.insn	2, 0x7461
   11264:	2065                	.insn	2, 0x2065
   11266:	7661732f          	.insn	4, 0x7661732f
   1126a:	7365                	.insn	2, 0x7365
   1126c:	0a0d                	.insn	2, 0x0a0d
   1126e:	0000                	.insn	2, 0x
   11270:	6e6e6143          	.insn	4, 0x6e6e6143
   11274:	7720746f          	jal	x8,189e6 <__clz_tab+0x68ea>
   11278:	6972                	.insn	2, 0x6972
   1127a:	6574                	.insn	2, 0x6574
   1127c:	7320                	.insn	2, 0x7320
   1127e:	7661                	.insn	2, 0x7661
   11280:	2065                	.insn	2, 0x2065
   11282:	6966                	.insn	2, 0x6966
   11284:	656c                	.insn	2, 0x656c
   11286:	0000                	.insn	2, 0x
   11288:	5245                	.insn	2, 0x5245
   1128a:	4f52                	.insn	2, 0x4f52
   1128c:	3a52                	.insn	2, 0x3a52
   1128e:	4220                	.insn	2, 0x4220
   11290:	4d415253          	.insn	4, 0x4d415253
   11294:	6e20                	.insn	2, 0x6e20
   11296:	7320746f          	jal	x8,189c8 <__clz_tab+0x68cc>
   1129a:	7661                	.insn	2, 0x7661
   1129c:	6465                	.insn	2, 0x6465
   1129e:	0021                	.insn	2, 0x0021
   112a0:	74697257          	.insn	4, 0x74697257
   112a4:	2065                	.insn	2, 0x2065
   112a6:	6166                	.insn	2, 0x6166
   112a8:	6c69                	.insn	2, 0x6c69
   112aa:	7275                	.insn	2, 0x7275
   112ac:	2c65                	.insn	2, 0x2c65
   112ae:	6220                	.insn	2, 0x6220
   112b0:	64253d77          	.insn	4, 0x64253d77
   112b4:	0a0d                	.insn	2, 0x0a0d
   112b6:	0000                	.insn	2, 0x
   112b8:	5342                	.insn	2, 0x5342
   112ba:	4152                	.insn	2, 0x4152
   112bc:	204d                	.insn	2, 0x204d
   112be:	65766173          	.insn	4, 0x65766173
   112c2:	2164                	.insn	2, 0x2164
   112c4:	0000                	.insn	2, 0x
   112c6:	0000                	.insn	2, 0x
   112c8:	2d2d                	.insn	2, 0x2d2d
   112ca:	202d                	.insn	2, 0x202d
   112cc:	6974704f          	.insn	4, 0x6974704f
   112d0:	20736e6f          	jal	x28,47cd6 <_ebss+0x2ade6>
   112d4:	2d2d                	.insn	2, 0x2d2d
   112d6:	002d                	.insn	2, 0x002d
   112d8:	2044534f          	.insn	4, 0x2044534f
   112dc:	6f68                	.insn	2, 0x6f68
   112de:	2074                	.insn	2, 0x2074
   112e0:	3a79656b          	.insn	4, 0x3a79656b
   112e4:	0000                	.insn	2, 0x
   112e6:	0000                	.insn	2, 0x
   112e8:	454c4553          	.insn	4, 0x454c4553
   112ec:	53265443          	.insn	4, 0x53265443
   112f0:	4154                	.insn	2, 0x4154
   112f2:	5452                	.insn	2, 0x5452
   112f4:	0000                	.insn	2, 0x
   112f6:	0000                	.insn	2, 0x
   112f8:	454c4553          	.insn	4, 0x454c4553
   112fc:	52265443          	.insn	4, 0x52265443
   11300:	4749                	.insn	2, 0x4749
   11302:	5448                	.insn	2, 0x5448
   11304:	0000                	.insn	2, 0x
   11306:	0000                	.insn	2, 0x
   11308:	4f48                	.insn	2, 0x4f48
   1130a:	454d                	.insn	2, 0x454d
   1130c:	0000                	.insn	2, 0x
   1130e:	0000                	.insn	2, 0x
   11310:	6142                	.insn	2, 0x6142
   11312:	70756b63          	bltu	x10,x7,11a28 <__clzsi2+0xe3c>
   11316:	4220                	.insn	2, 0x4220
   11318:	4d415253          	.insn	4, 0x4d415253
   1131c:	003a                	.insn	2, 0x003a
   1131e:	0000                	.insn	2, 0x
   11320:	6559                	.insn	2, 0x6559
   11322:	6f4e0073          	.insn	4, 0x6f4e0073
   11326:	0000                	.insn	2, 0x
   11328:	657a6973          	.insn	4, 0x657a6973
   1132c:	253d                	.insn	2, 0x253d
   1132e:	0064                	.insn	2, 0x0064
   11330:	6f70                	.insn	2, 0x6f70
   11332:	78253d73          	.insn	4, 0x78253d73
   11336:	202c                	.insn	2, 0x202c
   11338:	7974                	.insn	2, 0x7974
   1133a:	6570                	.insn	2, 0x6570
   1133c:	253d                	.insn	2, 0x253d
   1133e:	2c64                	.insn	2, 0x2c64
   11340:	6d20                	.insn	2, 0x6d20
   11342:	7061                	.insn	2, 0x7061
   11344:	635f 7274 3d6c      	.insn	6, 0x3d6c7274635f
   1134a:	6425                	.insn	2, 0x6425
   1134c:	202c                	.insn	2, 0x202c
   1134e:	6f72                	.insn	2, 0x6f72
   11350:	3d6d                	.insn	2, 0x3d6d
   11352:	6425                	.insn	2, 0x6425
   11354:	202c                	.insn	2, 0x202c
   11356:	6172                	.insn	2, 0x6172
   11358:	3d6d                	.insn	2, 0x3d6d
   1135a:	6425                	.insn	2, 0x6425
   1135c:	202c                	.insn	2, 0x202c
   1135e:	63656863          	bltu	x10,x22,1198e <__clzsi2+0xda2>
   11362:	6d75736b          	.insn	4, 0x6d75736b
   11366:	253d                	.insn	2, 0x253d
   11368:	2c78                	.insn	2, 0x2c78
   1136a:	6320                	.insn	2, 0x6320
   1136c:	6568                	.insn	2, 0x6568
   1136e:	75736b63          	bltu	x6,x23,11ac4 <ExCvt+0x50>
   11372:	5f6d                	.insn	2, 0x5f6d
   11374:	706d6f63          	bltu	x26,x6,11a92 <ExCvt+0x1e>
   11378:	253d                	.insn	2, 0x253d
   1137a:	2c78                	.insn	2, 0x2c78
   1137c:	7220                	.insn	2, 0x7220
   1137e:	7365                	.insn	2, 0x7365
   11380:	7465                	.insn	2, 0x7465
   11382:	253d                	.insn	2, 0x253d
   11384:	2c78                	.insn	2, 0x2c78
   11386:	7320                	.insn	2, 0x7320
   11388:	65726f63          	bltu	x4,x23,119e6 <__clzsi2+0xdfa>
   1138c:	253d                	.insn	2, 0x253d
   1138e:	0d64                	.insn	2, 0x0d64
   11390:	000a                	.insn	2, 0x000a
   11392:	0000                	.insn	2, 0x
   11394:	6f6c                	.insn	2, 0x6f6c
   11396:	6461                	.insn	2, 0x6461
   11398:	656e                	.insn	2, 0x656e
   1139a:	74732073          	.insn	4, 0x74732073
   1139e:	7261                	.insn	2, 0x7261
   113a0:	0d74                	.insn	2, 0x0d74
   113a2:	000a                	.insn	2, 0x000a
   113a4:	6e2e                	.insn	2, 0x6e2e
   113a6:	7365                	.insn	2, 0x7365
   113a8:	0000                	.insn	2, 0x
   113aa:	0000                	.insn	2, 0x
   113ac:	796c6e4f          	.insn	4, 0x796c6e4f
   113b0:	2e20                	.insn	2, 0x2e20
   113b2:	656e                	.insn	2, 0x656e
   113b4:	75732073          	.insn	4, 0x75732073
   113b8:	7070                	.insn	2, 0x7070
   113ba:	6574726f          	jal	x4,59210 <_ebss+0x3c320>
   113be:	0064                	.insn	2, 0x0064
   113c0:	6b656553          	.insn	4, 0x6b656553
   113c4:	6620                	.insn	2, 0x6620
   113c6:	6961                	.insn	2, 0x6961
   113c8:	756c                	.insn	2, 0x756c
   113ca:	6572                	.insn	2, 0x6572
   113cc:	0000                	.insn	2, 0x
   113ce:	0000                	.insn	2, 0x
   113d0:	6425                	.insn	2, 0x6425
   113d2:	4b64252f          	.insn	4, 0x4b64252f
   113d6:	0000                	.insn	2, 0x
   113d8:	6f6c                	.insn	2, 0x6f6c
   113da:	6461                	.insn	2, 0x6461
   113dc:	656e                	.insn	2, 0x656e
   113de:	25203a73          	.insn	4, 0x25203a73
   113e2:	2064                	.insn	2, 0x2064
   113e4:	7962                	.insn	2, 0x7962
   113e6:	6574                	.insn	2, 0x6574
   113e8:	000a0d73          	.insn	4, 0x000a0d73
   113ec:	63637553          	.insn	4, 0x63637553
   113f0:	7365                	.insn	2, 0x7365
   113f2:	6f4c0073          	.insn	4, 0x6f4c0073
   113f6:	6461                	.insn	2, 0x6461
   113f8:	6e69                	.insn	2, 0x6e69
   113fa:	73622067          	.insn	4, 0x73622067
   113fe:	6172                	.insn	2, 0x6172
   11400:	206d                	.insn	2, 0x206d
   11402:	7266                	.insn	2, 0x7266
   11404:	203a6d6f          	jal	x26,b7e06 <_ebss+0x9af16>
   11408:	7325                	.insn	2, 0x7325
   1140a:	0a0d                	.insn	2, 0x0a0d
   1140c:	0000                	.insn	2, 0x
   1140e:	0000                	.insn	2, 0x
   11410:	6e6e6143          	.insn	4, 0x6e6e6143
   11414:	6f20746f          	jal	x8,18b06 <__clz_tab+0x6a0a>
   11418:	6570                	.insn	2, 0x6570
   1141a:	206e                	.insn	2, 0x206e
   1141c:	7362                	.insn	2, 0x7362
   1141e:	6172                	.insn	2, 0x6172
   11420:	206d                	.insn	2, 0x206d
   11422:	6966                	.insn	2, 0x6966
   11424:	656c                	.insn	2, 0x656c
   11426:	202c                	.insn	2, 0x202c
   11428:	7361                	.insn	2, 0x7361
   1142a:	696d7573          	.insn	4, 0x696d7573
   1142e:	676e                	.insn	2, 0x676e
   11430:	6e20                	.insn	2, 0x6e20
   11432:	7765                	.insn	2, 0x7765
   11434:	0000                	.insn	2, 0x
   11436:	0000                	.insn	2, 0x
   11438:	5342                	.insn	2, 0x5342
   1143a:	4152                	.insn	2, 0x4152
   1143c:	204d                	.insn	2, 0x204d
   1143e:	6f6c                	.insn	2, 0x6f6c
   11440:	6461                	.insn	2, 0x6461
   11442:	6465                	.insn	2, 0x6465
   11444:	0021                	.insn	2, 0x0021
   11446:	0000                	.insn	2, 0x
   11448:	6e45                	.insn	2, 0x6e45
   1144a:	6168                	.insn	2, 0x6168
   1144c:	636e                	.insn	2, 0x636e
   1144e:	6465                	.insn	2, 0x6465
   11450:	4120                	.insn	2, 0x4120
   11452:	5550                	.insn	2, 0x5550
   11454:	003a                	.insn	2, 0x003a
   11456:	0000                	.insn	2, 0x
   11458:	61656843          	.insn	4, 0x61656843
   1145c:	7374                	.insn	2, 0x7374
   1145e:	0000                	.insn	2, 0x
   11460:	65766153          	.insn	4, 0x65766153
   11464:	4220                	.insn	2, 0x4220
   11466:	4d415253          	.insn	4, 0x4d415253
   1146a:	0000                	.insn	2, 0x
   1146c:	6f4c                	.insn	2, 0x6f4c
   1146e:	6461                	.insn	2, 0x6461
   11470:	4220                	.insn	2, 0x4220
   11472:	4d415253          	.insn	4, 0x4d415253
   11476:	0000                	.insn	2, 0x
   11478:	74737953          	.insn	4, 0x74737953
   1147c:	6d65                	.insn	2, 0x6d65
   1147e:	003a                	.insn	2, 0x003a
   11480:	544e                	.insn	2, 0x544e
   11482:	442f4353          	.insn	4, 0x442f4353
   11486:	4e45                	.insn	2, 0x4e45
   11488:	5944                	.insn	2, 0x5944
   1148a:	0000                	.insn	2, 0x
   1148c:	4150                	.insn	2, 0x4150
   1148e:	004c                	.insn	2, 0x004c
   11490:	7341                	.insn	2, 0x7341
   11492:	6570                	.insn	2, 0x6570
   11494:	003a7463          	bgeu	x20,x3,1149c <__clzsi2+0x8b0>
   11498:	3a31                	.insn	2, 0x3a31
   1149a:	0031                	.insn	2, 0x0031
   1149c:	3a38                	.insn	2, 0x3a38
   1149e:	61430037          	lui	x0,0x61430
   114a2:	6e6e                	.insn	2, 0x6e6e
   114a4:	6f20746f          	jal	x8,18b96 <__clz_tab+0x6a9a>
   114a8:	6570                	.insn	2, 0x6570
   114aa:	206e                	.insn	2, 0x206e
   114ac:	7362                	.insn	2, 0x7362
   114ae:	6172                	.insn	2, 0x6172
   114b0:	206d                	.insn	2, 0x206d
   114b2:	6966                	.insn	2, 0x6966
   114b4:	656c                	.insn	2, 0x656c
   114b6:	202c                	.insn	2, 0x202c
   114b8:	7361                	.insn	2, 0x7361
   114ba:	696d7573          	.insn	4, 0x696d7573
   114be:	676e                	.insn	2, 0x676e
   114c0:	6e20                	.insn	2, 0x6e20
   114c2:	7765                	.insn	2, 0x7765
   114c4:	0a0d                	.insn	2, 0x0a0d
   114c6:	0000                	.insn	2, 0x
   114c8:	7342                	.insn	2, 0x7342
   114ca:	6172                	.insn	2, 0x6172
   114cc:	206d                	.insn	2, 0x206d
   114ce:	6162                	.insn	2, 0x6162
   114d0:	70756b63          	bltu	x10,x7,11be6 <uc437+0xce>
   114d4:	6c20                	.insn	2, 0x6c20
   114d6:	6564616f          	jal	x2,57b2c <_ebss+0x3ac3c>
   114da:	2064                	.insn	2, 0x2064
   114dc:	6425                	.insn	2, 0x6425
   114de:	6220                	.insn	2, 0x6220
   114e0:	7479                	.insn	2, 0x7479
   114e2:	7365                	.insn	2, 0x7365
   114e4:	4320                	.insn	2, 0x4320
   114e6:	4352                	.insn	2, 0x4352
   114e8:	253d                	.insn	2, 0x253d
   114ea:	2e78                	.insn	2, 0x2e78
   114ec:	0a0d                	.insn	2, 0x0a0d
   114ee:	0000                	.insn	2, 0x
   114f0:	732e                	.insn	2, 0x732e
   114f2:	6366                	.insn	2, 0x6366
   114f4:	0000                	.insn	2, 0x
   114f6:	0000                	.insn	2, 0x
   114f8:	732e                	.insn	2, 0x732e
   114fa:	636d                	.insn	2, 0x636d
   114fc:	0000                	.insn	2, 0x
   114fe:	0000                	.insn	2, 0x
   11500:	796c6e4f          	.insn	4, 0x796c6e4f
   11504:	2e20                	.insn	2, 0x2e20
   11506:	20636d73          	.insn	4, 0x20636d73
   1150a:	2e20726f          	jal	x4,187ec <__clz_tab+0x66f0>
   1150e:	20636673          	.insn	4, 0x20636673
   11512:	70707573          	.insn	4, 0x70707573
   11516:	6574726f          	jal	x4,5936c <_ebss+0x3c47c>
   1151a:	0064                	.insn	2, 0x0064
   1151c:	732e                	.insn	2, 0x732e
   1151e:	6d72                	.insn	2, 0x6d72
   11520:	0000                	.insn	2, 0x
   11522:	0000                	.insn	2, 0x
   11524:	3d66666f          	jal	x12,778fa <_ebss+0x5aa0a>
   11528:	6425                	.insn	2, 0x6425
   1152a:	0a0d                	.insn	2, 0x0a0d
   1152c:	0000                	.insn	2, 0x
   1152e:	0000                	.insn	2, 0x
   11530:	6f4e                	.insn	2, 0x6f4e
   11532:	2074                	.insn	2, 0x2074
   11534:	2061                	.insn	2, 0x2061
   11536:	53454e53          	.insn	4, 0x53454e53
   1153a:	5220                	.insn	2, 0x5220
   1153c:	66204d4f          	.insn	4, 0x66204d4f
   11540:	6c69                	.insn	2, 0x6c69
   11542:	0065                	.insn	2, 0x0065
   11544:	4c20                	.insn	2, 0x4c20
   11546:	4820006f          	j	119c8 <__clzsi2+0xddc>
   1154a:	0069                	.insn	2, 0x0069
   1154c:	4520                	.insn	2, 0x4520
   1154e:	4878                	.insn	2, 0x4878
   11550:	0069                	.insn	2, 0x0069
   11552:	0000                	.insn	2, 0x
   11554:	5220                	.insn	2, 0x5220
   11556:	253d4d4f          	.insn	4, 0x253d4d4f
   1155a:	2064                	.insn	2, 0x2064
   1155c:	4152                	.insn	2, 0x4152
   1155e:	3d4d                	.insn	2, 0x3d4d
   11560:	6425                	.insn	2, 0x6425
   11562:	0000                	.insn	2, 0x
   11564:	6e6e6143          	.insn	4, 0x6e6e6143
   11568:	6c20746f          	jal	x8,18c2a <__clz_tab+0x6b2e>
   1156c:	2064616f          	jal	x2,57772 <_ebss+0x3a882>
   11570:	6f72                	.insn	2, 0x6f72
   11572:	006d                	.insn	2, 0x006d
   11574:	7245                	.insn	2, 0x7245
   11576:	6f72                	.insn	2, 0x6f72
   11578:	2072                	.insn	2, 0x2072
   1157a:	6e65706f          	j	68c60 <_ebss+0x4bd70>
   1157e:	6e69                	.insn	2, 0x6e69
   11580:	69642067          	.insn	4, 0x69642067
   11584:	6572                	.insn	2, 0x6572
   11586:	726f7463          	bgeu	x30,x6,11cae <cvt2.0+0x96>
   1158a:	0000                	.insn	2, 0x
   1158c:	654e                	.insn	2, 0x654e
   1158e:	52432077          	.insn	4, 0x52432077
   11592:	25203a43          	.insn	4, 0x25203a43
   11596:	2c78                	.insn	2, 0x2c78
   11598:	7320                	.insn	2, 0x7320
   1159a:	7a69                	.insn	2, 0x7a69
   1159c:	3d65                	.insn	2, 0x3d65
   1159e:	6425                	.insn	2, 0x6425
   115a0:	0a0d                	.insn	2, 0x0a0d
   115a2:	0000                	.insn	2, 0x
   115a4:	74697257          	.insn	4, 0x74697257
   115a8:	2065                	.insn	2, 0x2065
   115aa:	6166                	.insn	2, 0x6166
   115ac:	6c69                	.insn	2, 0x6c69
   115ae:	7275                	.insn	2, 0x7275
   115b0:	0065                	.insn	2, 0x0065
   115b2:	0000                	.insn	2, 0x
   115b4:	5342                	.insn	2, 0x5342
   115b6:	4152                	.insn	2, 0x4152
   115b8:	204d                	.insn	2, 0x204d
   115ba:	65766173          	.insn	4, 0x65766173
   115be:	2064                	.insn	2, 0x2064
   115c0:	6425                	.insn	2, 0x6425
   115c2:	67612073          	.insn	4, 0x67612073
   115c6:	0000206f          	j	135c6 <__clz_tab+0x14ca>
   115ca:	0000                	.insn	2, 0x
   115cc:	20232323          	sw	x2,518(x6)
   115d0:	636c6557          	.insn	4, 0x636c6557
   115d4:	20656d6f          	jal	x26,677da <_ebss+0x4a8ea>
   115d8:	6f74                	.insn	2, 0x6f74
   115da:	4f20                	.insn	2, 0x4f20
   115dc:	6e615453          	.insn	4, 0x6e615453
   115e0:	23232067          	.insn	4, 0x23232067
   115e4:	00000023          	sb	x0,0(x0) # 0 <_start>
   115e8:	5245                	.insn	2, 0x5245
   115ea:	3a52                	.insn	2, 0x3a52
   115ec:	7520                	.insn	2, 0x7520
   115ee:	646e                	.insn	2, 0x646e
   115f0:	6665                	.insn	2, 0x6665
   115f2:	6e69                	.insn	2, 0x6e69
   115f4:	6465                	.insn	2, 0x6465
   115f6:	4320                	.insn	2, 0x4320
   115f8:	4945524f          	.insn	4, 0x4945524f
   115fc:	0044                	.insn	2, 0x0044
   115fe:	0000                	.insn	2, 0x
   11600:	2931                	.insn	2, 0x2931
   11602:	5320                	.insn	2, 0x5320
   11604:	6c65                	.insn	2, 0x6c65
   11606:	6365                	.insn	2, 0x6365
   11608:	2074                	.insn	2, 0x2074
   1160a:	65726f63          	bltu	x4,x23,11c68 <cvt2.0+0x50>
   1160e:	000a                	.insn	2, 0x000a
   11610:	6556                	.insn	2, 0x6556
   11612:	7372                	.insn	2, 0x7372
   11614:	6f69                	.insn	2, 0x6f69
   11616:	3a6e                	.insn	2, 0x3a6e
   11618:	0020                	.insn	2, 0x0020
   1161a:	0000                	.insn	2, 0x
   1161c:	6f4e                	.insn	2, 0x6f4e
   1161e:	2076                	.insn	2, 0x2076
   11620:	3220                	.insn	2, 0x3220
   11622:	3220                	.insn	2, 0x3220
   11624:	3230                	.insn	2, 0x3230
   11626:	0034                	.insn	2, 0x0034
   11628:	6f4c                	.insn	2, 0x6f4c
   1162a:	6461                	.insn	2, 0x6461
   1162c:	6e69                	.insn	2, 0x6e69
   1162e:	61502067          	.insn	4, 0x61502067
   11632:	6e614d63          	blt	x2,x6,11d2c <cvt1.1+0x58>
   11636:	4120                	.insn	2, 0x4120
   11638:	6372                	.insn	2, 0x6372
   1163a:	6461                	.insn	2, 0x6461
   1163c:	2e65                	.insn	2, 0x2e65
   1163e:	2e2e                	.insn	2, 0x2e2e
   11640:	0000                	.insn	2, 0x
   11642:	0000                	.insn	2, 0x
   11644:	20232323          	sw	x2,518(x6)
   11648:	636c6557          	.insn	4, 0x636c6557
   1164c:	20656d6f          	jal	x26,67852 <_ebss+0x4a962>
   11650:	6f74                	.insn	2, 0x6f74
   11652:	5020                	.insn	2, 0x5020
   11654:	6361                	.insn	2, 0x6361
   11656:	614d                	.insn	2, 0x614d
   11658:	546e                	.insn	2, 0x546e
   1165a:	6e61                	.insn	2, 0x6e61
   1165c:	23232067          	.insn	4, 0x23232067
   11660:	00000023          	sb	x0,0(x0) # 0 <_start>
   11664:	2931                	.insn	2, 0x2931
   11666:	4c20                	.insn	2, 0x4c20
   11668:	2064616f          	jal	x2,5786e <_ebss+0x3a97e>
   1166c:	4f52                	.insn	2, 0x4f52
   1166e:	204d                	.insn	2, 0x204d
   11670:	7266                	.insn	2, 0x7266
   11672:	53206d6f          	jal	x26,17ba4 <__clz_tab+0x5aa8>
   11676:	2044                	.insn	2, 0x2044
   11678:	64726163          	bltu	x4,x7,11cba <cvt2.0+0xa2>
   1167c:	000a                	.insn	2, 0x000a
   1167e:	0000                	.insn	2, 0x
   11680:	2932                	.insn	2, 0x2932
   11682:	5320                	.insn	2, 0x5320
   11684:	6c65                	.insn	2, 0x6c65
   11686:	6365                	.insn	2, 0x6365
   11688:	2074                	.insn	2, 0x2074
   1168a:	65726f63          	bltu	x4,x23,11ce8 <cvt1.1+0x14>
   1168e:	000a                	.insn	2, 0x000a
   11690:	45524f43          	.insn	4, 0x45524f43
   11694:	495f 3d44 6425      	.insn	6, 0x64253d44495f
   1169a:	0a0d                	.insn	2, 0x0a0d
   1169c:	0000                	.insn	2, 0x
   1169e:	0000                	.insn	2, 0x
   116a0:	6e49                	.insn	2, 0x6e49
   116a2:	74726573          	.insn	4, 0x74726573
   116a6:	5320                	.insn	2, 0x5320
   116a8:	2044                	.insn	2, 0x2044
   116aa:	64726163          	bltu	x4,x7,11cec <cvt1.1+0x18>
   116ae:	6120                	.insn	2, 0x6120
   116b0:	646e                	.insn	2, 0x646e
   116b2:	7020                	.insn	2, 0x7020
   116b4:	6572                	.insn	2, 0x6572
   116b6:	61207373          	.insn	4, 0x61207373
   116ba:	796e                	.insn	2, 0x796e
   116bc:	6b20                	.insn	2, 0x6b20
   116be:	7965                	.insn	2, 0x7965
   116c0:	0000                	.insn	2, 0x
   116c2:	0000                	.insn	2, 0x
   116c4:	6974704f          	.insn	4, 0x6974704f
   116c8:	66206e6f          	jal	x28,17d2a <__clz_tab+0x5c2e>
   116cc:	6c69                	.insn	2, 0x6c69
   116ce:	2065                	.insn	2, 0x2065
   116d0:	72726f63          	bltu	x4,x7,11e0e <cvt1.1+0x13a>
   116d4:	7075                	.insn	2, 0x7075
   116d6:	2074                	.insn	2, 0x2074
   116d8:	6e61                	.insn	2, 0x6e61
   116da:	2064                	.insn	2, 0x2064
   116dc:	7369                	.insn	2, 0x7369
   116de:	6e20                	.insn	2, 0x6e20
   116e0:	6c20746f          	jal	x8,18da2 <__clz_tab+0x6ca6>
   116e4:	6564616f          	jal	x2,57d3a <_ebss+0x3ae4a>
   116e8:	0064                	.insn	2, 0x0064
   116ea:	0000                	.insn	2, 0x
   116ec:	3d3d                	.insn	2, 0x3d3d
   116ee:	203d                	.insn	2, 0x203d
   116f0:	636c6557          	.insn	4, 0x636c6557
   116f4:	20656d6f          	jal	x26,678fa <_ebss+0x4aa0a>
   116f8:	6f74                	.insn	2, 0x6f74
   116fa:	4e20                	.insn	2, 0x4e20
   116fc:	5345                	.insn	2, 0x5345
   116fe:	6154                	.insn	2, 0x6154
   11700:	676e                	.insn	2, 0x676e
   11702:	3d20                	.insn	2, 0x3d20
   11704:	3d3d                	.insn	2, 0x3d3d
   11706:	0000                	.insn	2, 0x
   11708:	7e7e                	.insn	2, 0x7e7e
   1170a:	207e                	.insn	2, 0x207e
   1170c:	636c6557          	.insn	4, 0x636c6557
   11710:	20656d6f          	jal	x26,67916 <_ebss+0x4aa26>
   11714:	6f74                	.insn	2, 0x6f74
   11716:	5320                	.insn	2, 0x5320
   11718:	454e                	.insn	2, 0x454e
   1171a:	6e615453          	.insn	4, 0x6e615453
   1171e:	7e7e2067          	.insn	4, 0x7e7e2067
   11722:	007e                	.insn	2, 0x007e
   11724:	2e2e                	.insn	2, 0x2e2e
   11726:	202e                	.insn	2, 0x202e
   11728:	636c6557          	.insn	4, 0x636c6557
   1172c:	20656d6f          	jal	x26,67932 <_ebss+0x4aa42>
   11730:	6f74                	.insn	2, 0x6f74
   11732:	4720                	.insn	2, 0x4720
   11734:	5442                	.insn	2, 0x5442
   11736:	6e61                	.insn	2, 0x6e61
   11738:	2e2e2067          	.insn	4, 0x2e2e2067
   1173c:	002e                	.insn	2, 0x002e
   1173e:	0000                	.insn	2, 0x
   11740:	20636363          	bltu	x6,x6,11946 <__clzsi2+0xd5a>
   11744:	636c6557          	.insn	4, 0x636c6557
   11748:	20656d6f          	jal	x26,6794e <_ebss+0x4aa5e>
   1174c:	6f74                	.insn	2, 0x6f74
   1174e:	5020                	.insn	2, 0x5020
   11750:	6361                	.insn	2, 0x6361
   11752:	614d                	.insn	2, 0x614d
   11754:	546e                	.insn	2, 0x546e
   11756:	6e61                	.insn	2, 0x6e61
   11758:	63632067          	.insn	4, 0x63632067
   1175c:	00000063          	beqz	x0,1175c <__clzsi2+0xb70>
   11760:	4f202933          	.insn	4, 0x4f202933
   11764:	7470                	.insn	2, 0x7470
   11766:	6f69                	.insn	2, 0x6f69
   11768:	736e                	.insn	2, 0x736e
   1176a:	000a                	.insn	2, 0x000a
   1176c:	3130                	.insn	2, 0x3130
   1176e:	3332                	.insn	2, 0x3332
   11770:	3534                	.insn	2, 0x3534
   11772:	3736                	.insn	2, 0x3736
   11774:	3938                	.insn	2, 0x3938
   11776:	4241                	.insn	2, 0x4241
   11778:	46454443          	.insn	4, 0x46454443
   1177c:	0000                	.insn	2, 0x
   1177e:	0000                	.insn	2, 0x
   11780:	003e                	.insn	2, 0x003e
   11782:	0000                	.insn	2, 0x
   11784:	66697073          	.insn	4, 0x66697073
   11788:	616c                	.insn	2, 0x616c
   1178a:	725f6873          	.insn	4, 0x725f6873
   1178e:	6165                	.insn	2, 0x6165
   11790:	7964                	.insn	2, 0x7964
   11792:	7420                	.insn	2, 0x7420
   11794:	6d69                	.insn	2, 0x6d69
   11796:	6f65                	.insn	2, 0x6f65
   11798:	7475                	.insn	2, 0x7475
   1179a:	000a                	.insn	2, 0x000a
   1179c:	69204453          	.insn	4, 0x69204453
   117a0:	696e                	.insn	2, 0x696e
   117a2:	2074                	.insn	2, 0x2074
   117a4:	6166                	.insn	2, 0x6166
   117a6:	6c69                	.insn	2, 0x6c69
   117a8:	7275                	.insn	2, 0x7275
   117aa:	3a65                	.insn	2, 0x3a65
   117ac:	4320                	.insn	2, 0x4320
   117ae:	444d                	.insn	2, 0x444d
   117b0:	0a30                	.insn	2, 0x0a30
   117b2:	0000                	.insn	2, 0x
   117b4:	69204453          	.insn	4, 0x69204453
   117b8:	696e                	.insn	2, 0x696e
   117ba:	2074                	.insn	2, 0x2074
   117bc:	6166                	.insn	2, 0x6166
   117be:	6c69                	.insn	2, 0x6c69
   117c0:	7275                	.insn	2, 0x7275
   117c2:	3a65                	.insn	2, 0x3a65
   117c4:	4120                	.insn	2, 0x4120
   117c6:	34444d43          	.insn	4, 0x34444d43
   117ca:	2c31                	.insn	2, 0x2c31
   117cc:	2520                	.insn	2, 0x2520
   117ce:	0a64                	.insn	2, 0x0a64
   117d0:	0000                	.insn	2, 0x
   117d2:	0000                	.insn	2, 0x
   117d4:	4341                	.insn	2, 0x4341
   117d6:	444d                	.insn	2, 0x444d
   117d8:	3134                	.insn	2, 0x3134
   117da:	7320                	.insn	2, 0x7320
   117dc:	6375                	.insn	2, 0x6375
   117de:	64656563          	bltu	x10,x6,11e28 <cvt1.1+0x154>
   117e2:	6465                	.insn	2, 0x6465
   117e4:	6120                	.insn	2, 0x6120
   117e6:	7466                	.insn	2, 0x7466
   117e8:	7265                	.insn	2, 0x7265
   117ea:	2520                	.insn	2, 0x2520
   117ec:	2064                	.insn	2, 0x2064
   117ee:	7274                	.insn	2, 0x7274
   117f0:	6569                	.insn	2, 0x6569
   117f2:	000a2e73          	.insn	4, 0x000a2e73
   117f6:	0000                	.insn	2, 0x
   117f8:	69204453          	.insn	4, 0x69204453
   117fc:	696e                	.insn	2, 0x696e
   117fe:	2074                	.insn	2, 0x2074
   11800:	706d6f63          	bltu	x26,x6,11f1e <nes_bsram_size+0x56>
   11804:	656c                	.insn	2, 0x656c
   11806:	6574                	.insn	2, 0x6574
   11808:	202e                	.insn	2, 0x202e
   1180a:	63686473          	.insn	4, 0x63686473
   1180e:	635f 7261 3d64      	.insn	6, 0x3d647261635f
   11814:	6425                	.insn	2, 0x6425
   11816:	202c                	.insn	2, 0x202c
   11818:	765f6473          	.insn	4, 0x765f6473
   1181c:	7265                	.insn	2, 0x7265
   1181e:	6e6f6973          	.insn	4, 0x6e6f6973
   11822:	253d                	.insn	2, 0x253d
   11824:	0a64                	.insn	2, 0x0a64
   11826:	0000                	.insn	2, 0x
   11828:	2e20                	.insn	2, 0x2e20
   1182a:	2e2e                	.insn	2, 0x2e2e
   1182c:	0020                	.insn	2, 0x0020
   1182e:	0000                	.insn	2, 0x
   11830:	775f6473          	.insn	4, 0x775f6473
   11834:	6972                	.insn	2, 0x6972
   11836:	6574                	.insn	2, 0x6574
   11838:	74636573          	.insn	4, 0x74636573
   1183c:	203a726f          	jal	x4,b923e <_ebss+0x9c34e>
   11840:	6425                	.insn	2, 0x6425
   11842:	2520                	.insn	2, 0x2520
   11844:	0a64                	.insn	2, 0x0a64
   11846:	0000                	.insn	2, 0x
   11848:	775f6473          	.insn	4, 0x775f6473
   1184c:	6972                	.insn	2, 0x6972
   1184e:	6574                	.insn	2, 0x6574
   11850:	74636573          	.insn	4, 0x74636573
   11854:	203a726f          	jal	x4,b9256 <_ebss+0x9c366>
   11858:	6142                	.insn	2, 0x6142
   1185a:	2064                	.insn	2, 0x2064
   1185c:	6572                	.insn	2, 0x6572
   1185e:	6e6f7073          	.insn	4, 0x6e6f7073
   11862:	25206573          	.insn	4, 0x25206573
   11866:	0a78                	.insn	2, 0x0a78
   11868:	0000                	.insn	2, 0x
   1186a:	0000                	.insn	2, 0x
   1186c:	775f6473          	.insn	4, 0x775f6473
   11870:	6972                	.insn	2, 0x6972
   11872:	6574                	.insn	2, 0x6574
   11874:	74636573          	.insn	4, 0x74636573
   11878:	203a726f          	jal	x4,b927a <_ebss+0x9c38a>
   1187c:	6144                	.insn	2, 0x6144
   1187e:	6174                	.insn	2, 0x6174
   11880:	7220                	.insn	2, 0x7220
   11882:	6a65                	.insn	2, 0x6a65
   11884:	6365                	.insn	2, 0x6365
   11886:	6574                	.insn	2, 0x6574
   11888:	2064                	.insn	2, 0x2064
   1188a:	7825                	.insn	2, 0x7825
   1188c:	000a                	.insn	2, 0x000a
   1188e:	0000                	.insn	2, 0x
   11890:	775f6473          	.insn	4, 0x775f6473
   11894:	6972                	.insn	2, 0x6972
   11896:	6574                	.insn	2, 0x6574
   11898:	74636573          	.insn	4, 0x74636573
   1189c:	203a726f          	jal	x4,b929e <_ebss+0x9c3ae>
   118a0:	6954                	.insn	2, 0x6954
   118a2:	656d                	.insn	2, 0x656d
   118a4:	0a74756f          	jal	x10,5914a <_ebss+0x3c25a>
   118a8:	0000                	.insn	2, 0x
   118aa:	0000                	.insn	2, 0x
   118ac:	6e6e6143          	.insn	4, 0x6e6e6143
   118b0:	6920746f          	jal	x8,18f42 <__clz_tab+0x6e46>
   118b4:	696e                	.insn	2, 0x696e
   118b6:	6974                	.insn	2, 0x6974
   118b8:	6c61                	.insn	2, 0x6c61
   118ba:	7a69                	.insn	2, 0x7a69
   118bc:	2065                	.insn	2, 0x2065
   118be:	000a6473          	.insn	4, 0x000a6473
   118c2:	0000                	.insn	2, 0x
   118c4:	459076eb          	.insn	4, 0x459076eb
   118c8:	4658                	.insn	2, 0x4658
   118ca:	5441                	.insn	2, 0x5441
   118cc:	2020                	.insn	2, 0x2020
   118ce:	0020                	.insn	2, 0x0020
   118d0:	4146                	.insn	2, 0x4146
   118d2:	3354                	.insn	2, 0x3354
   118d4:	2032                	.insn	2, 0x2032
   118d6:	2020                	.insn	2, 0x2020
   118d8:	0000                	.insn	2, 0x
   118da:	0000                	.insn	2, 0x
   118dc:	3a2a                	.insn	2, 0x3a2a
   118de:	3e3c                	.insn	2, 0x3e3c
   118e0:	227c                	.insn	2, 0x227c
   118e2:	00007f3f 2c2b0000 	.insn	8, 0x2c2b000000007f3f
   118ea:	5d5b3d3b          	.insn	4, 0x5d5b3d3b
   118ee:	0000                	.insn	2, 0x
   118f0:	614e                	.insn	2, 0x614e
   118f2:	004e                	.insn	2, 0x004e
   118f4:	0000564f          	.insn	4, 0x564f
   118f8:	4e49                	.insn	2, 0x4e49
   118fa:	0046                	.insn	2, 0x0046

Disassembly of section .rodata:

000118fc <LfnOfs-0x168>:
   118fc:	2e0c                	.insn	2, 0x2e0c
   118fe:	0000                	.insn	2, 0x
   11900:	2b00                	.insn	2, 0x2b00
   11902:	0000                	.insn	2, 0x
   11904:	2b38                	.insn	2, 0x2b38
   11906:	0000                	.insn	2, 0x
   11908:	2b80                	.insn	2, 0x2b80
   1190a:	0000                	.insn	2, 0x
   1190c:	2bb8                	.insn	2, 0x2bb8
   1190e:	0000                	.insn	2, 0x
   11910:	2da4                	.insn	2, 0x2da4
   11912:	0000                	.insn	2, 0x
   11914:	2db4                	.insn	2, 0x2db4
   11916:	0000                	.insn	2, 0x
   11918:	2dc4                	.insn	2, 0x2dc4
   1191a:	0000                	.insn	2, 0x
   1191c:	2dd4                	.insn	2, 0x2dd4
   1191e:	0000                	.insn	2, 0x
   11920:	2df0                	.insn	2, 0x2df0
   11922:	0000                	.insn	2, 0x
   11924:	3dac                	.insn	2, 0x3dac
   11926:	0000                	.insn	2, 0x
   11928:	3e4c                	.insn	2, 0x3e4c
   1192a:	0000                	.insn	2, 0x
   1192c:	3e5c                	.insn	2, 0x3e5c
   1192e:	0000                	.insn	2, 0x
   11930:	3e68                	.insn	2, 0x3e68
   11932:	0000                	.insn	2, 0x
   11934:	3e74                	.insn	2, 0x3e74
   11936:	0000                	.insn	2, 0x
   11938:	4358                	.insn	2, 0x4358
   1193a:	0000                	.insn	2, 0x
   1193c:	4340                	.insn	2, 0x4340
   1193e:	0000                	.insn	2, 0x
   11940:	4328                	.insn	2, 0x4328
   11942:	0000                	.insn	2, 0x
   11944:	4390                	.insn	2, 0x4390
   11946:	0000                	.insn	2, 0x
   11948:	4390                	.insn	2, 0x4390
   1194a:	0000                	.insn	2, 0x
   1194c:	4390                	.insn	2, 0x4390
   1194e:	0000                	.insn	2, 0x
   11950:	4390                	.insn	2, 0x4390
   11952:	0000                	.insn	2, 0x
   11954:	4390                	.insn	2, 0x4390
   11956:	0000                	.insn	2, 0x
   11958:	4390                	.insn	2, 0x4390
   1195a:	0000                	.insn	2, 0x
   1195c:	4390                	.insn	2, 0x4390
   1195e:	0000                	.insn	2, 0x
   11960:	4390                	.insn	2, 0x4390
   11962:	0000                	.insn	2, 0x
   11964:	4390                	.insn	2, 0x4390
   11966:	0000                	.insn	2, 0x
   11968:	4390                	.insn	2, 0x4390
   1196a:	0000                	.insn	2, 0x
   1196c:	4390                	.insn	2, 0x4390
   1196e:	0000                	.insn	2, 0x
   11970:	4390                	.insn	2, 0x4390
   11972:	0000                	.insn	2, 0x
   11974:	4390                	.insn	2, 0x4390
   11976:	0000                	.insn	2, 0x
   11978:	4390                	.insn	2, 0x4390
   1197a:	0000                	.insn	2, 0x
   1197c:	42f8                	.insn	2, 0x42f8
   1197e:	0000                	.insn	2, 0x
   11980:	4390                	.insn	2, 0x4390
   11982:	0000                	.insn	2, 0x
   11984:	4390                	.insn	2, 0x4390
   11986:	0000                	.insn	2, 0x
   11988:	4390                	.insn	2, 0x4390
   1198a:	0000                	.insn	2, 0x
   1198c:	4374                	.insn	2, 0x4374
   1198e:	0000                	.insn	2, 0x
   11990:	4310                	.insn	2, 0x4310
   11992:	0000                	.insn	2, 0x
   11994:	cf0c                	.insn	2, 0xcf0c
   11996:	0000                	.insn	2, 0x
   11998:	d2bc                	.insn	2, 0xd2bc
   1199a:	0000                	.insn	2, 0x
   1199c:	d2bc                	.insn	2, 0xd2bc
   1199e:	0000                	.insn	2, 0x
   119a0:	d2bc                	.insn	2, 0xd2bc
   119a2:	0000                	.insn	2, 0x
   119a4:	d2bc                	.insn	2, 0xd2bc
   119a6:	0000                	.insn	2, 0x
   119a8:	d2bc                	.insn	2, 0xd2bc
   119aa:	0000                	.insn	2, 0x
   119ac:	d2bc                	.insn	2, 0xd2bc
   119ae:	0000                	.insn	2, 0x
   119b0:	d2bc                	.insn	2, 0xd2bc
   119b2:	0000                	.insn	2, 0x
   119b4:	d2bc                	.insn	2, 0xd2bc
   119b6:	0000                	.insn	2, 0x
   119b8:	d2bc                	.insn	2, 0xd2bc
   119ba:	0000                	.insn	2, 0x
   119bc:	d2bc                	.insn	2, 0xd2bc
   119be:	0000                	.insn	2, 0x
   119c0:	d2bc                	.insn	2, 0xd2bc
   119c2:	0000                	.insn	2, 0x
   119c4:	d2bc                	.insn	2, 0xd2bc
   119c6:	0000                	.insn	2, 0x
   119c8:	d2bc                	.insn	2, 0xd2bc
   119ca:	0000                	.insn	2, 0x
   119cc:	d2bc                	.insn	2, 0xd2bc
   119ce:	0000                	.insn	2, 0x
   119d0:	d2bc                	.insn	2, 0xd2bc
   119d2:	0000                	.insn	2, 0x
   119d4:	d2bc                	.insn	2, 0xd2bc
   119d6:	0000                	.insn	2, 0x
   119d8:	d2bc                	.insn	2, 0xd2bc
   119da:	0000                	.insn	2, 0x
   119dc:	d2bc                	.insn	2, 0xd2bc
   119de:	0000                	.insn	2, 0x
   119e0:	d4f0                	.insn	2, 0xd4f0
   119e2:	0000                	.insn	2, 0x
   119e4:	d2bc                	.insn	2, 0xd2bc
   119e6:	0000                	.insn	2, 0x
   119e8:	d2bc                	.insn	2, 0xd2bc
   119ea:	0000                	.insn	2, 0x
   119ec:	d2bc                	.insn	2, 0xd2bc
   119ee:	0000                	.insn	2, 0x
   119f0:	d2bc                	.insn	2, 0xd2bc
   119f2:	0000                	.insn	2, 0x
   119f4:	d2bc                	.insn	2, 0xd2bc
   119f6:	0000                	.insn	2, 0x
   119f8:	d2bc                	.insn	2, 0xd2bc
   119fa:	0000                	.insn	2, 0x
   119fc:	d2bc                	.insn	2, 0xd2bc
   119fe:	0000                	.insn	2, 0x
   11a00:	d2bc                	.insn	2, 0xd2bc
   11a02:	0000                	.insn	2, 0x
   11a04:	d2bc                	.insn	2, 0xd2bc
   11a06:	0000                	.insn	2, 0x
   11a08:	d55c                	.insn	2, 0xd55c
   11a0a:	0000                	.insn	2, 0x
   11a0c:	ce24                	.insn	2, 0xce24
   11a0e:	0000                	.insn	2, 0x
   11a10:	d2cc                	.insn	2, 0xd2cc
   11a12:	0000                	.insn	2, 0x
   11a14:	cf0c                	.insn	2, 0xcf0c
   11a16:	0000                	.insn	2, 0x
   11a18:	cf0c                	.insn	2, 0xcf0c
   11a1a:	0000                	.insn	2, 0x
   11a1c:	d2bc                	.insn	2, 0xd2bc
   11a1e:	0000                	.insn	2, 0x
   11a20:	d2bc                	.insn	2, 0xd2bc
   11a22:	0000                	.insn	2, 0x
   11a24:	d2bc                	.insn	2, 0xd2bc
   11a26:	0000                	.insn	2, 0x
   11a28:	d2bc                	.insn	2, 0xd2bc
   11a2a:	0000                	.insn	2, 0x
   11a2c:	d2bc                	.insn	2, 0xd2bc
   11a2e:	0000                	.insn	2, 0x
   11a30:	d2bc                	.insn	2, 0xd2bc
   11a32:	0000                	.insn	2, 0x
   11a34:	d2bc                	.insn	2, 0xd2bc
   11a36:	0000                	.insn	2, 0x
   11a38:	d2bc                	.insn	2, 0xd2bc
   11a3a:	0000                	.insn	2, 0x
   11a3c:	d4e8                	.insn	2, 0xd4e8
   11a3e:	0000                	.insn	2, 0x
   11a40:	d2bc                	.insn	2, 0xd2bc
   11a42:	0000                	.insn	2, 0x
   11a44:	d2bc                	.insn	2, 0xd2bc
   11a46:	0000                	.insn	2, 0x
   11a48:	d2bc                	.insn	2, 0xd2bc
   11a4a:	0000                	.insn	2, 0x
   11a4c:	ce40                	.insn	2, 0xce40
   11a4e:	0000                	.insn	2, 0x
   11a50:	d2bc                	.insn	2, 0xd2bc
   11a52:	0000                	.insn	2, 0x
   11a54:	d2cc                	.insn	2, 0xd2cc
   11a56:	0000                	.insn	2, 0x
   11a58:	d2bc                	.insn	2, 0xd2bc
   11a5a:	0000                	.insn	2, 0x
   11a5c:	d2bc                	.insn	2, 0xd2bc
   11a5e:	0000                	.insn	2, 0x
   11a60:	d4f0                	.insn	2, 0xd4f0
	...

00011a64 <LfnOfs>:
   11a64:	0301                	.insn	2, 0x0301
   11a66:	0705                	.insn	2, 0x0705
   11a68:	0e09                	.insn	2, 0x0e09
   11a6a:	1210                	.insn	2, 0x1210
   11a6c:	1614                	.insn	2, 0x1614
   11a6e:	1c18                	.insn	2, 0x1c18
   11a70:	001e                	.insn	2, 0x001e
	...

00011a74 <ExCvt>:
   11a74:	9a80                	.insn	2, 0x9a80
   11a76:	4145                	.insn	2, 0x4145
   11a78:	418e                	.insn	2, 0x418e
   11a7a:	4545808f          	.insn	4, 0x4545808f
   11a7e:	4945                	.insn	2, 0x4945
   11a80:	4949                	.insn	2, 0x4949
   11a82:	8f8e                	.insn	2, 0x8f8e
   11a84:	9290                	.insn	2, 0x9290
   11a86:	4f92                	.insn	2, 0x4f92
   11a88:	4f99                	.insn	2, 0x4f99
   11a8a:	5555                	.insn	2, 0x5555
   11a8c:	9959                	.insn	2, 0x9959
   11a8e:	9b9a                	.insn	2, 0x9b9a
   11a90:	9d9c                	.insn	2, 0x9d9c
   11a92:	9f9e                	.insn	2, 0x9f9e
   11a94:	4941                	.insn	2, 0x4941
   11a96:	a5a5554f          	.insn	4, 0xa5a5554f
   11a9a:	a7a6                	.insn	2, 0xa7a6
   11a9c:	a9a8                	.insn	2, 0xa9a8
   11a9e:	abaa                	.insn	2, 0xabaa
   11aa0:	adac                	.insn	2, 0xadac
   11aa2:	afae                	.insn	2, 0xafae
   11aa4:	b1b0                	.insn	2, 0xb1b0
   11aa6:	b3b2                	.insn	2, 0xb3b2
   11aa8:	b5b4                	.insn	2, 0xb5b4
   11aaa:	b7b6                	.insn	2, 0xb7b6
   11aac:	b9b8                	.insn	2, 0xb9b8
   11aae:	bbba                	.insn	2, 0xbbba
   11ab0:	bdbc                	.insn	2, 0xbdbc
   11ab2:	bfbe                	.insn	2, 0xbfbe
   11ab4:	c1c0                	.insn	2, 0xc1c0
   11ab6:	c3c2                	.insn	2, 0xc3c2
   11ab8:	c5c4                	.insn	2, 0xc5c4
   11aba:	c7c6                	.insn	2, 0xc7c6
   11abc:	c9c8                	.insn	2, 0xc9c8
   11abe:	cbca                	.insn	2, 0xcbca
   11ac0:	cdcc                	.insn	2, 0xcdcc
   11ac2:	cfce                	.insn	2, 0xcfce
   11ac4:	d1d0                	.insn	2, 0xd1d0
   11ac6:	d3d2                	.insn	2, 0xd3d2
   11ac8:	d5d4                	.insn	2, 0xd5d4
   11aca:	d7d6                	.insn	2, 0xd7d6
   11acc:	d9d8                	.insn	2, 0xd9d8
   11ace:	dbda                	.insn	2, 0xdbda
   11ad0:	dddc                	.insn	2, 0xdddc
   11ad2:	dfde                	.insn	2, 0xdfde
   11ad4:	e1e0                	.insn	2, 0xe1e0
   11ad6:	e3e2                	.insn	2, 0xe3e2
   11ad8:	e5e4                	.insn	2, 0xe5e4
   11ada:	e7e6                	.insn	2, 0xe7e6
   11adc:	e9e8                	.insn	2, 0xe9e8
   11ade:	ebea                	.insn	2, 0xebea
   11ae0:	edec                	.insn	2, 0xedec
   11ae2:	efee                	.insn	2, 0xefee
   11ae4:	f1f0                	.insn	2, 0xf1f0
   11ae6:	f3f2                	.insn	2, 0xf3f2
   11ae8:	f5f4                	.insn	2, 0xf5f4
   11aea:	f7f6                	.insn	2, 0xf7f6
   11aec:	f9f8                	.insn	2, 0xf9f8
   11aee:	fbfa                	.insn	2, 0xfbfa
   11af0:	fdfc                	.insn	2, 0xfdfc
   11af2:	fffe                	.insn	2, 0xfffe
   11af4:	d738                	.insn	2, 0xd738
   11af6:	0000                	.insn	2, 0x
   11af8:	d750                	.insn	2, 0xd750
   11afa:	0000                	.insn	2, 0x
   11afc:	d768                	.insn	2, 0xd768
   11afe:	0000                	.insn	2, 0x
   11b00:	d778                	.insn	2, 0xd778
   11b02:	0000                	.insn	2, 0x
   11b04:	d788                	.insn	2, 0xd788
   11b06:	0000                	.insn	2, 0x
   11b08:	d798                	.insn	2, 0xd798
   11b0a:	0000                	.insn	2, 0x
   11b0c:	d7a8                	.insn	2, 0xd7a8
   11b0e:	0000                	.insn	2, 0x
   11b10:	d7b8                	.insn	2, 0xd7b8
   11b12:	0000                	.insn	2, 0x
   11b14:	d7c8                	.insn	2, 0xd7c8
	...

00011b18 <uc437>:
   11b18:	00fc00c7          	.insn	4, 0x00fc00c7
   11b1c:	00e9                	.insn	2, 0x00e9
   11b1e:	00e2                	.insn	2, 0x00e2
   11b20:	00e4                	.insn	2, 0x00e4
   11b22:	00e0                	.insn	2, 0x00e0
   11b24:	00e5                	.insn	2, 0x00e5
   11b26:	00ea00e7          	jalr	14(x20)
   11b2a:	00e800eb          	.insn	4, 0x00e800eb
   11b2e:	00ee00ef          	jal	f1b3c <_ebss+0xd4c4c>
   11b32:	00ec                	.insn	2, 0x00ec
   11b34:	00c4                	.insn	2, 0x00c4
   11b36:	00c5                	.insn	2, 0x00c5
   11b38:	00c9                	.insn	2, 0x00c9
   11b3a:	00e6                	.insn	2, 0x00e6
   11b3c:	00c6                	.insn	2, 0x00c6
   11b3e:	00f4                	.insn	2, 0x00f4
   11b40:	00f6                	.insn	2, 0x00f6
   11b42:	00f2                	.insn	2, 0x00f2
   11b44:	00f900fb          	.insn	4, 0x00f900fb
   11b48:	00ff 00d6 00dc 00a2 	.insn	10, 0x00a300a200dc00d600ff
   11b50:	00a3 
   11b52:	00a5                	.insn	2, 0x00a5
   11b54:	019220a7          	.insn	4, 0x019220a7
   11b58:	00e1                	.insn	2, 0x00e1
   11b5a:	00ed                	.insn	2, 0x00ed
   11b5c:	00fa00f3          	.insn	4, 0x00fa00f3
   11b60:	00f1                	.insn	2, 0x00f1
   11b62:	00d1                	.insn	2, 0x00d1
   11b64:	00aa                	.insn	2, 0x00aa
   11b66:	00ba                	.insn	2, 0x00ba
   11b68:	231000bf 00bd00ac 	.insn	8, 0x00bd00ac231000bf
   11b70:	00bc                	.insn	2, 0x00bc
   11b72:	00a1                	.insn	2, 0x00a1
   11b74:	00bb00ab          	.insn	4, 0x00bb00ab
   11b78:	2591                	.insn	2, 0x2591
   11b7a:	2592                	.insn	2, 0x2592
   11b7c:	25022593          	slti	x11,x4,592
   11b80:	2524                	.insn	2, 0x2524
   11b82:	2561                	.insn	2, 0x2561
   11b84:	2562                	.insn	2, 0x2562
   11b86:	2556                	.insn	2, 0x2556
   11b88:	2555                	.insn	2, 0x2555
   11b8a:	25512563          	.insn	4, 0x25512563
   11b8e:	255d2557          	.insn	4, 0x255d2557
   11b92:	255c                	.insn	2, 0x255c
   11b94:	2510255b          	.insn	4, 0x2510255b
   11b98:	2514                	.insn	2, 0x2514
   11b9a:	2534                	.insn	2, 0x2534
   11b9c:	252c                	.insn	2, 0x252c
   11b9e:	251c                	.insn	2, 0x251c
   11ba0:	2500                	.insn	2, 0x2500
   11ba2:	253c                	.insn	2, 0x253c
   11ba4:	255e                	.insn	2, 0x255e
   11ba6:	255f 255a 2554      	.insn	6, 0x2554255a255f
   11bac:	2569                	.insn	2, 0x2569
   11bae:	2566                	.insn	2, 0x2566
   11bb0:	2560                	.insn	2, 0x2560
   11bb2:	2550                	.insn	2, 0x2550
   11bb4:	256c                	.insn	2, 0x256c
   11bb6:	25682567          	.insn	4, 0x25682567
   11bba:	2564                	.insn	2, 0x2564
   11bbc:	2565                	.insn	2, 0x2565
   11bbe:	2559                	.insn	2, 0x2559
   11bc0:	2558                	.insn	2, 0x2558
   11bc2:	2552                	.insn	2, 0x2552
   11bc4:	256b2553          	.insn	4, 0x256b2553
   11bc8:	256a                	.insn	2, 0x256a
   11bca:	2518                	.insn	2, 0x2518
   11bcc:	250c                	.insn	2, 0x250c
   11bce:	2588                	.insn	2, 0x2588
   11bd0:	2584                	.insn	2, 0x2584
   11bd2:	258c                	.insn	2, 0x258c
   11bd4:	2590                	.insn	2, 0x2590
   11bd6:	2580                	.insn	2, 0x2580
   11bd8:	03b1                	.insn	2, 0x03b1
   11bda:	00df 0393 03c0      	.insn	6, 0x03c0039300df
   11be0:	03c303a3          	sb	x28,39(x6)
   11be4:	00b5                	.insn	2, 0x00b5
   11be6:	03c4                	.insn	2, 0x03c4
   11be8:	03a6                	.insn	2, 0x03a6
   11bea:	0398                	.insn	2, 0x0398
   11bec:	03a9                	.insn	2, 0x03a9
   11bee:	03b4                	.insn	2, 0x03b4
   11bf0:	221e                	.insn	2, 0x221e
   11bf2:	03c6                	.insn	2, 0x03c6
   11bf4:	03b5                	.insn	2, 0x03b5
   11bf6:	2229                	.insn	2, 0x2229
   11bf8:	2261                	.insn	2, 0x2261
   11bfa:	00b1                	.insn	2, 0x00b1
   11bfc:	2265                	.insn	2, 0x2265
   11bfe:	2264                	.insn	2, 0x2264
   11c00:	2320                	.insn	2, 0x2320
   11c02:	2321                	.insn	2, 0x2321
   11c04:	224800f7          	.insn	4, 0x224800f7
   11c08:	00b0                	.insn	2, 0x00b0
   11c0a:	2219                	.insn	2, 0x2219
   11c0c:	221a00b7          	lui	x1,0x221a0
   11c10:	207f 00b2 25a0 00a0 	.insn	14, 0x2c6300011d7d00a025a000b2207f
   11c18:	   

00011c18 <cvt2.0>:
   11c18:	1d7d                	.insn	2, 0x1d7d
   11c1a:	0001                	.insn	2, 0x0001
   11c1c:	1e002c63          	.insn	4, 0x1e002c63
   11c20:	0196                	.insn	2, 0x0196
   11c22:	1ea0                	.insn	2, 0x1ea0
   11c24:	015a                	.insn	2, 0x015a
   11c26:	1f00                	.insn	2, 0x1f00
   11c28:	0608                	.insn	2, 0x0608
   11c2a:	1f10                	.insn	2, 0x1f10
   11c2c:	0606                	.insn	2, 0x0606
   11c2e:	1f20                	.insn	2, 0x1f20
   11c30:	0608                	.insn	2, 0x0608
   11c32:	1f30                	.insn	2, 0x1f30
   11c34:	0608                	.insn	2, 0x0608
   11c36:	1f40                	.insn	2, 0x1f40
   11c38:	0606                	.insn	2, 0x0606
   11c3a:	1f51                	.insn	2, 0x1f51
   11c3c:	1f590007          	.insn	4, 0x1f590007
   11c40:	1f52                	.insn	2, 0x1f52
   11c42:	1f541f5b          	.insn	4, 0x1f541f5b
   11c46:	1f5d                	.insn	2, 0x1f5d
   11c48:	1f56                	.insn	2, 0x1f56
   11c4a:	1f5f 1f60 0608      	.insn	6, 0x06081f601f5f
   11c50:	1f70                	.insn	2, 0x1f70
   11c52:	000e                	.insn	2, 0x000e
   11c54:	1fba                	.insn	2, 0x1fba
   11c56:	1fc81fbb          	.insn	4, 0x1fc81fbb
   11c5a:	1fc9                	.insn	2, 0x1fc9
   11c5c:	1fca                	.insn	2, 0x1fca
   11c5e:	1fda1fcb          	.insn	4, 0x1fda1fcb
   11c62:	1ff81fdb          	.insn	4, 0x1ff81fdb
   11c66:	1ff9                	.insn	2, 0x1ff9
   11c68:	1fea                	.insn	2, 0x1fea
   11c6a:	1ffa1feb          	.insn	4, 0x1ffa1feb
   11c6e:	1f801ffb          	.insn	4, 0x1f801ffb
   11c72:	0608                	.insn	2, 0x0608
   11c74:	1f90                	.insn	2, 0x1f90
   11c76:	0608                	.insn	2, 0x0608
   11c78:	1fa0                	.insn	2, 0x1fa0
   11c7a:	0608                	.insn	2, 0x0608
   11c7c:	1fb0                	.insn	2, 0x1fb0
   11c7e:	0004                	.insn	2, 0x0004
   11c80:	1fb8                	.insn	2, 0x1fb8
   11c82:	1fb9                	.insn	2, 0x1fb9
   11c84:	1fb2                	.insn	2, 0x1fb2
   11c86:	1fbc                	.insn	2, 0x1fbc
   11c88:	1fcc                	.insn	2, 0x1fcc
   11c8a:	0001                	.insn	2, 0x0001
   11c8c:	1fd01fc3          	.insn	4, 0x1fd01fc3
   11c90:	0602                	.insn	2, 0x0602
   11c92:	1fe0                	.insn	2, 0x1fe0
   11c94:	0602                	.insn	2, 0x0602
   11c96:	1fe5                	.insn	2, 0x1fe5
   11c98:	0001                	.insn	2, 0x0001
   11c9a:	1fec                	.insn	2, 0x1fec
   11c9c:	00011ff3          	.insn	4, 0x00011ff3
   11ca0:	1ffc                	.insn	2, 0x1ffc
   11ca2:	214e                	.insn	2, 0x214e
   11ca4:	0001                	.insn	2, 0x0001
   11ca6:	2132                	.insn	2, 0x2132
   11ca8:	2170                	.insn	2, 0x2170
   11caa:	0210                	.insn	2, 0x0210
   11cac:	2184                	.insn	2, 0x2184
   11cae:	0001                	.insn	2, 0x0001
   11cb0:	24d02183          	lw	x3,589(x0) # 24d <load_option+0x209>
   11cb4:	051a                	.insn	2, 0x051a
   11cb6:	2c30                	.insn	2, 0x2c30
   11cb8:	2c60042f          	.insn	4, 0x2c60042f
   11cbc:	0102                	.insn	2, 0x0102
   11cbe:	01062c67          	.insn	4, 0x01062c67
   11cc2:	2c75                	.insn	2, 0x2c75
   11cc4:	0102                	.insn	2, 0x0102
   11cc6:	2c80                	.insn	2, 0x2c80
   11cc8:	0164                	.insn	2, 0x0164
   11cca:	2d00                	.insn	2, 0x2d00
   11ccc:	0826                	.insn	2, 0x0826
   11cce:	ff41                	.insn	2, 0xff41
   11cd0:	031a                	.insn	2, 0x031a
	...

00011cd4 <cvt1.1>:
   11cd4:	0061                	.insn	2, 0x0061
   11cd6:	031a                	.insn	2, 0x031a
   11cd8:	00e0                	.insn	2, 0x00e0
   11cda:	00f80317          	auipc	x6,0xf80
   11cde:	00ff0307          	.insn	4, 0x00ff0307
   11ce2:	0001                	.insn	2, 0x0001
   11ce4:	0178                	.insn	2, 0x0178
   11ce6:	0100                	.insn	2, 0x0100
   11ce8:	0130                	.insn	2, 0x0130
   11cea:	0132                	.insn	2, 0x0132
   11cec:	0106                	.insn	2, 0x0106
   11cee:	0139                	.insn	2, 0x0139
   11cf0:	0110                	.insn	2, 0x0110
   11cf2:	014a                	.insn	2, 0x014a
   11cf4:	012e                	.insn	2, 0x012e
   11cf6:	0179                	.insn	2, 0x0179
   11cf8:	0106                	.insn	2, 0x0106
   11cfa:	0180                	.insn	2, 0x0180
   11cfc:	004d                	.insn	2, 0x004d
   11cfe:	01810243          	.insn	4, 0x01810243
   11d02:	0182                	.insn	2, 0x0182
   11d04:	0182                	.insn	2, 0x0182
   11d06:	0184                	.insn	2, 0x0184
   11d08:	0184                	.insn	2, 0x0184
   11d0a:	0186                	.insn	2, 0x0186
   11d0c:	01870187          	.insn	4, 0x01870187
   11d10:	0189                	.insn	2, 0x0189
   11d12:	018a                	.insn	2, 0x018a
   11d14:	018b018b          	.insn	4, 0x018b018b
   11d18:	018d                	.insn	2, 0x018d
   11d1a:	018e                	.insn	2, 0x018e
   11d1c:	0190018f          	.insn	4, 0x0190018f
   11d20:	0191                	.insn	2, 0x0191
   11d22:	0191                	.insn	2, 0x0191
   11d24:	01940193          	add	x3,x8,25
   11d28:	01f6                	.insn	2, 0x01f6
   11d2a:	0196                	.insn	2, 0x0196
   11d2c:	01980197          	auipc	x3,0x1980
   11d30:	0198                	.insn	2, 0x0198
   11d32:	023d                	.insn	2, 0x023d
   11d34:	019c019b          	.insn	4, 0x019c019b
   11d38:	019d                	.insn	2, 0x019d
   11d3a:	0220                	.insn	2, 0x0220
   11d3c:	019f 01a0 01a0      	.insn	6, 0x01a001a0019f
   11d42:	01a2                	.insn	2, 0x01a2
   11d44:	01a2                	.insn	2, 0x01a2
   11d46:	01a4                	.insn	2, 0x01a4
   11d48:	01a4                	.insn	2, 0x01a4
   11d4a:	01a6                	.insn	2, 0x01a6
   11d4c:	01a701a7          	.insn	4, 0x01a701a7
   11d50:	01a9                	.insn	2, 0x01a9
   11d52:	01aa                	.insn	2, 0x01aa
   11d54:	01ac01ab          	.insn	4, 0x01ac01ab
   11d58:	01ac                	.insn	2, 0x01ac
   11d5a:	01ae                	.insn	2, 0x01ae
   11d5c:	01af01af          	.insn	4, 0x01af01af
   11d60:	01b1                	.insn	2, 0x01b1
   11d62:	01b2                	.insn	2, 0x01b2
   11d64:	01b301b3          	add	x3,x6,x27
   11d68:	01b5                	.insn	2, 0x01b5
   11d6a:	01b5                	.insn	2, 0x01b5
   11d6c:	01b801b7          	lui	x3,0x1b80
   11d70:	01b8                	.insn	2, 0x01b8
   11d72:	01ba                	.insn	2, 0x01ba
   11d74:	01bc01bb          	.insn	4, 0x01bc01bb
   11d78:	01bc                	.insn	2, 0x01bc
   11d7a:	01be                	.insn	2, 0x01be
   11d7c:	01c001f7          	.insn	4, 0x01c001f7
   11d80:	01c1                	.insn	2, 0x01c1
   11d82:	01c2                	.insn	2, 0x01c2
   11d84:	01c401c3          	.insn	4, 0x01c401c3
   11d88:	01c5                	.insn	2, 0x01c5
   11d8a:	01c4                	.insn	2, 0x01c4
   11d8c:	01c801c7          	.insn	4, 0x01c801c7
   11d90:	01ca01c7          	.insn	4, 0x01ca01c7
   11d94:	01ca01cb          	.insn	4, 0x01ca01cb
   11d98:	01cd                	.insn	2, 0x01cd
   11d9a:	0110                	.insn	2, 0x0110
   11d9c:	01dd                	.insn	2, 0x01dd
   11d9e:	0001                	.insn	2, 0x0001
   11da0:	018e                	.insn	2, 0x018e
   11da2:	01de                	.insn	2, 0x01de
   11da4:	0112                	.insn	2, 0x0112
   11da6:	000301f3          	.insn	4, 0x000301f3
   11daa:	01f1                	.insn	2, 0x01f1
   11dac:	01f4                	.insn	2, 0x01f4
   11dae:	01f4                	.insn	2, 0x01f4
   11db0:	01f8                	.insn	2, 0x01f8
   11db2:	0128                	.insn	2, 0x0128
   11db4:	0222                	.insn	2, 0x0222
   11db6:	0112                	.insn	2, 0x0112
   11db8:	023a                	.insn	2, 0x023a
   11dba:	0009                	.insn	2, 0x0009
   11dbc:	2c65                	.insn	2, 0x2c65
   11dbe:	023b023b          	.insn	4, 0x023b023b
   11dc2:	023d                	.insn	2, 0x023d
   11dc4:	2c66                	.insn	2, 0x2c66
   11dc6:	0240023f 02410241 	.insn	8, 0x024102410240023f
   11dce:	0246                	.insn	2, 0x0246
   11dd0:	010a                	.insn	2, 0x010a
   11dd2:	00400253          	.insn	4, 0x00400253
   11dd6:	0181                	.insn	2, 0x0181
   11dd8:	0186                	.insn	2, 0x0186
   11dda:	0255                	.insn	2, 0x0255
   11ddc:	0189                	.insn	2, 0x0189
   11dde:	018a                	.insn	2, 0x018a
   11de0:	0258                	.insn	2, 0x0258
   11de2:	025a018f          	.insn	4, 0x025a018f
   11de6:	0190                	.insn	2, 0x0190
   11de8:	025c                	.insn	2, 0x025c
   11dea:	025d                	.insn	2, 0x025d
   11dec:	025e                	.insn	2, 0x025e
   11dee:	025f 0193 0261      	.insn	6, 0x02610193025f
   11df4:	0262                	.insn	2, 0x0262
   11df6:	0194                	.insn	2, 0x0194
   11df8:	0264                	.insn	2, 0x0264
   11dfa:	0265                	.insn	2, 0x0265
   11dfc:	0266                	.insn	2, 0x0266
   11dfe:	01970267          	jalr	x4,25(x14) # 80019 <_ebss+0x63129>
   11e02:	0196                	.insn	2, 0x0196
   11e04:	026a                	.insn	2, 0x026a
   11e06:	2c62                	.insn	2, 0x2c62
   11e08:	026c                	.insn	2, 0x026c
   11e0a:	026d                	.insn	2, 0x026d
   11e0c:	026e                	.insn	2, 0x026e
   11e0e:	019c                	.insn	2, 0x019c
   11e10:	0270                	.insn	2, 0x0270
   11e12:	0271                	.insn	2, 0x0271
   11e14:	019d                	.insn	2, 0x019d
   11e16:	02740273          	.insn	4, 0x02740273
   11e1a:	019f 0276 0277      	.insn	6, 0x02770276019f
   11e20:	0278                	.insn	2, 0x0278
   11e22:	0279                	.insn	2, 0x0279
   11e24:	027a                	.insn	2, 0x027a
   11e26:	027c027b          	.insn	4, 0x027c027b
   11e2a:	2c64                	.insn	2, 0x2c64
   11e2c:	027e                	.insn	2, 0x027e
   11e2e:	027f 01a6 0281 0282 	.insn	10, 0x01a90282028101a6027f
   11e36:	01a9 
   11e38:	0284                	.insn	2, 0x0284
   11e3a:	0285                	.insn	2, 0x0285
   11e3c:	0286                	.insn	2, 0x0286
   11e3e:	01ae0287          	.insn	4, 0x01ae0287
   11e42:	0244                	.insn	2, 0x0244
   11e44:	01b1                	.insn	2, 0x01b1
   11e46:	01b2                	.insn	2, 0x01b2
   11e48:	0245                	.insn	2, 0x0245
   11e4a:	028d                	.insn	2, 0x028d
   11e4c:	028e                	.insn	2, 0x028e
   11e4e:	0290028f          	.insn	4, 0x0290028f
   11e52:	0291                	.insn	2, 0x0291
   11e54:	037b01b7          	lui	x3,0x37b0
   11e58:	03fd0003          	lb	x0,63(x26)
   11e5c:	03fe                	.insn	2, 0x03fe
   11e5e:	03ff 03ac 0004 0386 	.insn	10, 0x03880386000403ac03ff
   11e66:	0388 
   11e68:	0389                	.insn	2, 0x0389
   11e6a:	038a                	.insn	2, 0x038a
   11e6c:	03b1                	.insn	2, 0x03b1
   11e6e:	0311                	.insn	2, 0x0311
   11e70:	03c2                	.insn	2, 0x03c2
   11e72:	0002                	.insn	2, 0x0002
   11e74:	03a303a3          	sb	x26,39(x6) # f91d01 <STACK_TOP+0xe91d01>
   11e78:	03c4                	.insn	2, 0x03c4
   11e7a:	0308                	.insn	2, 0x0308
   11e7c:	03cc                	.insn	2, 0x03cc
   11e7e:	038c0003          	lb	x0,56(x24)
   11e82:	038e                	.insn	2, 0x038e
   11e84:	03d8038f          	.insn	4, 0x03d8038f
   11e88:	0118                	.insn	2, 0x0118
   11e8a:	03f2                	.insn	2, 0x03f2
   11e8c:	000a                	.insn	2, 0x000a
   11e8e:	03f9                	.insn	2, 0x03f9
   11e90:	03f403f3          	.insn	4, 0x03f403f3
   11e94:	03f5                	.insn	2, 0x03f5
   11e96:	03f6                	.insn	2, 0x03f6
   11e98:	03f703f7          	.insn	4, 0x03f703f7
   11e9c:	03f9                	.insn	2, 0x03f9
   11e9e:	03fa                	.insn	2, 0x03fa
   11ea0:	03fa                	.insn	2, 0x03fa
   11ea2:	0430                	.insn	2, 0x0430
   11ea4:	0320                	.insn	2, 0x0320
   11ea6:	0450                	.insn	2, 0x0450
   11ea8:	0710                	.insn	2, 0x0710
   11eaa:	0460                	.insn	2, 0x0460
   11eac:	0122                	.insn	2, 0x0122
   11eae:	048a                	.insn	2, 0x048a
   11eb0:	0136                	.insn	2, 0x0136
   11eb2:	04c1                	.insn	2, 0x04c1
   11eb4:	010e                	.insn	2, 0x010e
   11eb6:	000104cf          	.insn	4, 0x000104cf
   11eba:	04c0                	.insn	2, 0x04c0
   11ebc:	04d0                	.insn	2, 0x04d0
   11ebe:	0144                	.insn	2, 0x0144
   11ec0:	0561                	.insn	2, 0x0561
   11ec2:	0426                	.insn	2, 0x0426
	...

Disassembly of section .srodata:

00011ec8 <nes_bsram_size>:
   11ec8:	2000                	.insn	2, 0x2000
	...

Disassembly of section .srodata.cst8:

00011ed0 <.srodata.cst8>:
   11ed0:	0000                	.insn	2, 0x
   11ed2:	0000                	.insn	2, 0x
   11ed4:	0000                	.insn	2, 0x
   11ed6:	4024                	.insn	2, 0x4024
   11ed8:	0000                	.insn	2, 0x
   11eda:	0000                	.insn	2, 0x
   11edc:	6a00                	.insn	2, 0x6a00
   11ede:	40f8                	.insn	2, 0x40f8
   11ee0:	0000                	.insn	2, 0x
   11ee2:	0000                	.insn	2, 0x
   11ee4:	0000                	.insn	2, 0x
   11ee6:	3ff0                	.insn	2, 0x3ff0
   11ee8:	68f1                	.insn	2, 0x68f1
   11eea:	f8b588e3          	beq	x11,x11,11e7a <cvt1.1+0x1a6>
   11eee:	3ee4                	.insn	2, 0x3ee4
   11ef0:	ffff                	.insn	2, 0xffff
   11ef2:	ffff                	.insn	2, 0xffff
   11ef4:	ffff                	.insn	2, 0xffff
   11ef6:	00007fef          	jal	x31,18ef6 <__clz_tab+0x6dfa>
   11efa:	0000                	.insn	2, 0x
   11efc:	0000                	.insn	2, 0x
   11efe:	3fe0                	.insn	2, 0x3fe0

Disassembly of section .eh_frame:

00011f00 <.eh_frame>:
   11f00:	0010                	.insn	2, 0x0010
   11f02:	0000                	.insn	2, 0x
   11f04:	0000                	.insn	2, 0x
   11f06:	0000                	.insn	2, 0x
   11f08:	00527a03          	.insn	4, 0x00527a03
   11f0c:	7c01                	.insn	2, 0x7c01
   11f0e:	0101                	.insn	2, 0x0101
   11f10:	00020d1b          	.insn	4, 0x00020d1b
   11f14:	00d8                	.insn	2, 0x00d8
   11f16:	0000                	.insn	2, 0x
   11f18:	0018                	.insn	2, 0x0018
   11f1a:	0000                	.insn	2, 0x
   11f1c:	b99c                	.insn	2, 0xb99c
   11f1e:	ffff                	.insn	2, 0xffff
   11f20:	06ac                	.insn	2, 0x06ac
   11f22:	0000                	.insn	2, 0x
   11f24:	4400                	.insn	2, 0x4400
   11f26:	300e                	.insn	2, 0x300e
   11f28:	934c                	.insn	2, 0x934c
   11f2a:	8105                	.insn	2, 0x8105
   11f2c:	9601                	.insn	2, 0x9601
   11f2e:	5c08                	.insn	2, 0x5c08
   11f30:	0288                	.insn	2, 0x0288
   11f32:	0795                	.insn	2, 0x0795
   11f34:	0389                	.insn	2, 0x0389
   11f36:	0492                	.insn	2, 0x0492
   11f38:	0694                	.insn	2, 0x0694
   11f3a:	c8012c03          	lw	x24,-896(x2)
   11f3e:	c144                	.insn	2, 0xc144
   11f40:	c944                	.insn	2, 0xc944
   11f42:	d244                	.insn	2, 0xd244
   11f44:	d444                	.insn	2, 0xd444
   11f46:	d544                	.insn	2, 0xd544
   11f48:	d344                	.insn	2, 0xd344
   11f4a:	d648                	.insn	2, 0xd648
   11f4c:	0e44                	.insn	2, 0x0e44
   11f4e:	4400                	.insn	2, 0x4400
   11f50:	300e                	.insn	2, 0x300e
   11f52:	0181                	.insn	2, 0x0181
   11f54:	08960593          	add	x11,x12,137
   11f58:	0a50                	.insn	2, 0x0a50
   11f5a:	44c1                	.insn	2, 0x44c1
   11f5c:	44d648d3          	.insn	4, 0x44d648d3
   11f60:	000e                	.insn	2, 0x000e
   11f62:	0b44                	.insn	2, 0x0b44
   11f64:	5002                	.insn	2, 0x5002
   11f66:	0288                	.insn	2, 0x0288
   11f68:	0389                	.insn	2, 0x0389
   11f6a:	0492                	.insn	2, 0x0492
   11f6c:	0694                	.insn	2, 0x0694
   11f6e:	0795                	.insn	2, 0x0795
   11f70:	97014c03          	lbu	x24,-1680(x2)
   11f74:	0209                	.insn	2, 0x0209
   11f76:	d7e0                	.insn	2, 0xd7e0
   11f78:	c844                	.insn	2, 0xc844
   11f7a:	d2c9                	.insn	2, 0xd2c9
   11f7c:	d5d4                	.insn	2, 0xd5d4
   11f7e:	9978                	.insn	2, 0x9978
   11f80:	0795500b          	.insn	4, 0x0795500b
   11f84:	985c0997          	auipc	x19,0x985c0
   11f88:	500a                	.insn	2, 0x500a
   11f8a:	0288                	.insn	2, 0x0288
   11f8c:	0389                	.insn	2, 0x0389
   11f8e:	0492                	.insn	2, 0x0492
   11f90:	944c                	.insn	2, 0x944c
   11f92:	0306                	.insn	2, 0x0306
   11f94:	013c                	.insn	2, 0x013c
   11f96:	44c8                	.insn	2, 0x44c8
   11f98:	48c1                	.insn	2, 0x48c1
   11f9a:	44c9                	.insn	2, 0x44c9
   11f9c:	44d2                	.insn	2, 0x44d2
   11f9e:	44d4                	.insn	2, 0x44d4
   11fa0:	44d5                	.insn	2, 0x44d5
   11fa2:	44d844d7          	.insn	4, 0x44d844d7
   11fa6:	44d9                	.insn	2, 0x44d9
   11fa8:	44d648d3          	.insn	4, 0x44d648d3
   11fac:	000e                	.insn	2, 0x000e
   11fae:	0e44                	.insn	2, 0x0e44
   11fb0:	8130                	.insn	2, 0x8130
   11fb2:	8801                	.insn	2, 0x8801
   11fb4:	8902                	.insn	2, 0x8902
   11fb6:	93049203          	lh	x4,-1744(x9)
   11fba:	9405                	.insn	2, 0x9405
   11fbc:	9506                	.insn	2, 0x9506
   11fbe:	48089607          	.insn	4, 0x48089607
   11fc2:	0a980997          	auipc	x19,0xa980
   11fc6:	0b99                	.insn	2, 0x0b99
   11fc8:	d768                	.insn	2, 0xd768
   11fca:	d9d8                	.insn	2, 0xd9d8
   11fcc:	c854                	.insn	2, 0xc854
   11fce:	d2c9                	.insn	2, 0xd2c9
   11fd0:	d5d4                	.insn	2, 0xd5d4
   11fd2:	884c                	.insn	2, 0x884c
   11fd4:	8902                	.insn	2, 0x8902
   11fd6:	94049203          	lh	x4,-1728(x9)
   11fda:	9506                	.insn	2, 0x9506
   11fdc:	48099707          	.insn	4, 0x48099707
   11fe0:	0a98                	.insn	2, 0x0a98
   11fe2:	0b99                	.insn	2, 0x0b99
   11fe4:	d848                	.insn	2, 0xd848
   11fe6:	48d9                	.insn	2, 0x48d9
   11fe8:	0a98                	.insn	2, 0x0a98
   11fea:	0b99                	.insn	2, 0x0b99
   11fec:	d748                	.insn	2, 0xd748
   11fee:	d9d8                	.insn	2, 0xd9d8
   11ff0:	00c8                	.insn	2, 0x00c8
   11ff2:	0000                	.insn	2, 0x
   11ff4:	00f4                	.insn	2, 0x00f4
   11ff6:	0000                	.insn	2, 0x
   11ff8:	bf6c                	.insn	2, 0xbf6c
   11ffa:	ffff                	.insn	2, 0xffff
   11ffc:	0658                	.insn	2, 0x0658
   11ffe:	0000                	.insn	2, 0x
   12000:	4400                	.insn	2, 0x4400
   12002:	300e                	.insn	2, 0x300e
   12004:	8148                	.insn	2, 0x8148
   12006:	5c01                	.insn	2, 0x5c01
   12008:	0492                	.insn	2, 0x0492
   1200a:	0694                	.insn	2, 0x0694
   1200c:	0288                	.insn	2, 0x0288
   1200e:	0389                	.insn	2, 0x0389
   12010:	07950593          	add	x11,x10,121
   12014:	9658                	.insn	2, 0x9658
   12016:	0308                	.insn	2, 0x0308
   12018:	00e8                	.insn	2, 0x00e8
   1201a:	4cd6                	.insn	2, 0x4cd6
   1201c:	44c8                	.insn	2, 0x44c8
   1201e:	44c9                	.insn	2, 0x44c9
   12020:	44d2                	.insn	2, 0x44d2
   12022:	44d444d3          	.insn	4, 0x44d444d3
   12026:	48d5                	.insn	2, 0x48d5
   12028:	c10a                	.insn	2, 0xc10a
   1202a:	0e44                	.insn	2, 0x0e44
   1202c:	4400                	.insn	2, 0x4400
   1202e:	0492580b          	.insn	4, 0x0492580b
   12032:	54020593          	add	x11,x4,1344 # 540 <message+0x148>
   12036:	44c1                	.insn	2, 0x44c1
   12038:	44d2                	.insn	2, 0x44d2
   1203a:	000e4cd3          	.insn	4, 0x000e4cd3
   1203e:	0e44                	.insn	2, 0x0e44
   12040:	8130                	.insn	2, 0x8130
   12042:	8801                	.insn	2, 0x8801
   12044:	8902                	.insn	2, 0x8902
   12046:	93049203          	lh	x4,-1744(x9)
   1204a:	9405                	.insn	2, 0x9405
   1204c:	9506                	.insn	2, 0x9506
   1204e:	96e40207          	.insn	4, 0x96e40207
   12052:	5008                	.insn	2, 0x5008
   12054:	74d6                	.insn	2, 0x74d6
   12056:	96680997          	auipc	x19,0x96680
   1205a:	0208                	.insn	2, 0x0208
   1205c:	d794                	.insn	2, 0xd794
   1205e:	d644                	.insn	2, 0xd644
   12060:	c844                	.insn	2, 0xc844
   12062:	d4c9                	.insn	2, 0xd4c9
   12064:	78d5                	.insn	2, 0x78d5
   12066:	0795                	.insn	2, 0x0795
   12068:	9750                	.insn	2, 0x9750
   1206a:	9a09                	.insn	2, 0x9a09
   1206c:	5c0c                	.insn	2, 0x5c0c
   1206e:	0b99                	.insn	2, 0x0b99
   12070:	884c                	.insn	2, 0x884c
   12072:	8902                	.insn	2, 0x8902
   12074:	06945003          	lhu	x0,105(x8)
   12078:	0896                	.insn	2, 0x0896
   1207a:	9848                	.insn	2, 0x9848
   1207c:	030a                	.insn	2, 0x030a
   1207e:	0158                	.insn	2, 0x0158
   12080:	c80a                	.insn	2, 0xc80a
   12082:	c144                	.insn	2, 0xc144
   12084:	c954                	.insn	2, 0xc954
   12086:	d344                	.insn	2, 0xd344
   12088:	d444                	.insn	2, 0xd444
   1208a:	d544                	.insn	2, 0xd544
   1208c:	d644                	.insn	2, 0xd644
   1208e:	d744                	.insn	2, 0xd744
   12090:	d844                	.insn	2, 0xd844
   12092:	d944                	.insn	2, 0xd944
   12094:	da44                	.insn	2, 0xda44
   12096:	d24c                	.insn	2, 0xd24c
   12098:	0e44                	.insn	2, 0x0e44
   1209a:	4400                	.insn	2, 0x4400
   1209c:	d7d65c0b          	.insn	4, 0xd7d65c0b
   120a0:	d9d8                	.insn	2, 0xd9d8
   120a2:	54da                	.insn	2, 0x54da
   120a4:	0896                	.insn	2, 0x0896
   120a6:	0a980997          	auipc	x19,0xa980
   120aa:	0b99                	.insn	2, 0x0b99
   120ac:	0c9a                	.insn	2, 0x0c9a
   120ae:	d750                	.insn	2, 0xd750
   120b0:	d9d8                	.insn	2, 0xd9d8
   120b2:	48da                	.insn	2, 0x48da
   120b4:	48d6                	.insn	2, 0x48d6
   120b6:	0896                	.insn	2, 0x0896
   120b8:	d648                	.insn	2, 0xd648
	...

Disassembly of section .rodata.__divdf3:

000120bc <.rodata.__divdf3>:
   120bc:	d0dc                	.insn	2, 0xd0dc
   120be:	ffff                	.insn	2, 0xffff
   120c0:	cf88                	.insn	2, 0xcf88
   120c2:	ffff                	.insn	2, 0xffff
   120c4:	cf34                	.insn	2, 0xcf34
   120c6:	ffff                	.insn	2, 0xffff
   120c8:	d088                	.insn	2, 0xd088
   120ca:	ffff                	.insn	2, 0xffff
   120cc:	cf34                	.insn	2, 0xcf34
   120ce:	ffff                	.insn	2, 0xffff
   120d0:	cf98                	.insn	2, 0xcf98
   120d2:	ffff                	.insn	2, 0xffff
   120d4:	cf34                	.insn	2, 0xcf34
   120d6:	ffff                	.insn	2, 0xffff
   120d8:	d088                	.insn	2, 0xd088
   120da:	ffff                	.insn	2, 0xffff
   120dc:	cf88                	.insn	2, 0xcf88
   120de:	ffff                	.insn	2, 0xffff
   120e0:	cf88                	.insn	2, 0xcf88
   120e2:	ffff                	.insn	2, 0xffff
   120e4:	cf98                	.insn	2, 0xcf98
   120e6:	ffff                	.insn	2, 0xffff
   120e8:	d088                	.insn	2, 0xd088
   120ea:	ffff                	.insn	2, 0xffff
   120ec:	d014                	.insn	2, 0xd014
   120ee:	ffff                	.insn	2, 0xffff
   120f0:	d014                	.insn	2, 0xd014
   120f2:	ffff                	.insn	2, 0xffff
   120f4:	d014                	.insn	2, 0xd014
   120f6:	ffff                	.insn	2, 0xffff
   120f8:	cf98                	.insn	2, 0xcf98
   120fa:	ffff                	.insn	2, 0xffff

Disassembly of section .rodata.__clz_tab:

000120fc <__clz_tab>:
   120fc:	0100                	.insn	2, 0x0100
   120fe:	0202                	.insn	2, 0x0202
   12100:	03030303          	lb	x6,48(x6)
   12104:	0404                	.insn	2, 0x0404
   12106:	0404                	.insn	2, 0x0404
   12108:	0404                	.insn	2, 0x0404
   1210a:	0404                	.insn	2, 0x0404
   1210c:	0505                	.insn	2, 0x0505
   1210e:	0505                	.insn	2, 0x0505
   12110:	0505                	.insn	2, 0x0505
   12112:	0505                	.insn	2, 0x0505
   12114:	0505                	.insn	2, 0x0505
   12116:	0505                	.insn	2, 0x0505
   12118:	0505                	.insn	2, 0x0505
   1211a:	0505                	.insn	2, 0x0505
   1211c:	0606                	.insn	2, 0x0606
   1211e:	0606                	.insn	2, 0x0606
   12120:	0606                	.insn	2, 0x0606
   12122:	0606                	.insn	2, 0x0606
   12124:	0606                	.insn	2, 0x0606
   12126:	0606                	.insn	2, 0x0606
   12128:	0606                	.insn	2, 0x0606
   1212a:	0606                	.insn	2, 0x0606
   1212c:	0606                	.insn	2, 0x0606
   1212e:	0606                	.insn	2, 0x0606
   12130:	0606                	.insn	2, 0x0606
   12132:	0606                	.insn	2, 0x0606
   12134:	0606                	.insn	2, 0x0606
   12136:	0606                	.insn	2, 0x0606
   12138:	0606                	.insn	2, 0x0606
   1213a:	0606                	.insn	2, 0x0606
   1213c:	07070707          	.insn	4, 0x07070707
   12140:	07070707          	.insn	4, 0x07070707
   12144:	07070707          	.insn	4, 0x07070707
   12148:	07070707          	.insn	4, 0x07070707
   1214c:	07070707          	.insn	4, 0x07070707
   12150:	07070707          	.insn	4, 0x07070707
   12154:	07070707          	.insn	4, 0x07070707
   12158:	07070707          	.insn	4, 0x07070707
   1215c:	07070707          	.insn	4, 0x07070707
   12160:	07070707          	.insn	4, 0x07070707
   12164:	07070707          	.insn	4, 0x07070707
   12168:	07070707          	.insn	4, 0x07070707
   1216c:	07070707          	.insn	4, 0x07070707
   12170:	07070707          	.insn	4, 0x07070707
   12174:	07070707          	.insn	4, 0x07070707
   12178:	07070707          	.insn	4, 0x07070707
   1217c:	0808                	.insn	2, 0x0808
   1217e:	0808                	.insn	2, 0x0808
   12180:	0808                	.insn	2, 0x0808
   12182:	0808                	.insn	2, 0x0808
   12184:	0808                	.insn	2, 0x0808
   12186:	0808                	.insn	2, 0x0808
   12188:	0808                	.insn	2, 0x0808
   1218a:	0808                	.insn	2, 0x0808
   1218c:	0808                	.insn	2, 0x0808
   1218e:	0808                	.insn	2, 0x0808
   12190:	0808                	.insn	2, 0x0808
   12192:	0808                	.insn	2, 0x0808
   12194:	0808                	.insn	2, 0x0808
   12196:	0808                	.insn	2, 0x0808
   12198:	0808                	.insn	2, 0x0808
   1219a:	0808                	.insn	2, 0x0808
   1219c:	0808                	.insn	2, 0x0808
   1219e:	0808                	.insn	2, 0x0808
   121a0:	0808                	.insn	2, 0x0808
   121a2:	0808                	.insn	2, 0x0808
   121a4:	0808                	.insn	2, 0x0808
   121a6:	0808                	.insn	2, 0x0808
   121a8:	0808                	.insn	2, 0x0808
   121aa:	0808                	.insn	2, 0x0808
   121ac:	0808                	.insn	2, 0x0808
   121ae:	0808                	.insn	2, 0x0808
   121b0:	0808                	.insn	2, 0x0808
   121b2:	0808                	.insn	2, 0x0808
   121b4:	0808                	.insn	2, 0x0808
   121b6:	0808                	.insn	2, 0x0808
   121b8:	0808                	.insn	2, 0x0808
   121ba:	0808                	.insn	2, 0x0808
   121bc:	0808                	.insn	2, 0x0808
   121be:	0808                	.insn	2, 0x0808
   121c0:	0808                	.insn	2, 0x0808
   121c2:	0808                	.insn	2, 0x0808
   121c4:	0808                	.insn	2, 0x0808
   121c6:	0808                	.insn	2, 0x0808
   121c8:	0808                	.insn	2, 0x0808
   121ca:	0808                	.insn	2, 0x0808
   121cc:	0808                	.insn	2, 0x0808
   121ce:	0808                	.insn	2, 0x0808
   121d0:	0808                	.insn	2, 0x0808
   121d2:	0808                	.insn	2, 0x0808
   121d4:	0808                	.insn	2, 0x0808
   121d6:	0808                	.insn	2, 0x0808
   121d8:	0808                	.insn	2, 0x0808
   121da:	0808                	.insn	2, 0x0808
   121dc:	0808                	.insn	2, 0x0808
   121de:	0808                	.insn	2, 0x0808
   121e0:	0808                	.insn	2, 0x0808
   121e2:	0808                	.insn	2, 0x0808
   121e4:	0808                	.insn	2, 0x0808
   121e6:	0808                	.insn	2, 0x0808
   121e8:	0808                	.insn	2, 0x0808
   121ea:	0808                	.insn	2, 0x0808
   121ec:	0808                	.insn	2, 0x0808
   121ee:	0808                	.insn	2, 0x0808
   121f0:	0808                	.insn	2, 0x0808
   121f2:	0808                	.insn	2, 0x0808
   121f4:	0808                	.insn	2, 0x0808
   121f6:	0808                	.insn	2, 0x0808
   121f8:	0808                	.insn	2, 0x0808
   121fa:	0808                	.insn	2, 0x0808

Disassembly of section .data:

00019000 <snes_backup_path>:
   19000:	65766173          	.insn	4, 0x65766173
   19004:	00002f73          	.insn	4, 0x2f73
	...

0001910c <nes_backup_save_str_bsram>:
   1910c:	65766173          	.insn	4, 0x65766173
   19110:	00002f73          	.insn	4, 0x2f73

00019114 <nes_bsram_starting_address>:
   19114:	6000                	.insn	2, 0x6000
   19116:	0006                	.insn	2, 0x0006

00019118 <NES_BSRAM>:
   19118:	6000                	.insn	2, 0x6000
	...

0001911c <SNES_BSRAM>:
   1911c:	0000                	.insn	2, 0x
   1911e:	0700                	.insn	2, 0x0700

Disassembly of section .riscv.attributes:

00000000 <.riscv.attributes>:
   0:	1b41                	.insn	2, 0x1b41
   2:	0000                	.insn	2, 0x
   4:	7200                	.insn	2, 0x7200
   6:	7369                	.insn	2, 0x7369
   8:	01007663          	bgeu	x0,x16,14 <_start+0x14>
   c:	0011                	.insn	2, 0x0011
   e:	0000                	.insn	2, 0x
  10:	1004                	.insn	2, 0x1004
  12:	7205                	.insn	2, 0x7205
  14:	3376                	.insn	2, 0x3376
  16:	6932                	.insn	2, 0x6932
  18:	7032                	.insn	2, 0x7032
  1a:	0031                	.insn	2, 0x0031

Disassembly of section .comment:

00000000 <.comment>:
   0:	3a434347          	.insn	4, 0x3a434347
   4:	2820                	.insn	2, 0x2820
   6:	5078                	.insn	2, 0x5078
   8:	6361                	.insn	2, 0x6361
   a:	4e47206b          	.insn	4, 0x4e47206b
   e:	2055                	.insn	2, 0x2055
  10:	4952                	.insn	2, 0x4952
  12:	562d4353          	.insn	4, 0x562d4353
  16:	4520                	.insn	2, 0x4520
  18:	626d                	.insn	2, 0x626d
  1a:	6465                	.insn	2, 0x6465
  1c:	6564                	.insn	2, 0x6564
  1e:	2064                	.insn	2, 0x2064
  20:	20434347          	.insn	4, 0x20434347
  24:	3878                	.insn	2, 0x3878
  26:	5f36                	.insn	2, 0x5f36
  28:	3436                	.insn	2, 0x3436
  2a:	2029                	.insn	2, 0x2029
  2c:	3331                	.insn	2, 0x3331
  2e:	322e                	.insn	2, 0x322e
  30:	302e                	.insn	2, 0x302e
	...
